   1               		.file	"HID.c"
   2               	__SP_H__ = 0x3e
   3               	__SP_L__ = 0x3d
   4               	__SREG__ = 0x3f
   5               	__tmp_reg__ = 0
   6               	__zero_reg__ = 1
   7               		.text
   8               	.Ltext0:
   9               		.cfi_sections	.debug_frame
  10               		.section	.text.HID_Device_ProcessControlRequest,"ax",@progbits
  11               	.global	HID_Device_ProcessControlRequest
  13               	HID_Device_ProcessControlRequest:
  14               	.LVL0:
  15               	.LFB66:
  16               		.file 1 "LUFA-100807/LUFA/Drivers/USB/Class/Device/HID.c"
   1:LUFA-100807/LUFA/Drivers/USB/Class/Device/HID.c **** /*
   2:LUFA-100807/LUFA/Drivers/USB/Class/Device/HID.c ****              LUFA Library
   3:LUFA-100807/LUFA/Drivers/USB/Class/Device/HID.c ****      Copyright (C) Dean Camera, 2010.
   4:LUFA-100807/LUFA/Drivers/USB/Class/Device/HID.c ****               
   5:LUFA-100807/LUFA/Drivers/USB/Class/Device/HID.c ****   dean [at] fourwalledcubicle [dot] com
   6:LUFA-100807/LUFA/Drivers/USB/Class/Device/HID.c ****       www.fourwalledcubicle.com
   7:LUFA-100807/LUFA/Drivers/USB/Class/Device/HID.c **** */
   8:LUFA-100807/LUFA/Drivers/USB/Class/Device/HID.c **** 
   9:LUFA-100807/LUFA/Drivers/USB/Class/Device/HID.c **** /*
  10:LUFA-100807/LUFA/Drivers/USB/Class/Device/HID.c ****   Copyright 2010  Dean Camera (dean [at] fourwalledcubicle [dot] com)
  11:LUFA-100807/LUFA/Drivers/USB/Class/Device/HID.c **** 
  12:LUFA-100807/LUFA/Drivers/USB/Class/Device/HID.c ****   Permission to use, copy, modify, distribute, and sell this 
  13:LUFA-100807/LUFA/Drivers/USB/Class/Device/HID.c ****   software and its documentation for any purpose is hereby granted
  14:LUFA-100807/LUFA/Drivers/USB/Class/Device/HID.c ****   without fee, provided that the above copyright notice appear in 
  15:LUFA-100807/LUFA/Drivers/USB/Class/Device/HID.c ****   all copies and that both that the copyright notice and this
  16:LUFA-100807/LUFA/Drivers/USB/Class/Device/HID.c ****   permission notice and warranty disclaimer appear in supporting 
  17:LUFA-100807/LUFA/Drivers/USB/Class/Device/HID.c ****   documentation, and that the name of the author not be used in 
  18:LUFA-100807/LUFA/Drivers/USB/Class/Device/HID.c ****   advertising or publicity pertaining to distribution of the 
  19:LUFA-100807/LUFA/Drivers/USB/Class/Device/HID.c ****   software without specific, written prior permission.
  20:LUFA-100807/LUFA/Drivers/USB/Class/Device/HID.c **** 
  21:LUFA-100807/LUFA/Drivers/USB/Class/Device/HID.c ****   The author disclaim all warranties with regard to this
  22:LUFA-100807/LUFA/Drivers/USB/Class/Device/HID.c ****   software, including all implied warranties of merchantability
  23:LUFA-100807/LUFA/Drivers/USB/Class/Device/HID.c ****   and fitness.  In no event shall the author be liable for any
  24:LUFA-100807/LUFA/Drivers/USB/Class/Device/HID.c ****   special, indirect or consequential damages or any damages
  25:LUFA-100807/LUFA/Drivers/USB/Class/Device/HID.c ****   whatsoever resulting from loss of use, data or profits, whether
  26:LUFA-100807/LUFA/Drivers/USB/Class/Device/HID.c ****   in an action of contract, negligence or other tortious action,
  27:LUFA-100807/LUFA/Drivers/USB/Class/Device/HID.c ****   arising out of or in connection with the use or performance of
  28:LUFA-100807/LUFA/Drivers/USB/Class/Device/HID.c ****   this software.
  29:LUFA-100807/LUFA/Drivers/USB/Class/Device/HID.c **** */
  30:LUFA-100807/LUFA/Drivers/USB/Class/Device/HID.c **** 
  31:LUFA-100807/LUFA/Drivers/USB/Class/Device/HID.c **** #define  __INCLUDE_FROM_USB_DRIVER
  32:LUFA-100807/LUFA/Drivers/USB/Class/Device/HID.c **** #include "../../HighLevel/USBMode.h"
  33:LUFA-100807/LUFA/Drivers/USB/Class/Device/HID.c **** #if defined(USB_CAN_BE_DEVICE)
  34:LUFA-100807/LUFA/Drivers/USB/Class/Device/HID.c **** 
  35:LUFA-100807/LUFA/Drivers/USB/Class/Device/HID.c **** #define  __INCLUDE_FROM_HID_DRIVER
  36:LUFA-100807/LUFA/Drivers/USB/Class/Device/HID.c **** #include "HID.h"
  37:LUFA-100807/LUFA/Drivers/USB/Class/Device/HID.c **** 
  38:LUFA-100807/LUFA/Drivers/USB/Class/Device/HID.c **** void HID_Device_ProcessControlRequest(USB_ClassInfo_HID_Device_t* const HIDInterfaceInfo)
  39:LUFA-100807/LUFA/Drivers/USB/Class/Device/HID.c **** {
  17               		.loc 1 39 1 view -0
  18               		.cfi_startproc
  19               		.loc 1 39 1 is_stmt 0 view .LVU1
  20 0000 AF92      		push r10
  21               	.LCFI0:
  22               		.cfi_def_cfa_offset 3
  23               		.cfi_offset 10, -2
  24 0002 BF92      		push r11
  25               	.LCFI1:
  26               		.cfi_def_cfa_offset 4
  27               		.cfi_offset 11, -3
  28 0004 CF92      		push r12
  29               	.LCFI2:
  30               		.cfi_def_cfa_offset 5
  31               		.cfi_offset 12, -4
  32 0006 DF92      		push r13
  33               	.LCFI3:
  34               		.cfi_def_cfa_offset 6
  35               		.cfi_offset 13, -5
  36 0008 EF92      		push r14
  37               	.LCFI4:
  38               		.cfi_def_cfa_offset 7
  39               		.cfi_offset 14, -6
  40 000a FF92      		push r15
  41               	.LCFI5:
  42               		.cfi_def_cfa_offset 8
  43               		.cfi_offset 15, -7
  44 000c 0F93      		push r16
  45               	.LCFI6:
  46               		.cfi_def_cfa_offset 9
  47               		.cfi_offset 16, -8
  48 000e 1F93      		push r17
  49               	.LCFI7:
  50               		.cfi_def_cfa_offset 10
  51               		.cfi_offset 17, -9
  52 0010 CF93      		push r28
  53               	.LCFI8:
  54               		.cfi_def_cfa_offset 11
  55               		.cfi_offset 28, -10
  56 0012 DF93      		push r29
  57               	.LCFI9:
  58               		.cfi_def_cfa_offset 12
  59               		.cfi_offset 29, -11
  60 0014 00D0      		rcall .
  61 0016 00D0      		rcall .
  62 0018 00D0      		rcall .
  63 001a 0F92      		push __tmp_reg__
  64               	.LCFI10:
  65               		.cfi_def_cfa_offset 19
  66 001c CDB7      		in r28,__SP_L__
  67 001e DEB7      		in r29,__SP_H__
  68               	.LCFI11:
  69               		.cfi_def_cfa_register 28
  70               	/* prologue: function */
  71               	/* frame size = 7 */
  72               	/* stack size = 17 */
  73               	.L__stack_usage = 17
  74 0020 7C01      		movw r14,r24
  40:LUFA-100807/LUFA/Drivers/USB/Class/Device/HID.c **** 	if (!(Endpoint_IsSETUPReceived()))
  41:LUFA-100807/LUFA/Drivers/USB/Class/Device/HID.c **** 	  return;
  42:LUFA-100807/LUFA/Drivers/USB/Class/Device/HID.c **** 	  
  43:LUFA-100807/LUFA/Drivers/USB/Class/Device/HID.c **** 	if (USB_ControlRequest.wIndex != HIDInterfaceInfo->Config.InterfaceNumber)
  44:LUFA-100807/LUFA/Drivers/USB/Class/Device/HID.c **** 	  return;
  45:LUFA-100807/LUFA/Drivers/USB/Class/Device/HID.c **** 
  46:LUFA-100807/LUFA/Drivers/USB/Class/Device/HID.c **** 	switch (USB_ControlRequest.bRequest)
  47:LUFA-100807/LUFA/Drivers/USB/Class/Device/HID.c **** 	{
  48:LUFA-100807/LUFA/Drivers/USB/Class/Device/HID.c **** 		case REQ_GetReport:
  49:LUFA-100807/LUFA/Drivers/USB/Class/Device/HID.c **** 			if (USB_ControlRequest.bmRequestType == (REQDIR_DEVICETOHOST | REQTYPE_CLASS | REQREC_INTERFACE)
  50:LUFA-100807/LUFA/Drivers/USB/Class/Device/HID.c **** 			{
  51:LUFA-100807/LUFA/Drivers/USB/Class/Device/HID.c **** 				Endpoint_ClearSETUP();	
  52:LUFA-100807/LUFA/Drivers/USB/Class/Device/HID.c **** 
  53:LUFA-100807/LUFA/Drivers/USB/Class/Device/HID.c **** 				uint16_t ReportSize = 0;
  54:LUFA-100807/LUFA/Drivers/USB/Class/Device/HID.c **** 				uint8_t  ReportID   = (USB_ControlRequest.wValue & 0xFF);
  55:LUFA-100807/LUFA/Drivers/USB/Class/Device/HID.c **** 				uint8_t  ReportType = (USB_ControlRequest.wValue >> 8) - 1;
  56:LUFA-100807/LUFA/Drivers/USB/Class/Device/HID.c **** 				uint8_t  ReportData[HIDInterfaceInfo->Config.PrevReportINBufferSize];
  57:LUFA-100807/LUFA/Drivers/USB/Class/Device/HID.c **** 
  58:LUFA-100807/LUFA/Drivers/USB/Class/Device/HID.c **** 				memset(ReportData, 0, sizeof(ReportData));
  59:LUFA-100807/LUFA/Drivers/USB/Class/Device/HID.c **** 
  60:LUFA-100807/LUFA/Drivers/USB/Class/Device/HID.c **** 				CALLBACK_HID_Device_CreateHIDReport(HIDInterfaceInfo, &ReportID, ReportType, ReportData, &Repor
  61:LUFA-100807/LUFA/Drivers/USB/Class/Device/HID.c **** 				
  62:LUFA-100807/LUFA/Drivers/USB/Class/Device/HID.c **** 				if (HIDInterfaceInfo->Config.PrevReportINBuffer != NULL)
  63:LUFA-100807/LUFA/Drivers/USB/Class/Device/HID.c **** 				  memcpy(HIDInterfaceInfo->Config.PrevReportINBuffer, ReportData, HIDInterfaceInfo->Config.Prev
  64:LUFA-100807/LUFA/Drivers/USB/Class/Device/HID.c **** 
  65:LUFA-100807/LUFA/Drivers/USB/Class/Device/HID.c **** 				Endpoint_SelectEndpoint(ENDPOINT_CONTROLEP);
  66:LUFA-100807/LUFA/Drivers/USB/Class/Device/HID.c **** 				Endpoint_Write_Control_Stream_LE(ReportData, ReportSize);
  67:LUFA-100807/LUFA/Drivers/USB/Class/Device/HID.c **** 				Endpoint_ClearOUT();
  68:LUFA-100807/LUFA/Drivers/USB/Class/Device/HID.c **** 			}
  69:LUFA-100807/LUFA/Drivers/USB/Class/Device/HID.c **** 		
  70:LUFA-100807/LUFA/Drivers/USB/Class/Device/HID.c **** 			break;
  71:LUFA-100807/LUFA/Drivers/USB/Class/Device/HID.c **** 		case REQ_SetReport:
  72:LUFA-100807/LUFA/Drivers/USB/Class/Device/HID.c **** 			if (USB_ControlRequest.bmRequestType == (REQDIR_HOSTTODEVICE | REQTYPE_CLASS | REQREC_INTERFACE)
  73:LUFA-100807/LUFA/Drivers/USB/Class/Device/HID.c **** 			{
  74:LUFA-100807/LUFA/Drivers/USB/Class/Device/HID.c **** 				Endpoint_ClearSETUP();
  75:LUFA-100807/LUFA/Drivers/USB/Class/Device/HID.c **** 				
  76:LUFA-100807/LUFA/Drivers/USB/Class/Device/HID.c **** 				uint16_t ReportSize = USB_ControlRequest.wLength;
  77:LUFA-100807/LUFA/Drivers/USB/Class/Device/HID.c **** 				uint8_t  ReportID   = (USB_ControlRequest.wValue & 0xFF);
  78:LUFA-100807/LUFA/Drivers/USB/Class/Device/HID.c **** 				uint8_t  ReportType = (USB_ControlRequest.wValue >> 8) - 1;
  79:LUFA-100807/LUFA/Drivers/USB/Class/Device/HID.c **** 				uint8_t  ReportData[ReportSize];
  80:LUFA-100807/LUFA/Drivers/USB/Class/Device/HID.c **** 
  81:LUFA-100807/LUFA/Drivers/USB/Class/Device/HID.c **** 				Endpoint_Read_Control_Stream_LE(ReportData, ReportSize);
  82:LUFA-100807/LUFA/Drivers/USB/Class/Device/HID.c **** 				CALLBACK_HID_Device_ProcessHIDReport(HIDInterfaceInfo, ReportID, ReportType, ReportData, Report
  83:LUFA-100807/LUFA/Drivers/USB/Class/Device/HID.c **** 				Endpoint_ClearIN();				
  84:LUFA-100807/LUFA/Drivers/USB/Class/Device/HID.c **** 			}
  85:LUFA-100807/LUFA/Drivers/USB/Class/Device/HID.c **** 			
  86:LUFA-100807/LUFA/Drivers/USB/Class/Device/HID.c **** 			break;
  87:LUFA-100807/LUFA/Drivers/USB/Class/Device/HID.c **** 		case REQ_GetProtocol:
  88:LUFA-100807/LUFA/Drivers/USB/Class/Device/HID.c **** 			if (USB_ControlRequest.bmRequestType == (REQDIR_DEVICETOHOST | REQTYPE_CLASS | REQREC_INTERFACE)
  89:LUFA-100807/LUFA/Drivers/USB/Class/Device/HID.c **** 			{
  90:LUFA-100807/LUFA/Drivers/USB/Class/Device/HID.c **** 				Endpoint_ClearSETUP();
  91:LUFA-100807/LUFA/Drivers/USB/Class/Device/HID.c **** 
  92:LUFA-100807/LUFA/Drivers/USB/Class/Device/HID.c **** 				Endpoint_Write_Byte(HIDInterfaceInfo->State.UsingReportProtocol);
  93:LUFA-100807/LUFA/Drivers/USB/Class/Device/HID.c **** 				Endpoint_ClearIN();
  94:LUFA-100807/LUFA/Drivers/USB/Class/Device/HID.c **** 
  95:LUFA-100807/LUFA/Drivers/USB/Class/Device/HID.c **** 				Endpoint_ClearStatusStage();
  96:LUFA-100807/LUFA/Drivers/USB/Class/Device/HID.c **** 			}
  97:LUFA-100807/LUFA/Drivers/USB/Class/Device/HID.c **** 			
  98:LUFA-100807/LUFA/Drivers/USB/Class/Device/HID.c **** 			break;
  99:LUFA-100807/LUFA/Drivers/USB/Class/Device/HID.c **** 		case REQ_SetProtocol:
 100:LUFA-100807/LUFA/Drivers/USB/Class/Device/HID.c **** 			if (USB_ControlRequest.bmRequestType == (REQDIR_HOSTTODEVICE | REQTYPE_CLASS | REQREC_INTERFACE)
 101:LUFA-100807/LUFA/Drivers/USB/Class/Device/HID.c **** 			{
 102:LUFA-100807/LUFA/Drivers/USB/Class/Device/HID.c **** 				Endpoint_ClearSETUP();
 103:LUFA-100807/LUFA/Drivers/USB/Class/Device/HID.c **** 
 104:LUFA-100807/LUFA/Drivers/USB/Class/Device/HID.c **** 				HIDInterfaceInfo->State.UsingReportProtocol = ((USB_ControlRequest.wValue & 0xFF) != 0x00);
 105:LUFA-100807/LUFA/Drivers/USB/Class/Device/HID.c **** 				
 106:LUFA-100807/LUFA/Drivers/USB/Class/Device/HID.c **** 				Endpoint_ClearStatusStage();
 107:LUFA-100807/LUFA/Drivers/USB/Class/Device/HID.c **** 			}
 108:LUFA-100807/LUFA/Drivers/USB/Class/Device/HID.c **** 			
 109:LUFA-100807/LUFA/Drivers/USB/Class/Device/HID.c **** 			break;
 110:LUFA-100807/LUFA/Drivers/USB/Class/Device/HID.c **** 		case REQ_SetIdle:
 111:LUFA-100807/LUFA/Drivers/USB/Class/Device/HID.c **** 			if (USB_ControlRequest.bmRequestType == (REQDIR_HOSTTODEVICE | REQTYPE_CLASS | REQREC_INTERFACE)
 112:LUFA-100807/LUFA/Drivers/USB/Class/Device/HID.c **** 			{
 113:LUFA-100807/LUFA/Drivers/USB/Class/Device/HID.c **** 				Endpoint_ClearSETUP();
 114:LUFA-100807/LUFA/Drivers/USB/Class/Device/HID.c **** 					
 115:LUFA-100807/LUFA/Drivers/USB/Class/Device/HID.c **** 				HIDInterfaceInfo->State.IdleCount = ((USB_ControlRequest.wValue & 0xFF00) >> 6);
 116:LUFA-100807/LUFA/Drivers/USB/Class/Device/HID.c **** 					
 117:LUFA-100807/LUFA/Drivers/USB/Class/Device/HID.c **** 				Endpoint_ClearStatusStage();
 118:LUFA-100807/LUFA/Drivers/USB/Class/Device/HID.c **** 			}
 119:LUFA-100807/LUFA/Drivers/USB/Class/Device/HID.c **** 			
 120:LUFA-100807/LUFA/Drivers/USB/Class/Device/HID.c **** 			break;
 121:LUFA-100807/LUFA/Drivers/USB/Class/Device/HID.c **** 		case REQ_GetIdle:
 122:LUFA-100807/LUFA/Drivers/USB/Class/Device/HID.c **** 			if (USB_ControlRequest.bmRequestType == (REQDIR_DEVICETOHOST | REQTYPE_CLASS | REQREC_INTERFACE)
 123:LUFA-100807/LUFA/Drivers/USB/Class/Device/HID.c **** 			{		
 124:LUFA-100807/LUFA/Drivers/USB/Class/Device/HID.c **** 				Endpoint_ClearSETUP();
 125:LUFA-100807/LUFA/Drivers/USB/Class/Device/HID.c **** 				
 126:LUFA-100807/LUFA/Drivers/USB/Class/Device/HID.c **** 				Endpoint_Write_Byte(HIDInterfaceInfo->State.IdleCount >> 2);
 127:LUFA-100807/LUFA/Drivers/USB/Class/Device/HID.c **** 				Endpoint_ClearIN();
 128:LUFA-100807/LUFA/Drivers/USB/Class/Device/HID.c **** 
 129:LUFA-100807/LUFA/Drivers/USB/Class/Device/HID.c **** 				Endpoint_ClearStatusStage();
 130:LUFA-100807/LUFA/Drivers/USB/Class/Device/HID.c **** 			}
 131:LUFA-100807/LUFA/Drivers/USB/Class/Device/HID.c **** 
 132:LUFA-100807/LUFA/Drivers/USB/Class/Device/HID.c **** 			break;
 133:LUFA-100807/LUFA/Drivers/USB/Class/Device/HID.c **** 	}
 134:LUFA-100807/LUFA/Drivers/USB/Class/Device/HID.c **** }
  75               		.loc 1 134 1 view .LVU2
  76 0022 8DB7      		in r24,__SP_L__
  77 0024 9EB7      		in r25,__SP_H__
  78               	.LVL1:
  79               		.loc 1 134 1 view .LVU3
  80 0026 9D83      		std Y+5,r25
  81 0028 8C83      		std Y+4,r24
  40:LUFA-100807/LUFA/Drivers/USB/Class/Device/HID.c **** 	if (!(Endpoint_IsSETUPReceived()))
  82               		.loc 1 40 2 is_stmt 1 view .LVU4
  83               	.LBB47:
  84               	.LBI47:
  85               		.file 2 "LUFA-100807/LUFA/Drivers/USB/Class/Device/../../HighLevel/../LowLevel/Endpoint.h"
   1:LUFA-100807/LUFA/Drivers/USB/Class/Device/../../HighLevel/../LowLevel/Endpoint.h **** /*
   2:LUFA-100807/LUFA/Drivers/USB/Class/Device/../../HighLevel/../LowLevel/Endpoint.h ****              LUFA Library
   3:LUFA-100807/LUFA/Drivers/USB/Class/Device/../../HighLevel/../LowLevel/Endpoint.h ****      Copyright (C) Dean Camera, 2010.
   4:LUFA-100807/LUFA/Drivers/USB/Class/Device/../../HighLevel/../LowLevel/Endpoint.h ****               
   5:LUFA-100807/LUFA/Drivers/USB/Class/Device/../../HighLevel/../LowLevel/Endpoint.h ****   dean [at] fourwalledcubicle [dot] com
   6:LUFA-100807/LUFA/Drivers/USB/Class/Device/../../HighLevel/../LowLevel/Endpoint.h ****       www.fourwalledcubicle.com
   7:LUFA-100807/LUFA/Drivers/USB/Class/Device/../../HighLevel/../LowLevel/Endpoint.h **** */
   8:LUFA-100807/LUFA/Drivers/USB/Class/Device/../../HighLevel/../LowLevel/Endpoint.h **** 
   9:LUFA-100807/LUFA/Drivers/USB/Class/Device/../../HighLevel/../LowLevel/Endpoint.h **** /*
  10:LUFA-100807/LUFA/Drivers/USB/Class/Device/../../HighLevel/../LowLevel/Endpoint.h ****   Copyright 2010  Dean Camera (dean [at] fourwalledcubicle [dot] com)
  11:LUFA-100807/LUFA/Drivers/USB/Class/Device/../../HighLevel/../LowLevel/Endpoint.h **** 
  12:LUFA-100807/LUFA/Drivers/USB/Class/Device/../../HighLevel/../LowLevel/Endpoint.h ****   Permission to use, copy, modify, distribute, and sell this 
  13:LUFA-100807/LUFA/Drivers/USB/Class/Device/../../HighLevel/../LowLevel/Endpoint.h ****   software and its documentation for any purpose is hereby granted
  14:LUFA-100807/LUFA/Drivers/USB/Class/Device/../../HighLevel/../LowLevel/Endpoint.h ****   without fee, provided that the above copyright notice appear in 
  15:LUFA-100807/LUFA/Drivers/USB/Class/Device/../../HighLevel/../LowLevel/Endpoint.h ****   all copies and that both that the copyright notice and this
  16:LUFA-100807/LUFA/Drivers/USB/Class/Device/../../HighLevel/../LowLevel/Endpoint.h ****   permission notice and warranty disclaimer appear in supporting 
  17:LUFA-100807/LUFA/Drivers/USB/Class/Device/../../HighLevel/../LowLevel/Endpoint.h ****   documentation, and that the name of the author not be used in 
  18:LUFA-100807/LUFA/Drivers/USB/Class/Device/../../HighLevel/../LowLevel/Endpoint.h ****   advertising or publicity pertaining to distribution of the 
  19:LUFA-100807/LUFA/Drivers/USB/Class/Device/../../HighLevel/../LowLevel/Endpoint.h ****   software without specific, written prior permission.
  20:LUFA-100807/LUFA/Drivers/USB/Class/Device/../../HighLevel/../LowLevel/Endpoint.h **** 
  21:LUFA-100807/LUFA/Drivers/USB/Class/Device/../../HighLevel/../LowLevel/Endpoint.h ****   The author disclaim all warranties with regard to this
  22:LUFA-100807/LUFA/Drivers/USB/Class/Device/../../HighLevel/../LowLevel/Endpoint.h ****   software, including all implied warranties of merchantability
  23:LUFA-100807/LUFA/Drivers/USB/Class/Device/../../HighLevel/../LowLevel/Endpoint.h ****   and fitness.  In no event shall the author be liable for any
  24:LUFA-100807/LUFA/Drivers/USB/Class/Device/../../HighLevel/../LowLevel/Endpoint.h ****   special, indirect or consequential damages or any damages
  25:LUFA-100807/LUFA/Drivers/USB/Class/Device/../../HighLevel/../LowLevel/Endpoint.h ****   whatsoever resulting from loss of use, data or profits, whether
  26:LUFA-100807/LUFA/Drivers/USB/Class/Device/../../HighLevel/../LowLevel/Endpoint.h ****   in an action of contract, negligence or other tortious action,
  27:LUFA-100807/LUFA/Drivers/USB/Class/Device/../../HighLevel/../LowLevel/Endpoint.h ****   arising out of or in connection with the use or performance of
  28:LUFA-100807/LUFA/Drivers/USB/Class/Device/../../HighLevel/../LowLevel/Endpoint.h ****   this software.
  29:LUFA-100807/LUFA/Drivers/USB/Class/Device/../../HighLevel/../LowLevel/Endpoint.h **** */
  30:LUFA-100807/LUFA/Drivers/USB/Class/Device/../../HighLevel/../LowLevel/Endpoint.h **** 
  31:LUFA-100807/LUFA/Drivers/USB/Class/Device/../../HighLevel/../LowLevel/Endpoint.h **** /** \file
  32:LUFA-100807/LUFA/Drivers/USB/Class/Device/../../HighLevel/../LowLevel/Endpoint.h ****  *  \brief USB device endpoint management definitions.
  33:LUFA-100807/LUFA/Drivers/USB/Class/Device/../../HighLevel/../LowLevel/Endpoint.h ****  *
  34:LUFA-100807/LUFA/Drivers/USB/Class/Device/../../HighLevel/../LowLevel/Endpoint.h ****  *  This file contains structures, function prototypes and macros related to the management of the 
  35:LUFA-100807/LUFA/Drivers/USB/Class/Device/../../HighLevel/../LowLevel/Endpoint.h ****  *  data endpoints when the library is initialized in USB device mode.
  36:LUFA-100807/LUFA/Drivers/USB/Class/Device/../../HighLevel/../LowLevel/Endpoint.h ****  *
  37:LUFA-100807/LUFA/Drivers/USB/Class/Device/../../HighLevel/../LowLevel/Endpoint.h ****  *  \note This file should not be included directly. It is automatically included as needed by the 
  38:LUFA-100807/LUFA/Drivers/USB/Class/Device/../../HighLevel/../LowLevel/Endpoint.h ****  *        dispatch header located in LUFA/Drivers/USB/USB.h.
  39:LUFA-100807/LUFA/Drivers/USB/Class/Device/../../HighLevel/../LowLevel/Endpoint.h ****  */
  40:LUFA-100807/LUFA/Drivers/USB/Class/Device/../../HighLevel/../LowLevel/Endpoint.h **** 
  41:LUFA-100807/LUFA/Drivers/USB/Class/Device/../../HighLevel/../LowLevel/Endpoint.h **** /** \ingroup Group_USB
  42:LUFA-100807/LUFA/Drivers/USB/Class/Device/../../HighLevel/../LowLevel/Endpoint.h ****  *  @defgroup Group_EndpointManagement Endpoint Management
  43:LUFA-100807/LUFA/Drivers/USB/Class/Device/../../HighLevel/../LowLevel/Endpoint.h ****  *
  44:LUFA-100807/LUFA/Drivers/USB/Class/Device/../../HighLevel/../LowLevel/Endpoint.h ****  *  Functions, macros and enums related to endpoint management when in USB Device mode. This
  45:LUFA-100807/LUFA/Drivers/USB/Class/Device/../../HighLevel/../LowLevel/Endpoint.h ****  *  module contains the endpoint management macros, as well as endpoint interrupt and data
  46:LUFA-100807/LUFA/Drivers/USB/Class/Device/../../HighLevel/../LowLevel/Endpoint.h ****  *  send/receive functions for various data types.
  47:LUFA-100807/LUFA/Drivers/USB/Class/Device/../../HighLevel/../LowLevel/Endpoint.h ****  *
  48:LUFA-100807/LUFA/Drivers/USB/Class/Device/../../HighLevel/../LowLevel/Endpoint.h ****  *  @{
  49:LUFA-100807/LUFA/Drivers/USB/Class/Device/../../HighLevel/../LowLevel/Endpoint.h ****  */
  50:LUFA-100807/LUFA/Drivers/USB/Class/Device/../../HighLevel/../LowLevel/Endpoint.h **** 
  51:LUFA-100807/LUFA/Drivers/USB/Class/Device/../../HighLevel/../LowLevel/Endpoint.h **** /** @defgroup Group_EndpointRW Endpoint Data Reading and Writing
  52:LUFA-100807/LUFA/Drivers/USB/Class/Device/../../HighLevel/../LowLevel/Endpoint.h ****  *
  53:LUFA-100807/LUFA/Drivers/USB/Class/Device/../../HighLevel/../LowLevel/Endpoint.h ****  *  Functions, macros, variables, enums and types related to data reading and writing from and to e
  54:LUFA-100807/LUFA/Drivers/USB/Class/Device/../../HighLevel/../LowLevel/Endpoint.h ****  */
  55:LUFA-100807/LUFA/Drivers/USB/Class/Device/../../HighLevel/../LowLevel/Endpoint.h ****  
  56:LUFA-100807/LUFA/Drivers/USB/Class/Device/../../HighLevel/../LowLevel/Endpoint.h **** /** \ingroup Group_EndpointRW  
  57:LUFA-100807/LUFA/Drivers/USB/Class/Device/../../HighLevel/../LowLevel/Endpoint.h ****  *  @defgroup Group_EndpointPrimitiveRW Read/Write of Primitive Data Types
  58:LUFA-100807/LUFA/Drivers/USB/Class/Device/../../HighLevel/../LowLevel/Endpoint.h ****  *
  59:LUFA-100807/LUFA/Drivers/USB/Class/Device/../../HighLevel/../LowLevel/Endpoint.h ****  *  Functions, macros, variables, enums and types related to data reading and writing of primitive 
  60:LUFA-100807/LUFA/Drivers/USB/Class/Device/../../HighLevel/../LowLevel/Endpoint.h ****  *  from and to endpoints.
  61:LUFA-100807/LUFA/Drivers/USB/Class/Device/../../HighLevel/../LowLevel/Endpoint.h ****  */ 
  62:LUFA-100807/LUFA/Drivers/USB/Class/Device/../../HighLevel/../LowLevel/Endpoint.h **** 
  63:LUFA-100807/LUFA/Drivers/USB/Class/Device/../../HighLevel/../LowLevel/Endpoint.h **** /** \ingroup Group_EndpointRW  
  64:LUFA-100807/LUFA/Drivers/USB/Class/Device/../../HighLevel/../LowLevel/Endpoint.h ****  *  @defgroup Group_EndpointStreamRW Read/Write of Multi-Byte Streams
  65:LUFA-100807/LUFA/Drivers/USB/Class/Device/../../HighLevel/../LowLevel/Endpoint.h ****  *
  66:LUFA-100807/LUFA/Drivers/USB/Class/Device/../../HighLevel/../LowLevel/Endpoint.h ****  *  Functions, macros, variables, enums and types related to data reading and writing of data strea
  67:LUFA-100807/LUFA/Drivers/USB/Class/Device/../../HighLevel/../LowLevel/Endpoint.h ****  *  and to endpoints.
  68:LUFA-100807/LUFA/Drivers/USB/Class/Device/../../HighLevel/../LowLevel/Endpoint.h ****  */ 
  69:LUFA-100807/LUFA/Drivers/USB/Class/Device/../../HighLevel/../LowLevel/Endpoint.h **** 
  70:LUFA-100807/LUFA/Drivers/USB/Class/Device/../../HighLevel/../LowLevel/Endpoint.h **** /** @defgroup Group_EndpointPacketManagement Endpoint Packet Management
  71:LUFA-100807/LUFA/Drivers/USB/Class/Device/../../HighLevel/../LowLevel/Endpoint.h ****  *
  72:LUFA-100807/LUFA/Drivers/USB/Class/Device/../../HighLevel/../LowLevel/Endpoint.h ****  *  Functions, macros, variables, enums and types related to packet management of endpoints.
  73:LUFA-100807/LUFA/Drivers/USB/Class/Device/../../HighLevel/../LowLevel/Endpoint.h ****  */
  74:LUFA-100807/LUFA/Drivers/USB/Class/Device/../../HighLevel/../LowLevel/Endpoint.h **** 
  75:LUFA-100807/LUFA/Drivers/USB/Class/Device/../../HighLevel/../LowLevel/Endpoint.h **** #ifndef __ENDPOINT_H__
  76:LUFA-100807/LUFA/Drivers/USB/Class/Device/../../HighLevel/../LowLevel/Endpoint.h **** #define __ENDPOINT_H__
  77:LUFA-100807/LUFA/Drivers/USB/Class/Device/../../HighLevel/../LowLevel/Endpoint.h **** 
  78:LUFA-100807/LUFA/Drivers/USB/Class/Device/../../HighLevel/../LowLevel/Endpoint.h **** 	/* Includes: */
  79:LUFA-100807/LUFA/Drivers/USB/Class/Device/../../HighLevel/../LowLevel/Endpoint.h **** 		#include <avr/io.h>
  80:LUFA-100807/LUFA/Drivers/USB/Class/Device/../../HighLevel/../LowLevel/Endpoint.h **** 		#include <avr/pgmspace.h>
  81:LUFA-100807/LUFA/Drivers/USB/Class/Device/../../HighLevel/../LowLevel/Endpoint.h **** 		#include <avr/eeprom.h>
  82:LUFA-100807/LUFA/Drivers/USB/Class/Device/../../HighLevel/../LowLevel/Endpoint.h **** 		#include <stdbool.h>
  83:LUFA-100807/LUFA/Drivers/USB/Class/Device/../../HighLevel/../LowLevel/Endpoint.h **** 
  84:LUFA-100807/LUFA/Drivers/USB/Class/Device/../../HighLevel/../LowLevel/Endpoint.h **** 		#include "../../../Common/Common.h"
  85:LUFA-100807/LUFA/Drivers/USB/Class/Device/../../HighLevel/../LowLevel/Endpoint.h **** 		#include "../HighLevel/USBTask.h"
  86:LUFA-100807/LUFA/Drivers/USB/Class/Device/../../HighLevel/../LowLevel/Endpoint.h **** 		#include "USBInterrupt.h"
  87:LUFA-100807/LUFA/Drivers/USB/Class/Device/../../HighLevel/../LowLevel/Endpoint.h **** 
  88:LUFA-100807/LUFA/Drivers/USB/Class/Device/../../HighLevel/../LowLevel/Endpoint.h **** 		#if !defined(NO_STREAM_CALLBACKS) || defined(__DOXYGEN__)
  89:LUFA-100807/LUFA/Drivers/USB/Class/Device/../../HighLevel/../LowLevel/Endpoint.h **** 			#include "../HighLevel/StreamCallbacks.h"
  90:LUFA-100807/LUFA/Drivers/USB/Class/Device/../../HighLevel/../LowLevel/Endpoint.h **** 		#endif
  91:LUFA-100807/LUFA/Drivers/USB/Class/Device/../../HighLevel/../LowLevel/Endpoint.h **** 		
  92:LUFA-100807/LUFA/Drivers/USB/Class/Device/../../HighLevel/../LowLevel/Endpoint.h **** 	/* Enable C linkage for C++ Compilers: */
  93:LUFA-100807/LUFA/Drivers/USB/Class/Device/../../HighLevel/../LowLevel/Endpoint.h **** 		#if defined(__cplusplus)
  94:LUFA-100807/LUFA/Drivers/USB/Class/Device/../../HighLevel/../LowLevel/Endpoint.h **** 			extern "C" {
  95:LUFA-100807/LUFA/Drivers/USB/Class/Device/../../HighLevel/../LowLevel/Endpoint.h **** 		#endif
  96:LUFA-100807/LUFA/Drivers/USB/Class/Device/../../HighLevel/../LowLevel/Endpoint.h **** 
  97:LUFA-100807/LUFA/Drivers/USB/Class/Device/../../HighLevel/../LowLevel/Endpoint.h **** 	/* Preprocessor Checks: */
  98:LUFA-100807/LUFA/Drivers/USB/Class/Device/../../HighLevel/../LowLevel/Endpoint.h **** 		#if !defined(__INCLUDE_FROM_USB_DRIVER)
  99:LUFA-100807/LUFA/Drivers/USB/Class/Device/../../HighLevel/../LowLevel/Endpoint.h **** 			#error Do not include this file directly. Include LUFA/Drivers/USB/USB.h instead.
 100:LUFA-100807/LUFA/Drivers/USB/Class/Device/../../HighLevel/../LowLevel/Endpoint.h **** 		#endif
 101:LUFA-100807/LUFA/Drivers/USB/Class/Device/../../HighLevel/../LowLevel/Endpoint.h **** 		
 102:LUFA-100807/LUFA/Drivers/USB/Class/Device/../../HighLevel/../LowLevel/Endpoint.h **** 	/* Public Interface - May be used in end-application: */
 103:LUFA-100807/LUFA/Drivers/USB/Class/Device/../../HighLevel/../LowLevel/Endpoint.h **** 		/* Macros: */
 104:LUFA-100807/LUFA/Drivers/USB/Class/Device/../../HighLevel/../LowLevel/Endpoint.h **** 			/** Endpoint data direction mask for \ref Endpoint_ConfigureEndpoint(). This indicates that the 
 105:LUFA-100807/LUFA/Drivers/USB/Class/Device/../../HighLevel/../LowLevel/Endpoint.h **** 			 *  should be initialized in the OUT direction - i.e. data flows from host to device.
 106:LUFA-100807/LUFA/Drivers/USB/Class/Device/../../HighLevel/../LowLevel/Endpoint.h **** 			 */
 107:LUFA-100807/LUFA/Drivers/USB/Class/Device/../../HighLevel/../LowLevel/Endpoint.h **** 			#define ENDPOINT_DIR_OUT                      (0 << EPDIR)
 108:LUFA-100807/LUFA/Drivers/USB/Class/Device/../../HighLevel/../LowLevel/Endpoint.h **** 
 109:LUFA-100807/LUFA/Drivers/USB/Class/Device/../../HighLevel/../LowLevel/Endpoint.h **** 			/** Endpoint data direction mask for \ref Endpoint_ConfigureEndpoint(). This indicates that the 
 110:LUFA-100807/LUFA/Drivers/USB/Class/Device/../../HighLevel/../LowLevel/Endpoint.h **** 			 *  should be initialized in the IN direction - i.e. data flows from device to host.
 111:LUFA-100807/LUFA/Drivers/USB/Class/Device/../../HighLevel/../LowLevel/Endpoint.h **** 			 */
 112:LUFA-100807/LUFA/Drivers/USB/Class/Device/../../HighLevel/../LowLevel/Endpoint.h **** 			#define ENDPOINT_DIR_IN                       (1 << EPDIR)
 113:LUFA-100807/LUFA/Drivers/USB/Class/Device/../../HighLevel/../LowLevel/Endpoint.h **** 
 114:LUFA-100807/LUFA/Drivers/USB/Class/Device/../../HighLevel/../LowLevel/Endpoint.h **** 			/** Mask for the bank mode selection for the \ref Endpoint_ConfigureEndpoint() macro. This indic
 115:LUFA-100807/LUFA/Drivers/USB/Class/Device/../../HighLevel/../LowLevel/Endpoint.h **** 			 *  that the endpoint should have one single bank, which requires less USB FIFO memory but resul
 116:LUFA-100807/LUFA/Drivers/USB/Class/Device/../../HighLevel/../LowLevel/Endpoint.h **** 			 *  in slower transfers as only one USB device (the AVR or the host) can access the endpoint's
 117:LUFA-100807/LUFA/Drivers/USB/Class/Device/../../HighLevel/../LowLevel/Endpoint.h **** 			 *  bank at the one time.
 118:LUFA-100807/LUFA/Drivers/USB/Class/Device/../../HighLevel/../LowLevel/Endpoint.h **** 			 */
 119:LUFA-100807/LUFA/Drivers/USB/Class/Device/../../HighLevel/../LowLevel/Endpoint.h **** 			#define ENDPOINT_BANK_SINGLE                  (0 << EPBK0)
 120:LUFA-100807/LUFA/Drivers/USB/Class/Device/../../HighLevel/../LowLevel/Endpoint.h **** 
 121:LUFA-100807/LUFA/Drivers/USB/Class/Device/../../HighLevel/../LowLevel/Endpoint.h **** 			/** Mask for the bank mode selection for the \ref Endpoint_ConfigureEndpoint() macro. This indic
 122:LUFA-100807/LUFA/Drivers/USB/Class/Device/../../HighLevel/../LowLevel/Endpoint.h **** 			 *  that the endpoint should have two banks, which requires more USB FIFO memory but results
 123:LUFA-100807/LUFA/Drivers/USB/Class/Device/../../HighLevel/../LowLevel/Endpoint.h **** 			 *  in faster transfers as one USB device (the AVR or the host) can access one bank while the ot
 124:LUFA-100807/LUFA/Drivers/USB/Class/Device/../../HighLevel/../LowLevel/Endpoint.h **** 			 *  accesses the second bank.
 125:LUFA-100807/LUFA/Drivers/USB/Class/Device/../../HighLevel/../LowLevel/Endpoint.h **** 			 */
 126:LUFA-100807/LUFA/Drivers/USB/Class/Device/../../HighLevel/../LowLevel/Endpoint.h **** 			#define ENDPOINT_BANK_DOUBLE                  (1 << EPBK0)
 127:LUFA-100807/LUFA/Drivers/USB/Class/Device/../../HighLevel/../LowLevel/Endpoint.h **** 			
 128:LUFA-100807/LUFA/Drivers/USB/Class/Device/../../HighLevel/../LowLevel/Endpoint.h **** 			/** Endpoint address for the default control endpoint, which always resides in address 0. This i
 129:LUFA-100807/LUFA/Drivers/USB/Class/Device/../../HighLevel/../LowLevel/Endpoint.h **** 			 *  defined for convenience to give more readable code when used with the endpoint macros.
 130:LUFA-100807/LUFA/Drivers/USB/Class/Device/../../HighLevel/../LowLevel/Endpoint.h **** 			 */
 131:LUFA-100807/LUFA/Drivers/USB/Class/Device/../../HighLevel/../LowLevel/Endpoint.h **** 			#define ENDPOINT_CONTROLEP                    0
 132:LUFA-100807/LUFA/Drivers/USB/Class/Device/../../HighLevel/../LowLevel/Endpoint.h **** 
 133:LUFA-100807/LUFA/Drivers/USB/Class/Device/../../HighLevel/../LowLevel/Endpoint.h **** 			#if (!defined(FIXED_CONTROL_ENDPOINT_SIZE) || defined(__DOXYGEN__))
 134:LUFA-100807/LUFA/Drivers/USB/Class/Device/../../HighLevel/../LowLevel/Endpoint.h **** 				/** Default size of the default control endpoint's bank, until altered by the control endpoint 
 135:LUFA-100807/LUFA/Drivers/USB/Class/Device/../../HighLevel/../LowLevel/Endpoint.h **** 				 *  value in the device descriptor. Not available if the FIXED_CONTROL_ENDPOINT_SIZE token is d
 136:LUFA-100807/LUFA/Drivers/USB/Class/Device/../../HighLevel/../LowLevel/Endpoint.h **** 				 */
 137:LUFA-100807/LUFA/Drivers/USB/Class/Device/../../HighLevel/../LowLevel/Endpoint.h **** 				#define ENDPOINT_CONTROLEP_DEFAULT_SIZE   8
 138:LUFA-100807/LUFA/Drivers/USB/Class/Device/../../HighLevel/../LowLevel/Endpoint.h **** 			#endif
 139:LUFA-100807/LUFA/Drivers/USB/Class/Device/../../HighLevel/../LowLevel/Endpoint.h **** 			
 140:LUFA-100807/LUFA/Drivers/USB/Class/Device/../../HighLevel/../LowLevel/Endpoint.h **** 			/** Endpoint number mask, for masking against endpoint addresses to retrieve the endpoint's
 141:LUFA-100807/LUFA/Drivers/USB/Class/Device/../../HighLevel/../LowLevel/Endpoint.h **** 			 *  numerical address in the device.
 142:LUFA-100807/LUFA/Drivers/USB/Class/Device/../../HighLevel/../LowLevel/Endpoint.h **** 			 */
 143:LUFA-100807/LUFA/Drivers/USB/Class/Device/../../HighLevel/../LowLevel/Endpoint.h **** 			#define ENDPOINT_EPNUM_MASK                   0x07
 144:LUFA-100807/LUFA/Drivers/USB/Class/Device/../../HighLevel/../LowLevel/Endpoint.h **** 
 145:LUFA-100807/LUFA/Drivers/USB/Class/Device/../../HighLevel/../LowLevel/Endpoint.h **** 			/** Endpoint direction mask, for masking against endpoint addresses to retrieve the endpoint's
 146:LUFA-100807/LUFA/Drivers/USB/Class/Device/../../HighLevel/../LowLevel/Endpoint.h **** 			 *  direction for comparing with the ENDPOINT_DESCRIPTOR_DIR_* masks.
 147:LUFA-100807/LUFA/Drivers/USB/Class/Device/../../HighLevel/../LowLevel/Endpoint.h **** 			 */
 148:LUFA-100807/LUFA/Drivers/USB/Class/Device/../../HighLevel/../LowLevel/Endpoint.h **** 			#define ENDPOINT_EPDIR_MASK                   0x80
 149:LUFA-100807/LUFA/Drivers/USB/Class/Device/../../HighLevel/../LowLevel/Endpoint.h **** 
 150:LUFA-100807/LUFA/Drivers/USB/Class/Device/../../HighLevel/../LowLevel/Endpoint.h **** 			/** Endpoint bank size mask, for masking against endpoint addresses to retrieve the endpoint's
 151:LUFA-100807/LUFA/Drivers/USB/Class/Device/../../HighLevel/../LowLevel/Endpoint.h **** 			 *  bank size in the device.
 152:LUFA-100807/LUFA/Drivers/USB/Class/Device/../../HighLevel/../LowLevel/Endpoint.h **** 			 */
 153:LUFA-100807/LUFA/Drivers/USB/Class/Device/../../HighLevel/../LowLevel/Endpoint.h **** 			#define ENDPOINT_EPSIZE_MASK                  0x7F
 154:LUFA-100807/LUFA/Drivers/USB/Class/Device/../../HighLevel/../LowLevel/Endpoint.h **** 			
 155:LUFA-100807/LUFA/Drivers/USB/Class/Device/../../HighLevel/../LowLevel/Endpoint.h **** 			/** Maximum size in bytes of a given endpoint.
 156:LUFA-100807/LUFA/Drivers/USB/Class/Device/../../HighLevel/../LowLevel/Endpoint.h **** 			 *
 157:LUFA-100807/LUFA/Drivers/USB/Class/Device/../../HighLevel/../LowLevel/Endpoint.h **** 			 *  \param[in] n  Endpoint number, a value between 0 and (ENDPOINT_TOTAL_ENDPOINTS - 1)
 158:LUFA-100807/LUFA/Drivers/USB/Class/Device/../../HighLevel/../LowLevel/Endpoint.h **** 			 */				
 159:LUFA-100807/LUFA/Drivers/USB/Class/Device/../../HighLevel/../LowLevel/Endpoint.h **** 			#define ENDPOINT_MAX_SIZE(n)                  _ENDPOINT_GET_MAXSIZE(n)
 160:LUFA-100807/LUFA/Drivers/USB/Class/Device/../../HighLevel/../LowLevel/Endpoint.h **** 
 161:LUFA-100807/LUFA/Drivers/USB/Class/Device/../../HighLevel/../LowLevel/Endpoint.h **** 			/** Indicates if the given endpoint supports double banking.
 162:LUFA-100807/LUFA/Drivers/USB/Class/Device/../../HighLevel/../LowLevel/Endpoint.h **** 			 *
 163:LUFA-100807/LUFA/Drivers/USB/Class/Device/../../HighLevel/../LowLevel/Endpoint.h **** 			 *  \param[in] n  Endpoint number, a value between 0 and (ENDPOINT_TOTAL_ENDPOINTS - 1)
 164:LUFA-100807/LUFA/Drivers/USB/Class/Device/../../HighLevel/../LowLevel/Endpoint.h **** 			 */				
 165:LUFA-100807/LUFA/Drivers/USB/Class/Device/../../HighLevel/../LowLevel/Endpoint.h **** 			#define ENDPOINT_DOUBLEBANK_SUPPORTED(n)      _ENDPOINT_GET_DOUBLEBANK(n)
 166:LUFA-100807/LUFA/Drivers/USB/Class/Device/../../HighLevel/../LowLevel/Endpoint.h **** 
 167:LUFA-100807/LUFA/Drivers/USB/Class/Device/../../HighLevel/../LowLevel/Endpoint.h **** 			#if !defined(CONTROL_ONLY_DEVICE)
 168:LUFA-100807/LUFA/Drivers/USB/Class/Device/../../HighLevel/../LowLevel/Endpoint.h **** 				#if defined(USB_SERIES_4_AVR) || defined(USB_SERIES_6_AVR) || defined(USB_SERIES_7_AVR) || defi
 169:LUFA-100807/LUFA/Drivers/USB/Class/Device/../../HighLevel/../LowLevel/Endpoint.h **** 					/** Total number of endpoints (including the default control endpoint at address 0) which may
 170:LUFA-100807/LUFA/Drivers/USB/Class/Device/../../HighLevel/../LowLevel/Endpoint.h **** 					 *  be used in the device. Different USB AVR models support different amounts of endpoints,
 171:LUFA-100807/LUFA/Drivers/USB/Class/Device/../../HighLevel/../LowLevel/Endpoint.h **** 					 *  this value reflects the maximum number of endpoints for the currently selected AVR model.
 172:LUFA-100807/LUFA/Drivers/USB/Class/Device/../../HighLevel/../LowLevel/Endpoint.h **** 					 */
 173:LUFA-100807/LUFA/Drivers/USB/Class/Device/../../HighLevel/../LowLevel/Endpoint.h **** 					#define ENDPOINT_TOTAL_ENDPOINTS      7
 174:LUFA-100807/LUFA/Drivers/USB/Class/Device/../../HighLevel/../LowLevel/Endpoint.h **** 				#else
 175:LUFA-100807/LUFA/Drivers/USB/Class/Device/../../HighLevel/../LowLevel/Endpoint.h **** 					#define ENDPOINT_TOTAL_ENDPOINTS      5
 176:LUFA-100807/LUFA/Drivers/USB/Class/Device/../../HighLevel/../LowLevel/Endpoint.h **** 				#endif
 177:LUFA-100807/LUFA/Drivers/USB/Class/Device/../../HighLevel/../LowLevel/Endpoint.h **** 			#else
 178:LUFA-100807/LUFA/Drivers/USB/Class/Device/../../HighLevel/../LowLevel/Endpoint.h **** 				#define ENDPOINT_TOTAL_ENDPOINTS          1
 179:LUFA-100807/LUFA/Drivers/USB/Class/Device/../../HighLevel/../LowLevel/Endpoint.h **** 			#endif
 180:LUFA-100807/LUFA/Drivers/USB/Class/Device/../../HighLevel/../LowLevel/Endpoint.h **** 
 181:LUFA-100807/LUFA/Drivers/USB/Class/Device/../../HighLevel/../LowLevel/Endpoint.h **** 		/* Enums: */
 182:LUFA-100807/LUFA/Drivers/USB/Class/Device/../../HighLevel/../LowLevel/Endpoint.h **** 			/** Enum for the possible error return codes of the \ref Endpoint_WaitUntilReady() function.
 183:LUFA-100807/LUFA/Drivers/USB/Class/Device/../../HighLevel/../LowLevel/Endpoint.h **** 			 *
 184:LUFA-100807/LUFA/Drivers/USB/Class/Device/../../HighLevel/../LowLevel/Endpoint.h **** 			 *  \ingroup Group_EndpointRW
 185:LUFA-100807/LUFA/Drivers/USB/Class/Device/../../HighLevel/../LowLevel/Endpoint.h **** 			 */
 186:LUFA-100807/LUFA/Drivers/USB/Class/Device/../../HighLevel/../LowLevel/Endpoint.h **** 			enum Endpoint_WaitUntilReady_ErrorCodes_t
 187:LUFA-100807/LUFA/Drivers/USB/Class/Device/../../HighLevel/../LowLevel/Endpoint.h **** 			{
 188:LUFA-100807/LUFA/Drivers/USB/Class/Device/../../HighLevel/../LowLevel/Endpoint.h **** 				ENDPOINT_READYWAIT_NoError                 = 0, /**< Endpoint is ready for next packet, no erro
 189:LUFA-100807/LUFA/Drivers/USB/Class/Device/../../HighLevel/../LowLevel/Endpoint.h **** 				ENDPOINT_READYWAIT_EndpointStalled         = 1, /**< The endpoint was stalled during the stream
 190:LUFA-100807/LUFA/Drivers/USB/Class/Device/../../HighLevel/../LowLevel/Endpoint.h **** 				                                                 *   transfer by the host or device.
 191:LUFA-100807/LUFA/Drivers/USB/Class/Device/../../HighLevel/../LowLevel/Endpoint.h **** 				                                                 */
 192:LUFA-100807/LUFA/Drivers/USB/Class/Device/../../HighLevel/../LowLevel/Endpoint.h **** 				ENDPOINT_READYWAIT_DeviceDisconnected      = 2,	/**< Device was disconnected from the host whil
 193:LUFA-100807/LUFA/Drivers/USB/Class/Device/../../HighLevel/../LowLevel/Endpoint.h **** 				                                                 *   waiting for the endpoint to become ready.
 194:LUFA-100807/LUFA/Drivers/USB/Class/Device/../../HighLevel/../LowLevel/Endpoint.h **** 				                                                 */
 195:LUFA-100807/LUFA/Drivers/USB/Class/Device/../../HighLevel/../LowLevel/Endpoint.h **** 				ENDPOINT_READYWAIT_BusSuspended            = 3, /**< The USB bus has been suspended by the host
 196:LUFA-100807/LUFA/Drivers/USB/Class/Device/../../HighLevel/../LowLevel/Endpoint.h **** 				                                                 *   no USB endpoint traffic can occur until th
 197:LUFA-100807/LUFA/Drivers/USB/Class/Device/../../HighLevel/../LowLevel/Endpoint.h **** 				                                                 *   has resumed.
 198:LUFA-100807/LUFA/Drivers/USB/Class/Device/../../HighLevel/../LowLevel/Endpoint.h **** 				                                                 */
 199:LUFA-100807/LUFA/Drivers/USB/Class/Device/../../HighLevel/../LowLevel/Endpoint.h **** 				ENDPOINT_READYWAIT_Timeout                 = 4, /**< The host failed to accept or send the next
 200:LUFA-100807/LUFA/Drivers/USB/Class/Device/../../HighLevel/../LowLevel/Endpoint.h **** 				                                                 *   within the software timeout period set by 
 201:LUFA-100807/LUFA/Drivers/USB/Class/Device/../../HighLevel/../LowLevel/Endpoint.h **** 				                                                 *   \ref USB_STREAM_TIMEOUT_MS macro.
 202:LUFA-100807/LUFA/Drivers/USB/Class/Device/../../HighLevel/../LowLevel/Endpoint.h **** 				                                                 */
 203:LUFA-100807/LUFA/Drivers/USB/Class/Device/../../HighLevel/../LowLevel/Endpoint.h **** 			};
 204:LUFA-100807/LUFA/Drivers/USB/Class/Device/../../HighLevel/../LowLevel/Endpoint.h **** 		
 205:LUFA-100807/LUFA/Drivers/USB/Class/Device/../../HighLevel/../LowLevel/Endpoint.h **** 			/** Enum for the possible error return codes of the Endpoint_*_Stream_* functions.
 206:LUFA-100807/LUFA/Drivers/USB/Class/Device/../../HighLevel/../LowLevel/Endpoint.h **** 			 *
 207:LUFA-100807/LUFA/Drivers/USB/Class/Device/../../HighLevel/../LowLevel/Endpoint.h **** 			 *  \ingroup Group_EndpointStreamRW
 208:LUFA-100807/LUFA/Drivers/USB/Class/Device/../../HighLevel/../LowLevel/Endpoint.h **** 			 */
 209:LUFA-100807/LUFA/Drivers/USB/Class/Device/../../HighLevel/../LowLevel/Endpoint.h **** 			enum Endpoint_Stream_RW_ErrorCodes_t
 210:LUFA-100807/LUFA/Drivers/USB/Class/Device/../../HighLevel/../LowLevel/Endpoint.h **** 			{
 211:LUFA-100807/LUFA/Drivers/USB/Class/Device/../../HighLevel/../LowLevel/Endpoint.h **** 				ENDPOINT_RWSTREAM_NoError            = 0, /**< Command completed successfully, no error. */
 212:LUFA-100807/LUFA/Drivers/USB/Class/Device/../../HighLevel/../LowLevel/Endpoint.h **** 				ENDPOINT_RWSTREAM_EndpointStalled    = 1, /**< The endpoint was stalled during the stream
 213:LUFA-100807/LUFA/Drivers/USB/Class/Device/../../HighLevel/../LowLevel/Endpoint.h **** 				                                           *   transfer by the host or device.
 214:LUFA-100807/LUFA/Drivers/USB/Class/Device/../../HighLevel/../LowLevel/Endpoint.h **** 				                                           */
 215:LUFA-100807/LUFA/Drivers/USB/Class/Device/../../HighLevel/../LowLevel/Endpoint.h **** 				ENDPOINT_RWSTREAM_DeviceDisconnected = 2, /**< Device was disconnected from the host during
 216:LUFA-100807/LUFA/Drivers/USB/Class/Device/../../HighLevel/../LowLevel/Endpoint.h **** 				                                           *   the transfer.
 217:LUFA-100807/LUFA/Drivers/USB/Class/Device/../../HighLevel/../LowLevel/Endpoint.h **** 				                                           */
 218:LUFA-100807/LUFA/Drivers/USB/Class/Device/../../HighLevel/../LowLevel/Endpoint.h **** 				ENDPOINT_RWSTREAM_BusSuspended       = 3, /**< The USB bus has been suspended by the host and
 219:LUFA-100807/LUFA/Drivers/USB/Class/Device/../../HighLevel/../LowLevel/Endpoint.h **** 				                                           *   no USB endpoint traffic can occur until the bus
 220:LUFA-100807/LUFA/Drivers/USB/Class/Device/../../HighLevel/../LowLevel/Endpoint.h **** 				                                           *   has resumed.
 221:LUFA-100807/LUFA/Drivers/USB/Class/Device/../../HighLevel/../LowLevel/Endpoint.h **** 				                                           */
 222:LUFA-100807/LUFA/Drivers/USB/Class/Device/../../HighLevel/../LowLevel/Endpoint.h **** 				ENDPOINT_RWSTREAM_Timeout            = 4, /**< The host failed to accept or send the next packe
 223:LUFA-100807/LUFA/Drivers/USB/Class/Device/../../HighLevel/../LowLevel/Endpoint.h **** 				                                           *   within the software timeout period set by the
 224:LUFA-100807/LUFA/Drivers/USB/Class/Device/../../HighLevel/../LowLevel/Endpoint.h **** 				                                           *   \ref USB_STREAM_TIMEOUT_MS macro.
 225:LUFA-100807/LUFA/Drivers/USB/Class/Device/../../HighLevel/../LowLevel/Endpoint.h **** 				                                           */
 226:LUFA-100807/LUFA/Drivers/USB/Class/Device/../../HighLevel/../LowLevel/Endpoint.h **** 				ENDPOINT_RWSTREAM_CallbackAborted    = 5, /**< Indicates that the stream's callback function
 227:LUFA-100807/LUFA/Drivers/USB/Class/Device/../../HighLevel/../LowLevel/Endpoint.h **** 			                                               *   aborted the transfer early.
 228:LUFA-100807/LUFA/Drivers/USB/Class/Device/../../HighLevel/../LowLevel/Endpoint.h **** 				                                           */
 229:LUFA-100807/LUFA/Drivers/USB/Class/Device/../../HighLevel/../LowLevel/Endpoint.h **** 			};
 230:LUFA-100807/LUFA/Drivers/USB/Class/Device/../../HighLevel/../LowLevel/Endpoint.h **** 			
 231:LUFA-100807/LUFA/Drivers/USB/Class/Device/../../HighLevel/../LowLevel/Endpoint.h **** 			/** Enum for the possible error return codes of the Endpoint_*_Control_Stream_* functions..
 232:LUFA-100807/LUFA/Drivers/USB/Class/Device/../../HighLevel/../LowLevel/Endpoint.h **** 			 *
 233:LUFA-100807/LUFA/Drivers/USB/Class/Device/../../HighLevel/../LowLevel/Endpoint.h **** 			 *  \ingroup Group_EndpointStreamRW
 234:LUFA-100807/LUFA/Drivers/USB/Class/Device/../../HighLevel/../LowLevel/Endpoint.h **** 			 */
 235:LUFA-100807/LUFA/Drivers/USB/Class/Device/../../HighLevel/../LowLevel/Endpoint.h **** 			enum Endpoint_ControlStream_RW_ErrorCodes_t
 236:LUFA-100807/LUFA/Drivers/USB/Class/Device/../../HighLevel/../LowLevel/Endpoint.h **** 			{
 237:LUFA-100807/LUFA/Drivers/USB/Class/Device/../../HighLevel/../LowLevel/Endpoint.h **** 				ENDPOINT_RWCSTREAM_NoError            = 0, /**< Command completed successfully, no error. */
 238:LUFA-100807/LUFA/Drivers/USB/Class/Device/../../HighLevel/../LowLevel/Endpoint.h **** 				ENDPOINT_RWCSTREAM_HostAborted        = 1, /**< The aborted the transfer prematurely. */
 239:LUFA-100807/LUFA/Drivers/USB/Class/Device/../../HighLevel/../LowLevel/Endpoint.h **** 				ENDPOINT_RWCSTREAM_DeviceDisconnected = 2, /**< Device was disconnected from the host during
 240:LUFA-100807/LUFA/Drivers/USB/Class/Device/../../HighLevel/../LowLevel/Endpoint.h **** 				                                            *   the transfer.
 241:LUFA-100807/LUFA/Drivers/USB/Class/Device/../../HighLevel/../LowLevel/Endpoint.h **** 				                                            */
 242:LUFA-100807/LUFA/Drivers/USB/Class/Device/../../HighLevel/../LowLevel/Endpoint.h **** 				ENDPOINT_RWCSTREAM_BusSuspended       = 3, /**< The USB bus has been suspended by the host and
 243:LUFA-100807/LUFA/Drivers/USB/Class/Device/../../HighLevel/../LowLevel/Endpoint.h **** 				                                            *   no USB endpoint traffic can occur until the bus
 244:LUFA-100807/LUFA/Drivers/USB/Class/Device/../../HighLevel/../LowLevel/Endpoint.h **** 				                                            *   has resumed.
 245:LUFA-100807/LUFA/Drivers/USB/Class/Device/../../HighLevel/../LowLevel/Endpoint.h **** 				                                            */
 246:LUFA-100807/LUFA/Drivers/USB/Class/Device/../../HighLevel/../LowLevel/Endpoint.h **** 			};
 247:LUFA-100807/LUFA/Drivers/USB/Class/Device/../../HighLevel/../LowLevel/Endpoint.h **** 
 248:LUFA-100807/LUFA/Drivers/USB/Class/Device/../../HighLevel/../LowLevel/Endpoint.h **** 		/* Inline Functions: */
 249:LUFA-100807/LUFA/Drivers/USB/Class/Device/../../HighLevel/../LowLevel/Endpoint.h **** 			/** Indicates the number of bytes currently stored in the current endpoint's selected bank.
 250:LUFA-100807/LUFA/Drivers/USB/Class/Device/../../HighLevel/../LowLevel/Endpoint.h **** 			 *
 251:LUFA-100807/LUFA/Drivers/USB/Class/Device/../../HighLevel/../LowLevel/Endpoint.h **** 			 *  \note The return width of this function may differ, depending on the maximum endpoint bank s
 252:LUFA-100807/LUFA/Drivers/USB/Class/Device/../../HighLevel/../LowLevel/Endpoint.h **** 			 *        of the selected AVR model.
 253:LUFA-100807/LUFA/Drivers/USB/Class/Device/../../HighLevel/../LowLevel/Endpoint.h **** 			 *
 254:LUFA-100807/LUFA/Drivers/USB/Class/Device/../../HighLevel/../LowLevel/Endpoint.h **** 			 *  \ingroup Group_EndpointRW
 255:LUFA-100807/LUFA/Drivers/USB/Class/Device/../../HighLevel/../LowLevel/Endpoint.h **** 			 *
 256:LUFA-100807/LUFA/Drivers/USB/Class/Device/../../HighLevel/../LowLevel/Endpoint.h **** 			 *  \return Total number of bytes in the currently selected Endpoint's FIFO buffer.
 257:LUFA-100807/LUFA/Drivers/USB/Class/Device/../../HighLevel/../LowLevel/Endpoint.h **** 			 */
 258:LUFA-100807/LUFA/Drivers/USB/Class/Device/../../HighLevel/../LowLevel/Endpoint.h **** 			static inline uint16_t Endpoint_BytesInEndpoint(void) ATTR_WARN_UNUSED_RESULT ATTR_ALWAYS_INLINE
 259:LUFA-100807/LUFA/Drivers/USB/Class/Device/../../HighLevel/../LowLevel/Endpoint.h **** 			static inline uint16_t Endpoint_BytesInEndpoint(void)
 260:LUFA-100807/LUFA/Drivers/USB/Class/Device/../../HighLevel/../LowLevel/Endpoint.h **** 			{
 261:LUFA-100807/LUFA/Drivers/USB/Class/Device/../../HighLevel/../LowLevel/Endpoint.h **** 				#if defined(USB_SERIES_6_AVR) || defined(USB_SERIES_7_AVR)
 262:LUFA-100807/LUFA/Drivers/USB/Class/Device/../../HighLevel/../LowLevel/Endpoint.h **** 					return UEBCX;
 263:LUFA-100807/LUFA/Drivers/USB/Class/Device/../../HighLevel/../LowLevel/Endpoint.h **** 				#elif defined(USB_SERIES_4_AVR)
 264:LUFA-100807/LUFA/Drivers/USB/Class/Device/../../HighLevel/../LowLevel/Endpoint.h **** 					return (((uint16_t)UEBCHX << 8) | UEBCLX);
 265:LUFA-100807/LUFA/Drivers/USB/Class/Device/../../HighLevel/../LowLevel/Endpoint.h **** 				#elif defined(USB_SERIES_2_AVR)
 266:LUFA-100807/LUFA/Drivers/USB/Class/Device/../../HighLevel/../LowLevel/Endpoint.h **** 					return UEBCLX;
 267:LUFA-100807/LUFA/Drivers/USB/Class/Device/../../HighLevel/../LowLevel/Endpoint.h **** 				#endif
 268:LUFA-100807/LUFA/Drivers/USB/Class/Device/../../HighLevel/../LowLevel/Endpoint.h **** 			}
 269:LUFA-100807/LUFA/Drivers/USB/Class/Device/../../HighLevel/../LowLevel/Endpoint.h **** 		
 270:LUFA-100807/LUFA/Drivers/USB/Class/Device/../../HighLevel/../LowLevel/Endpoint.h **** 			/** Get the endpoint address of the currently selected endpoint. This is typically used to save
 271:LUFA-100807/LUFA/Drivers/USB/Class/Device/../../HighLevel/../LowLevel/Endpoint.h **** 			 *  the currently selected endpoint number so that it can be restored after another endpoint has
 272:LUFA-100807/LUFA/Drivers/USB/Class/Device/../../HighLevel/../LowLevel/Endpoint.h **** 			 *  been manipulated.
 273:LUFA-100807/LUFA/Drivers/USB/Class/Device/../../HighLevel/../LowLevel/Endpoint.h **** 			 *
 274:LUFA-100807/LUFA/Drivers/USB/Class/Device/../../HighLevel/../LowLevel/Endpoint.h **** 			 *  \return Index of the currently selected endpoint.
 275:LUFA-100807/LUFA/Drivers/USB/Class/Device/../../HighLevel/../LowLevel/Endpoint.h **** 			 */
 276:LUFA-100807/LUFA/Drivers/USB/Class/Device/../../HighLevel/../LowLevel/Endpoint.h **** 			static inline uint8_t Endpoint_GetCurrentEndpoint(void) ATTR_WARN_UNUSED_RESULT ATTR_ALWAYS_INLI
 277:LUFA-100807/LUFA/Drivers/USB/Class/Device/../../HighLevel/../LowLevel/Endpoint.h **** 			static inline uint8_t Endpoint_GetCurrentEndpoint(void)
 278:LUFA-100807/LUFA/Drivers/USB/Class/Device/../../HighLevel/../LowLevel/Endpoint.h **** 			{
 279:LUFA-100807/LUFA/Drivers/USB/Class/Device/../../HighLevel/../LowLevel/Endpoint.h **** 				#if !defined(CONTROL_ONLY_DEVICE)
 280:LUFA-100807/LUFA/Drivers/USB/Class/Device/../../HighLevel/../LowLevel/Endpoint.h **** 					return (UENUM & ENDPOINT_EPNUM_MASK);
 281:LUFA-100807/LUFA/Drivers/USB/Class/Device/../../HighLevel/../LowLevel/Endpoint.h **** 				#else
 282:LUFA-100807/LUFA/Drivers/USB/Class/Device/../../HighLevel/../LowLevel/Endpoint.h **** 					return ENDPOINT_CONTROLEP;
 283:LUFA-100807/LUFA/Drivers/USB/Class/Device/../../HighLevel/../LowLevel/Endpoint.h **** 				#endif
 284:LUFA-100807/LUFA/Drivers/USB/Class/Device/../../HighLevel/../LowLevel/Endpoint.h **** 			}
 285:LUFA-100807/LUFA/Drivers/USB/Class/Device/../../HighLevel/../LowLevel/Endpoint.h **** 			
 286:LUFA-100807/LUFA/Drivers/USB/Class/Device/../../HighLevel/../LowLevel/Endpoint.h **** 			/** Selects the given endpoint number. If the address from the device descriptors is used, the
 287:LUFA-100807/LUFA/Drivers/USB/Class/Device/../../HighLevel/../LowLevel/Endpoint.h **** 			 *  value should be masked with the \ref ENDPOINT_EPNUM_MASK constant to extract only the endpoi
 288:LUFA-100807/LUFA/Drivers/USB/Class/Device/../../HighLevel/../LowLevel/Endpoint.h **** 			 *  number (and discarding the endpoint direction bit).
 289:LUFA-100807/LUFA/Drivers/USB/Class/Device/../../HighLevel/../LowLevel/Endpoint.h **** 			 *
 290:LUFA-100807/LUFA/Drivers/USB/Class/Device/../../HighLevel/../LowLevel/Endpoint.h **** 			 *  Any endpoint operations which do not require the endpoint number to be indicated will operat
 291:LUFA-100807/LUFA/Drivers/USB/Class/Device/../../HighLevel/../LowLevel/Endpoint.h **** 			 *  the currently selected endpoint.
 292:LUFA-100807/LUFA/Drivers/USB/Class/Device/../../HighLevel/../LowLevel/Endpoint.h **** 			 *
 293:LUFA-100807/LUFA/Drivers/USB/Class/Device/../../HighLevel/../LowLevel/Endpoint.h **** 			 *  \param[in] EndpointNumber Endpoint number to select.
 294:LUFA-100807/LUFA/Drivers/USB/Class/Device/../../HighLevel/../LowLevel/Endpoint.h **** 			 */
 295:LUFA-100807/LUFA/Drivers/USB/Class/Device/../../HighLevel/../LowLevel/Endpoint.h **** 			static inline void Endpoint_SelectEndpoint(const uint8_t EndpointNumber) ATTR_ALWAYS_INLINE;
 296:LUFA-100807/LUFA/Drivers/USB/Class/Device/../../HighLevel/../LowLevel/Endpoint.h **** 			static inline void Endpoint_SelectEndpoint(const uint8_t EndpointNumber)
 297:LUFA-100807/LUFA/Drivers/USB/Class/Device/../../HighLevel/../LowLevel/Endpoint.h **** 			{
 298:LUFA-100807/LUFA/Drivers/USB/Class/Device/../../HighLevel/../LowLevel/Endpoint.h **** 				#if !defined(CONTROL_ONLY_DEVICE)
 299:LUFA-100807/LUFA/Drivers/USB/Class/Device/../../HighLevel/../LowLevel/Endpoint.h **** 					UENUM = EndpointNumber;
 300:LUFA-100807/LUFA/Drivers/USB/Class/Device/../../HighLevel/../LowLevel/Endpoint.h **** 				#endif			
 301:LUFA-100807/LUFA/Drivers/USB/Class/Device/../../HighLevel/../LowLevel/Endpoint.h **** 			}
 302:LUFA-100807/LUFA/Drivers/USB/Class/Device/../../HighLevel/../LowLevel/Endpoint.h **** 			
 303:LUFA-100807/LUFA/Drivers/USB/Class/Device/../../HighLevel/../LowLevel/Endpoint.h **** 			/** Resets the endpoint bank FIFO. This clears all the endpoint banks and resets the USB control
 304:LUFA-100807/LUFA/Drivers/USB/Class/Device/../../HighLevel/../LowLevel/Endpoint.h **** 			 *  In and Out pointers to the bank's contents.
 305:LUFA-100807/LUFA/Drivers/USB/Class/Device/../../HighLevel/../LowLevel/Endpoint.h **** 			 *
 306:LUFA-100807/LUFA/Drivers/USB/Class/Device/../../HighLevel/../LowLevel/Endpoint.h **** 			 *  \param[in] EndpointNumber Endpoint number whose FIFO buffers are to be reset.
 307:LUFA-100807/LUFA/Drivers/USB/Class/Device/../../HighLevel/../LowLevel/Endpoint.h **** 			 */
 308:LUFA-100807/LUFA/Drivers/USB/Class/Device/../../HighLevel/../LowLevel/Endpoint.h **** 			static inline void Endpoint_ResetFIFO(const uint8_t EndpointNumber) ATTR_ALWAYS_INLINE;
 309:LUFA-100807/LUFA/Drivers/USB/Class/Device/../../HighLevel/../LowLevel/Endpoint.h **** 			static inline void Endpoint_ResetFIFO(const uint8_t EndpointNumber)
 310:LUFA-100807/LUFA/Drivers/USB/Class/Device/../../HighLevel/../LowLevel/Endpoint.h **** 			{
 311:LUFA-100807/LUFA/Drivers/USB/Class/Device/../../HighLevel/../LowLevel/Endpoint.h **** 				UERST = (1 << EndpointNumber);
 312:LUFA-100807/LUFA/Drivers/USB/Class/Device/../../HighLevel/../LowLevel/Endpoint.h **** 				UERST = 0;
 313:LUFA-100807/LUFA/Drivers/USB/Class/Device/../../HighLevel/../LowLevel/Endpoint.h **** 			}
 314:LUFA-100807/LUFA/Drivers/USB/Class/Device/../../HighLevel/../LowLevel/Endpoint.h **** 			
 315:LUFA-100807/LUFA/Drivers/USB/Class/Device/../../HighLevel/../LowLevel/Endpoint.h **** 			/** Enables the currently selected endpoint so that data can be sent and received through it to
 316:LUFA-100807/LUFA/Drivers/USB/Class/Device/../../HighLevel/../LowLevel/Endpoint.h **** 			 *  and from a host.
 317:LUFA-100807/LUFA/Drivers/USB/Class/Device/../../HighLevel/../LowLevel/Endpoint.h **** 			 *
 318:LUFA-100807/LUFA/Drivers/USB/Class/Device/../../HighLevel/../LowLevel/Endpoint.h **** 			 *  \note Endpoints must first be configured properly via \ref Endpoint_ConfigureEndpoint().
 319:LUFA-100807/LUFA/Drivers/USB/Class/Device/../../HighLevel/../LowLevel/Endpoint.h **** 			 */
 320:LUFA-100807/LUFA/Drivers/USB/Class/Device/../../HighLevel/../LowLevel/Endpoint.h **** 			static inline void Endpoint_EnableEndpoint(void) ATTR_ALWAYS_INLINE;
 321:LUFA-100807/LUFA/Drivers/USB/Class/Device/../../HighLevel/../LowLevel/Endpoint.h **** 			static inline void Endpoint_EnableEndpoint(void)
 322:LUFA-100807/LUFA/Drivers/USB/Class/Device/../../HighLevel/../LowLevel/Endpoint.h **** 			{
 323:LUFA-100807/LUFA/Drivers/USB/Class/Device/../../HighLevel/../LowLevel/Endpoint.h **** 				UECONX |= (1 << EPEN);
 324:LUFA-100807/LUFA/Drivers/USB/Class/Device/../../HighLevel/../LowLevel/Endpoint.h **** 			}
 325:LUFA-100807/LUFA/Drivers/USB/Class/Device/../../HighLevel/../LowLevel/Endpoint.h **** 
 326:LUFA-100807/LUFA/Drivers/USB/Class/Device/../../HighLevel/../LowLevel/Endpoint.h **** 			/** Disables the currently selected endpoint so that data cannot be sent and received through it
 327:LUFA-100807/LUFA/Drivers/USB/Class/Device/../../HighLevel/../LowLevel/Endpoint.h **** 			 *  to and from a host.
 328:LUFA-100807/LUFA/Drivers/USB/Class/Device/../../HighLevel/../LowLevel/Endpoint.h **** 			 */
 329:LUFA-100807/LUFA/Drivers/USB/Class/Device/../../HighLevel/../LowLevel/Endpoint.h **** 			static inline void Endpoint_DisableEndpoint(void) ATTR_ALWAYS_INLINE;
 330:LUFA-100807/LUFA/Drivers/USB/Class/Device/../../HighLevel/../LowLevel/Endpoint.h **** 			static inline void Endpoint_DisableEndpoint(void)
 331:LUFA-100807/LUFA/Drivers/USB/Class/Device/../../HighLevel/../LowLevel/Endpoint.h **** 			{
 332:LUFA-100807/LUFA/Drivers/USB/Class/Device/../../HighLevel/../LowLevel/Endpoint.h **** 				UECONX &= ~(1 << EPEN);
 333:LUFA-100807/LUFA/Drivers/USB/Class/Device/../../HighLevel/../LowLevel/Endpoint.h **** 			}
 334:LUFA-100807/LUFA/Drivers/USB/Class/Device/../../HighLevel/../LowLevel/Endpoint.h **** 			
 335:LUFA-100807/LUFA/Drivers/USB/Class/Device/../../HighLevel/../LowLevel/Endpoint.h **** 			/** Determines if the currently selected endpoint is enabled, but not necessarily configured.
 336:LUFA-100807/LUFA/Drivers/USB/Class/Device/../../HighLevel/../LowLevel/Endpoint.h **** 			 *
 337:LUFA-100807/LUFA/Drivers/USB/Class/Device/../../HighLevel/../LowLevel/Endpoint.h **** 			 * \return Boolean True if the currently selected endpoint is enabled, false otherwise.
 338:LUFA-100807/LUFA/Drivers/USB/Class/Device/../../HighLevel/../LowLevel/Endpoint.h **** 			 */
 339:LUFA-100807/LUFA/Drivers/USB/Class/Device/../../HighLevel/../LowLevel/Endpoint.h **** 			static inline bool Endpoint_IsEnabled(void) ATTR_WARN_UNUSED_RESULT ATTR_ALWAYS_INLINE;
 340:LUFA-100807/LUFA/Drivers/USB/Class/Device/../../HighLevel/../LowLevel/Endpoint.h **** 			static inline bool Endpoint_IsEnabled(void)
 341:LUFA-100807/LUFA/Drivers/USB/Class/Device/../../HighLevel/../LowLevel/Endpoint.h **** 			{
 342:LUFA-100807/LUFA/Drivers/USB/Class/Device/../../HighLevel/../LowLevel/Endpoint.h **** 				return ((UECONX & (1 << EPEN)) ? true : false);
 343:LUFA-100807/LUFA/Drivers/USB/Class/Device/../../HighLevel/../LowLevel/Endpoint.h **** 			}
 344:LUFA-100807/LUFA/Drivers/USB/Class/Device/../../HighLevel/../LowLevel/Endpoint.h **** 			
 345:LUFA-100807/LUFA/Drivers/USB/Class/Device/../../HighLevel/../LowLevel/Endpoint.h **** 			/** Determines if the currently selected endpoint may be read from (if data is waiting in the en
 346:LUFA-100807/LUFA/Drivers/USB/Class/Device/../../HighLevel/../LowLevel/Endpoint.h **** 			 *  bank and the endpoint is an OUT direction, or if the bank is not yet full if the endpoint is
 347:LUFA-100807/LUFA/Drivers/USB/Class/Device/../../HighLevel/../LowLevel/Endpoint.h **** 			 *  direction). This function will return false if an error has occurred in the endpoint, if the
 348:LUFA-100807/LUFA/Drivers/USB/Class/Device/../../HighLevel/../LowLevel/Endpoint.h **** 			 *  is an OUT direction and no packet (or an empty packet) has been received, or if the endpoint
 349:LUFA-100807/LUFA/Drivers/USB/Class/Device/../../HighLevel/../LowLevel/Endpoint.h **** 			 *  direction and the endpoint bank is full.
 350:LUFA-100807/LUFA/Drivers/USB/Class/Device/../../HighLevel/../LowLevel/Endpoint.h **** 			 *
 351:LUFA-100807/LUFA/Drivers/USB/Class/Device/../../HighLevel/../LowLevel/Endpoint.h **** 			 *  \ingroup Group_EndpointPacketManagement
 352:LUFA-100807/LUFA/Drivers/USB/Class/Device/../../HighLevel/../LowLevel/Endpoint.h **** 			 *
 353:LUFA-100807/LUFA/Drivers/USB/Class/Device/../../HighLevel/../LowLevel/Endpoint.h **** 			 *  \return Boolean true if the currently selected endpoint may be read from or written to, depe
 354:LUFA-100807/LUFA/Drivers/USB/Class/Device/../../HighLevel/../LowLevel/Endpoint.h **** 			 */
 355:LUFA-100807/LUFA/Drivers/USB/Class/Device/../../HighLevel/../LowLevel/Endpoint.h **** 			static inline bool Endpoint_IsReadWriteAllowed(void) ATTR_WARN_UNUSED_RESULT ATTR_ALWAYS_INLINE;
 356:LUFA-100807/LUFA/Drivers/USB/Class/Device/../../HighLevel/../LowLevel/Endpoint.h **** 			static inline bool Endpoint_IsReadWriteAllowed(void)
 357:LUFA-100807/LUFA/Drivers/USB/Class/Device/../../HighLevel/../LowLevel/Endpoint.h **** 			{
 358:LUFA-100807/LUFA/Drivers/USB/Class/Device/../../HighLevel/../LowLevel/Endpoint.h **** 				return ((UEINTX & (1 << RWAL)) ? true : false);
 359:LUFA-100807/LUFA/Drivers/USB/Class/Device/../../HighLevel/../LowLevel/Endpoint.h **** 			}
 360:LUFA-100807/LUFA/Drivers/USB/Class/Device/../../HighLevel/../LowLevel/Endpoint.h **** 			
 361:LUFA-100807/LUFA/Drivers/USB/Class/Device/../../HighLevel/../LowLevel/Endpoint.h **** 			/** Determines if the currently selected endpoint is configured.
 362:LUFA-100807/LUFA/Drivers/USB/Class/Device/../../HighLevel/../LowLevel/Endpoint.h **** 			 *
 363:LUFA-100807/LUFA/Drivers/USB/Class/Device/../../HighLevel/../LowLevel/Endpoint.h **** 			 *  \return Boolean true if the currently selected endpoint has been configured, false otherwise
 364:LUFA-100807/LUFA/Drivers/USB/Class/Device/../../HighLevel/../LowLevel/Endpoint.h **** 			 */
 365:LUFA-100807/LUFA/Drivers/USB/Class/Device/../../HighLevel/../LowLevel/Endpoint.h **** 			static inline bool Endpoint_IsConfigured(void) ATTR_WARN_UNUSED_RESULT ATTR_ALWAYS_INLINE;
 366:LUFA-100807/LUFA/Drivers/USB/Class/Device/../../HighLevel/../LowLevel/Endpoint.h **** 			static inline bool Endpoint_IsConfigured(void)
 367:LUFA-100807/LUFA/Drivers/USB/Class/Device/../../HighLevel/../LowLevel/Endpoint.h **** 			{
 368:LUFA-100807/LUFA/Drivers/USB/Class/Device/../../HighLevel/../LowLevel/Endpoint.h **** 				return ((UESTA0X & (1 << CFGOK)) ? true : false);
 369:LUFA-100807/LUFA/Drivers/USB/Class/Device/../../HighLevel/../LowLevel/Endpoint.h **** 			}
 370:LUFA-100807/LUFA/Drivers/USB/Class/Device/../../HighLevel/../LowLevel/Endpoint.h **** 			
 371:LUFA-100807/LUFA/Drivers/USB/Class/Device/../../HighLevel/../LowLevel/Endpoint.h **** 			/** Returns a mask indicating which INTERRUPT type endpoints have interrupted - i.e. their
 372:LUFA-100807/LUFA/Drivers/USB/Class/Device/../../HighLevel/../LowLevel/Endpoint.h **** 			 *  interrupt duration has elapsed. Which endpoints have interrupted can be determined by
 373:LUFA-100807/LUFA/Drivers/USB/Class/Device/../../HighLevel/../LowLevel/Endpoint.h **** 			 *  masking the return value against (1 << {Endpoint Number}).
 374:LUFA-100807/LUFA/Drivers/USB/Class/Device/../../HighLevel/../LowLevel/Endpoint.h **** 			 *
 375:LUFA-100807/LUFA/Drivers/USB/Class/Device/../../HighLevel/../LowLevel/Endpoint.h **** 			 *  \return Mask whose bits indicate which endpoints have interrupted.
 376:LUFA-100807/LUFA/Drivers/USB/Class/Device/../../HighLevel/../LowLevel/Endpoint.h **** 			 */
 377:LUFA-100807/LUFA/Drivers/USB/Class/Device/../../HighLevel/../LowLevel/Endpoint.h **** 			static inline uint8_t Endpoint_GetEndpointInterrupts(void) ATTR_WARN_UNUSED_RESULT ATTR_ALWAYS_I
 378:LUFA-100807/LUFA/Drivers/USB/Class/Device/../../HighLevel/../LowLevel/Endpoint.h **** 			static inline uint8_t Endpoint_GetEndpointInterrupts(void)
 379:LUFA-100807/LUFA/Drivers/USB/Class/Device/../../HighLevel/../LowLevel/Endpoint.h **** 			{
 380:LUFA-100807/LUFA/Drivers/USB/Class/Device/../../HighLevel/../LowLevel/Endpoint.h **** 				return UEINT;
 381:LUFA-100807/LUFA/Drivers/USB/Class/Device/../../HighLevel/../LowLevel/Endpoint.h **** 			}
 382:LUFA-100807/LUFA/Drivers/USB/Class/Device/../../HighLevel/../LowLevel/Endpoint.h **** 			
 383:LUFA-100807/LUFA/Drivers/USB/Class/Device/../../HighLevel/../LowLevel/Endpoint.h **** 			/** Determines if the specified endpoint number has interrupted (valid only for INTERRUPT type
 384:LUFA-100807/LUFA/Drivers/USB/Class/Device/../../HighLevel/../LowLevel/Endpoint.h **** 			 *  endpoints).
 385:LUFA-100807/LUFA/Drivers/USB/Class/Device/../../HighLevel/../LowLevel/Endpoint.h **** 			 *
 386:LUFA-100807/LUFA/Drivers/USB/Class/Device/../../HighLevel/../LowLevel/Endpoint.h **** 			 *  \param[in] EndpointNumber  Index of the endpoint whose interrupt flag should be tested.
 387:LUFA-100807/LUFA/Drivers/USB/Class/Device/../../HighLevel/../LowLevel/Endpoint.h **** 			 *
 388:LUFA-100807/LUFA/Drivers/USB/Class/Device/../../HighLevel/../LowLevel/Endpoint.h **** 			 *  \return Boolean true if the specified endpoint has interrupted, false otherwise.
 389:LUFA-100807/LUFA/Drivers/USB/Class/Device/../../HighLevel/../LowLevel/Endpoint.h **** 			 */
 390:LUFA-100807/LUFA/Drivers/USB/Class/Device/../../HighLevel/../LowLevel/Endpoint.h **** 			static inline bool Endpoint_HasEndpointInterrupted(const uint8_t EndpointNumber) ATTR_WARN_UNUSE
 391:LUFA-100807/LUFA/Drivers/USB/Class/Device/../../HighLevel/../LowLevel/Endpoint.h **** 			static inline bool Endpoint_HasEndpointInterrupted(const uint8_t EndpointNumber)
 392:LUFA-100807/LUFA/Drivers/USB/Class/Device/../../HighLevel/../LowLevel/Endpoint.h **** 			{
 393:LUFA-100807/LUFA/Drivers/USB/Class/Device/../../HighLevel/../LowLevel/Endpoint.h **** 				return ((UEINT & (1 << EndpointNumber)) ? true : false);
 394:LUFA-100807/LUFA/Drivers/USB/Class/Device/../../HighLevel/../LowLevel/Endpoint.h **** 			}
 395:LUFA-100807/LUFA/Drivers/USB/Class/Device/../../HighLevel/../LowLevel/Endpoint.h **** 			
 396:LUFA-100807/LUFA/Drivers/USB/Class/Device/../../HighLevel/../LowLevel/Endpoint.h **** 			/** Determines if the selected IN endpoint is ready for a new packet.
 397:LUFA-100807/LUFA/Drivers/USB/Class/Device/../../HighLevel/../LowLevel/Endpoint.h **** 			 *
 398:LUFA-100807/LUFA/Drivers/USB/Class/Device/../../HighLevel/../LowLevel/Endpoint.h **** 			 *  \ingroup Group_EndpointPacketManagement
 399:LUFA-100807/LUFA/Drivers/USB/Class/Device/../../HighLevel/../LowLevel/Endpoint.h **** 			 *
 400:LUFA-100807/LUFA/Drivers/USB/Class/Device/../../HighLevel/../LowLevel/Endpoint.h **** 			 *  \return Boolean true if the current endpoint is ready for an IN packet, false otherwise.
 401:LUFA-100807/LUFA/Drivers/USB/Class/Device/../../HighLevel/../LowLevel/Endpoint.h **** 			 */
 402:LUFA-100807/LUFA/Drivers/USB/Class/Device/../../HighLevel/../LowLevel/Endpoint.h **** 			static inline bool Endpoint_IsINReady(void) ATTR_WARN_UNUSED_RESULT ATTR_ALWAYS_INLINE;
 403:LUFA-100807/LUFA/Drivers/USB/Class/Device/../../HighLevel/../LowLevel/Endpoint.h **** 			static inline bool Endpoint_IsINReady(void)
 404:LUFA-100807/LUFA/Drivers/USB/Class/Device/../../HighLevel/../LowLevel/Endpoint.h **** 			{
 405:LUFA-100807/LUFA/Drivers/USB/Class/Device/../../HighLevel/../LowLevel/Endpoint.h **** 				return ((UEINTX & (1 << TXINI))  ? true : false);
 406:LUFA-100807/LUFA/Drivers/USB/Class/Device/../../HighLevel/../LowLevel/Endpoint.h **** 			}
 407:LUFA-100807/LUFA/Drivers/USB/Class/Device/../../HighLevel/../LowLevel/Endpoint.h **** 			
 408:LUFA-100807/LUFA/Drivers/USB/Class/Device/../../HighLevel/../LowLevel/Endpoint.h **** 			/** Determines if the selected OUT endpoint has received new packet.
 409:LUFA-100807/LUFA/Drivers/USB/Class/Device/../../HighLevel/../LowLevel/Endpoint.h **** 			 *
 410:LUFA-100807/LUFA/Drivers/USB/Class/Device/../../HighLevel/../LowLevel/Endpoint.h **** 			 *  \ingroup Group_EndpointPacketManagement
 411:LUFA-100807/LUFA/Drivers/USB/Class/Device/../../HighLevel/../LowLevel/Endpoint.h **** 			 *
 412:LUFA-100807/LUFA/Drivers/USB/Class/Device/../../HighLevel/../LowLevel/Endpoint.h **** 			 *  \return Boolean true if current endpoint is has received an OUT packet, false otherwise.
 413:LUFA-100807/LUFA/Drivers/USB/Class/Device/../../HighLevel/../LowLevel/Endpoint.h **** 			 */
 414:LUFA-100807/LUFA/Drivers/USB/Class/Device/../../HighLevel/../LowLevel/Endpoint.h **** 			static inline bool Endpoint_IsOUTReceived(void) ATTR_WARN_UNUSED_RESULT ATTR_ALWAYS_INLINE;
 415:LUFA-100807/LUFA/Drivers/USB/Class/Device/../../HighLevel/../LowLevel/Endpoint.h **** 			static inline bool Endpoint_IsOUTReceived(void)
 416:LUFA-100807/LUFA/Drivers/USB/Class/Device/../../HighLevel/../LowLevel/Endpoint.h **** 			{
 417:LUFA-100807/LUFA/Drivers/USB/Class/Device/../../HighLevel/../LowLevel/Endpoint.h **** 				return ((UEINTX & (1 << RXOUTI)) ? true : false);
 418:LUFA-100807/LUFA/Drivers/USB/Class/Device/../../HighLevel/../LowLevel/Endpoint.h **** 			}
 419:LUFA-100807/LUFA/Drivers/USB/Class/Device/../../HighLevel/../LowLevel/Endpoint.h **** 			
 420:LUFA-100807/LUFA/Drivers/USB/Class/Device/../../HighLevel/../LowLevel/Endpoint.h **** 			/** Determines if the current CONTROL type endpoint has received a SETUP packet.
 421:LUFA-100807/LUFA/Drivers/USB/Class/Device/../../HighLevel/../LowLevel/Endpoint.h **** 			 *
 422:LUFA-100807/LUFA/Drivers/USB/Class/Device/../../HighLevel/../LowLevel/Endpoint.h **** 			 *  \ingroup Group_EndpointPacketManagement
 423:LUFA-100807/LUFA/Drivers/USB/Class/Device/../../HighLevel/../LowLevel/Endpoint.h **** 			 *
 424:LUFA-100807/LUFA/Drivers/USB/Class/Device/../../HighLevel/../LowLevel/Endpoint.h **** 			 *  \return Boolean true if the selected endpoint has received a SETUP packet, false otherwise.
 425:LUFA-100807/LUFA/Drivers/USB/Class/Device/../../HighLevel/../LowLevel/Endpoint.h **** 			 */
 426:LUFA-100807/LUFA/Drivers/USB/Class/Device/../../HighLevel/../LowLevel/Endpoint.h **** 			static inline bool Endpoint_IsSETUPReceived(void) ATTR_WARN_UNUSED_RESULT ATTR_ALWAYS_INLINE;
 427:LUFA-100807/LUFA/Drivers/USB/Class/Device/../../HighLevel/../LowLevel/Endpoint.h **** 			static inline bool Endpoint_IsSETUPReceived(void)
  86               		.loc 2 427 23 view .LVU5
  87               	.LBB48:
 428:LUFA-100807/LUFA/Drivers/USB/Class/Device/../../HighLevel/../LowLevel/Endpoint.h **** 			{
 429:LUFA-100807/LUFA/Drivers/USB/Class/Device/../../HighLevel/../LowLevel/Endpoint.h **** 				return ((UEINTX & (1 << RXSTPI)) ? true : false);
  88               		.loc 2 429 5 view .LVU6
  89               		.loc 2 429 14 is_stmt 0 view .LVU7
  90 002a 8091 E800 		lds r24,232
  91               	.LBE48:
  92               	.LBE47:
  40:LUFA-100807/LUFA/Drivers/USB/Class/Device/HID.c **** 	  return;
  93               		.loc 1 40 5 view .LVU8
  94 002e 83FF      		sbrs r24,3
  95 0030 00C0      		rjmp .L1
  43:LUFA-100807/LUFA/Drivers/USB/Class/Device/HID.c **** 	  return;
  96               		.loc 1 43 2 is_stmt 1 view .LVU9
  43:LUFA-100807/LUFA/Drivers/USB/Class/Device/HID.c **** 	  return;
  97               		.loc 1 43 59 is_stmt 0 view .LVU10
  98 0032 F701      		movw r30,r14
  99 0034 2081      		ld r18,Z
  43:LUFA-100807/LUFA/Drivers/USB/Class/Device/HID.c **** 	  return;
 100               		.loc 1 43 5 view .LVU11
 101 0036 8091 0000 		lds r24,USB_ControlRequest+4
 102 003a 9091 0000 		lds r25,USB_ControlRequest+4+1
 103 003e 2817      		cp r18,r24
 104 0040 1906      		cpc __zero_reg__,r25
 105 0042 01F4      		brne .L1
  46:LUFA-100807/LUFA/Drivers/USB/Class/Device/HID.c **** 	{
 106               		.loc 1 46 2 is_stmt 1 view .LVU12
  46:LUFA-100807/LUFA/Drivers/USB/Class/Device/HID.c **** 	{
 107               		.loc 1 46 28 is_stmt 0 view .LVU13
 108 0044 8091 0000 		lds r24,USB_ControlRequest+1
  46:LUFA-100807/LUFA/Drivers/USB/Class/Device/HID.c **** 	{
 109               		.loc 1 46 2 view .LVU14
 110 0048 8930      		cpi r24,lo8(9)
 111 004a 01F4      		brne .+2
 112 004c 00C0      		rjmp .L3
 113 004e 00F4      		brsh .L4
 114 0050 8230      		cpi r24,lo8(2)
 115 0052 01F4      		brne .+2
 116 0054 00C0      		rjmp .L5
 117 0056 8330      		cpi r24,lo8(3)
 118 0058 01F4      		brne .+2
 119 005a 00C0      		rjmp .L6
 120 005c 8130      		cpi r24,lo8(1)
 121 005e 01F0      		breq .L7
 122               	.L1:
 123               		.loc 1 134 1 view .LVU15
 124 0060 8C81      		ldd r24,Y+4
 125 0062 9D81      		ldd r25,Y+5
 126 0064 0FB6      		in __tmp_reg__,__SREG__
 127 0066 F894      		cli
 128 0068 9EBF      		out __SP_H__,r25
 129 006a 0FBE      		out __SREG__,__tmp_reg__
 130 006c 8DBF      		out __SP_L__,r24
 131               	/* epilogue start */
 132 006e 2796      		adiw r28,7
 133 0070 0FB6      		in __tmp_reg__,__SREG__
 134 0072 F894      		cli
 135 0074 DEBF      		out __SP_H__,r29
 136 0076 0FBE      		out __SREG__,__tmp_reg__
 137 0078 CDBF      		out __SP_L__,r28
 138 007a DF91      		pop r29
 139 007c CF91      		pop r28
 140 007e 1F91      		pop r17
 141 0080 0F91      		pop r16
 142 0082 FF90      		pop r15
 143 0084 EF90      		pop r14
 144               	.LVL2:
 145               		.loc 1 134 1 view .LVU16
 146 0086 DF90      		pop r13
 147 0088 CF90      		pop r12
 148 008a BF90      		pop r11
 149 008c AF90      		pop r10
 150 008e 0895      		ret
 151               	.LVL3:
 152               	.L4:
  46:LUFA-100807/LUFA/Drivers/USB/Class/Device/HID.c **** 	{
 153               		.loc 1 46 2 view .LVU17
 154 0090 8A30      		cpi r24,lo8(10)
 155 0092 01F4      		brne .+2
 156 0094 00C0      		rjmp .L8
 157 0096 8B30      		cpi r24,lo8(11)
 158 0098 01F4      		brne .L1
 100:LUFA-100807/LUFA/Drivers/USB/Class/Device/HID.c **** 			{
 159               		.loc 1 100 4 is_stmt 1 view .LVU18
 100:LUFA-100807/LUFA/Drivers/USB/Class/Device/HID.c **** 			{
 160               		.loc 1 100 7 is_stmt 0 view .LVU19
 161 009a 8091 0000 		lds r24,USB_ControlRequest
 162 009e 8132      		cpi r24,lo8(33)
 163 00a0 01F4      		brne .L1
 102:LUFA-100807/LUFA/Drivers/USB/Class/Device/HID.c **** 
 164               		.loc 1 102 5 is_stmt 1 view .LVU20
 165               	.LBB49:
 166               	.LBI49:
 430:LUFA-100807/LUFA/Drivers/USB/Class/Device/../../HighLevel/../LowLevel/Endpoint.h **** 			}
 431:LUFA-100807/LUFA/Drivers/USB/Class/Device/../../HighLevel/../LowLevel/Endpoint.h **** 			
 432:LUFA-100807/LUFA/Drivers/USB/Class/Device/../../HighLevel/../LowLevel/Endpoint.h **** 			/** Clears a received SETUP packet on the currently selected CONTROL type endpoint, freeing up t
 433:LUFA-100807/LUFA/Drivers/USB/Class/Device/../../HighLevel/../LowLevel/Endpoint.h **** 			 *  endpoint for the next packet.
 434:LUFA-100807/LUFA/Drivers/USB/Class/Device/../../HighLevel/../LowLevel/Endpoint.h **** 			 *
 435:LUFA-100807/LUFA/Drivers/USB/Class/Device/../../HighLevel/../LowLevel/Endpoint.h **** 			 *  \ingroup Group_EndpointPacketManagement
 436:LUFA-100807/LUFA/Drivers/USB/Class/Device/../../HighLevel/../LowLevel/Endpoint.h **** 			 *
 437:LUFA-100807/LUFA/Drivers/USB/Class/Device/../../HighLevel/../LowLevel/Endpoint.h **** 			 *  \note This is not applicable for non CONTROL type endpoints. 
 438:LUFA-100807/LUFA/Drivers/USB/Class/Device/../../HighLevel/../LowLevel/Endpoint.h **** 			 */
 439:LUFA-100807/LUFA/Drivers/USB/Class/Device/../../HighLevel/../LowLevel/Endpoint.h **** 			static inline void Endpoint_ClearSETUP(void) ATTR_ALWAYS_INLINE;
 440:LUFA-100807/LUFA/Drivers/USB/Class/Device/../../HighLevel/../LowLevel/Endpoint.h **** 			static inline void Endpoint_ClearSETUP(void)
 167               		.loc 2 440 23 view .LVU21
 168               	.LBB50:
 441:LUFA-100807/LUFA/Drivers/USB/Class/Device/../../HighLevel/../LowLevel/Endpoint.h **** 			{
 442:LUFA-100807/LUFA/Drivers/USB/Class/Device/../../HighLevel/../LowLevel/Endpoint.h **** 				UEINTX &= ~(1 << RXSTPI);
 169               		.loc 2 442 5 view .LVU22
 170               		.loc 2 442 12 is_stmt 0 view .LVU23
 171 00a2 8091 E800 		lds r24,232
 172 00a6 877F      		andi r24,lo8(-9)
 173 00a8 8093 E800 		sts 232,r24
 174               	.LBE50:
 175               	.LBE49:
 104:LUFA-100807/LUFA/Drivers/USB/Class/Device/HID.c **** 				
 176               		.loc 1 104 5 is_stmt 1 view .LVU24
 104:LUFA-100807/LUFA/Drivers/USB/Class/Device/HID.c **** 				
 177               		.loc 1 104 79 is_stmt 0 view .LVU25
 178 00ac 9091 0000 		lds r25,USB_ControlRequest+2
 104:LUFA-100807/LUFA/Drivers/USB/Class/Device/HID.c **** 				
 179               		.loc 1 104 87 view .LVU26
 180 00b0 81E0      		ldi r24,lo8(1)
 181 00b2 9111      		cpse r25,__zero_reg__
 182 00b4 00C0      		rjmp .L11
 183 00b6 80E0      		ldi r24,0
 184               	.L11:
 104:LUFA-100807/LUFA/Drivers/USB/Class/Device/HID.c **** 				
 185               		.loc 1 104 49 view .LVU27
 186 00b8 F701      		movw r30,r14
 187 00ba 8087      		std Z+8,r24
 106:LUFA-100807/LUFA/Drivers/USB/Class/Device/HID.c **** 			}
 188               		.loc 1 106 5 is_stmt 1 view .LVU28
 189               	.L19:
 129:LUFA-100807/LUFA/Drivers/USB/Class/Device/HID.c **** 			}
 190               		.loc 1 129 5 view .LVU29
 191 00bc 0E94 0000 		call Endpoint_ClearStatusStage
 192               	.LVL4:
 193 00c0 00C0      		rjmp .L1
 194               	.L7:
  49:LUFA-100807/LUFA/Drivers/USB/Class/Device/HID.c **** 			{
 195               		.loc 1 49 4 view .LVU30
  49:LUFA-100807/LUFA/Drivers/USB/Class/Device/HID.c **** 			{
 196               		.loc 1 49 7 is_stmt 0 view .LVU31
 197 00c2 8091 0000 		lds r24,USB_ControlRequest
 198 00c6 813A      		cpi r24,lo8(-95)
 199 00c8 01F4      		brne .L1
 200               	.LBB51:
  50:LUFA-100807/LUFA/Drivers/USB/Class/Device/HID.c **** 				Endpoint_ClearSETUP();	
 201               		.loc 1 50 4 view .LVU32
 202 00ca 8DB7      		in r24,__SP_L__
 203 00cc 9EB7      		in r25,__SP_H__
 204 00ce 9F83      		std Y+7,r25
 205 00d0 8E83      		std Y+6,r24
  51:LUFA-100807/LUFA/Drivers/USB/Class/Device/HID.c **** 
 206               		.loc 1 51 5 is_stmt 1 view .LVU33
 207               	.LBB52:
 208               	.LBI52:
 440:LUFA-100807/LUFA/Drivers/USB/Class/Device/../../HighLevel/../LowLevel/Endpoint.h **** 			{
 209               		.loc 2 440 23 view .LVU34
 210               	.LBB53:
 211               		.loc 2 442 5 view .LVU35
 212               		.loc 2 442 12 is_stmt 0 view .LVU36
 213 00d2 8091 E800 		lds r24,232
 214 00d6 877F      		andi r24,lo8(-9)
 215 00d8 8093 E800 		sts 232,r24
 216               	.LBE53:
 217               	.LBE52:
  53:LUFA-100807/LUFA/Drivers/USB/Class/Device/HID.c **** 				uint8_t  ReportID   = (USB_ControlRequest.wValue & 0xFF);
 218               		.loc 1 53 5 is_stmt 1 view .LVU37
  53:LUFA-100807/LUFA/Drivers/USB/Class/Device/HID.c **** 				uint8_t  ReportID   = (USB_ControlRequest.wValue & 0xFF);
 219               		.loc 1 53 14 is_stmt 0 view .LVU38
 220 00dc 1A82      		std Y+2,__zero_reg__
 221 00de 1982      		std Y+1,__zero_reg__
  54:LUFA-100807/LUFA/Drivers/USB/Class/Device/HID.c **** 				uint8_t  ReportType = (USB_ControlRequest.wValue >> 8) - 1;
 222               		.loc 1 54 5 is_stmt 1 view .LVU39
  54:LUFA-100807/LUFA/Drivers/USB/Class/Device/HID.c **** 				uint8_t  ReportType = (USB_ControlRequest.wValue >> 8) - 1;
 223               		.loc 1 54 46 is_stmt 0 view .LVU40
 224 00e0 8091 0000 		lds r24,USB_ControlRequest+2
 225 00e4 1091 0000 		lds r17,USB_ControlRequest+3
  54:LUFA-100807/LUFA/Drivers/USB/Class/Device/HID.c **** 				uint8_t  ReportType = (USB_ControlRequest.wValue >> 8) - 1;
 226               		.loc 1 54 14 view .LVU41
 227 00e8 8B83      		std Y+3,r24
  55:LUFA-100807/LUFA/Drivers/USB/Class/Device/HID.c **** 				uint8_t  ReportData[HIDInterfaceInfo->Config.PrevReportINBufferSize];
 228               		.loc 1 55 5 is_stmt 1 view .LVU42
 229               	.LVL5:
  56:LUFA-100807/LUFA/Drivers/USB/Class/Device/HID.c **** 
 230               		.loc 1 56 5 view .LVU43
  56:LUFA-100807/LUFA/Drivers/USB/Class/Device/HID.c **** 
 231               		.loc 1 56 14 is_stmt 0 view .LVU44
 232 00ea 8781      		ldd r24,Z+7
 233 00ec 482F      		mov r20,r24
 234 00ee 50E0      		ldi r21,0
 235 00f0 8DB7      		in r24,__SP_L__
 236 00f2 9EB7      		in r25,__SP_H__
 237 00f4 841B      		sub r24,r20
 238 00f6 950B      		sbc r25,r21
 239 00f8 0FB6      		in __tmp_reg__,__SREG__
 240 00fa F894      		cli
 241 00fc 9EBF      		out __SP_H__,r25
 242 00fe 0FBE      		out __SREG__,__tmp_reg__
 243 0100 8DBF      		out __SP_L__,r24
 244 0102 EDB7      		in r30,__SP_L__
 245 0104 FEB7      		in r31,__SP_H__
 246 0106 3196      		adiw r30,1
 247 0108 6F01      		movw r12,r30
 248               	.LVL6:
  58:LUFA-100807/LUFA/Drivers/USB/Class/Device/HID.c **** 
 249               		.loc 1 58 5 is_stmt 1 view .LVU45
 250 010a 70E0      		ldi r23,0
 251 010c 60E0      		ldi r22,0
 252 010e CF01      		movw r24,r30
 253 0110 0E94 0000 		call memset
 254               	.LVL7:
  60:LUFA-100807/LUFA/Drivers/USB/Class/Device/HID.c **** 				
 255               		.loc 1 60 5 view .LVU46
  55:LUFA-100807/LUFA/Drivers/USB/Class/Device/HID.c **** 				uint8_t  ReportData[HIDInterfaceInfo->Config.PrevReportINBufferSize];
 256               		.loc 1 55 14 is_stmt 0 view .LVU47
 257 0114 4FEF      		ldi r20,lo8(-1)
 258 0116 410F      		add r20,r17
 259               	.LVL8:
  60:LUFA-100807/LUFA/Drivers/USB/Class/Device/HID.c **** 				
 260               		.loc 1 60 5 view .LVU48
 261 0118 8E01      		movw r16,r28
 262 011a 0F5F      		subi r16,-1
 263 011c 1F4F      		sbci r17,-1
 264 011e 9601      		movw r18,r12
 265 0120 BE01      		movw r22,r28
 266 0122 6D5F      		subi r22,-3
 267 0124 7F4F      		sbci r23,-1
 268 0126 C701      		movw r24,r14
 269 0128 0E94 0000 		call CALLBACK_HID_Device_CreateHIDReport
 270               	.LVL9:
  62:LUFA-100807/LUFA/Drivers/USB/Class/Device/HID.c **** 				  memcpy(HIDInterfaceInfo->Config.PrevReportINBuffer, ReportData, HIDInterfaceInfo->Config.Prev
 271               		.loc 1 62 5 is_stmt 1 view .LVU49
  62:LUFA-100807/LUFA/Drivers/USB/Class/Device/HID.c **** 				  memcpy(HIDInterfaceInfo->Config.PrevReportINBuffer, ReportData, HIDInterfaceInfo->Config.Prev
 272               		.loc 1 62 33 is_stmt 0 view .LVU50
 273 012c F701      		movw r30,r14
 274 012e 8581      		ldd r24,Z+5
 275 0130 9681      		ldd r25,Z+6
  62:LUFA-100807/LUFA/Drivers/USB/Class/Device/HID.c **** 				  memcpy(HIDInterfaceInfo->Config.PrevReportINBuffer, ReportData, HIDInterfaceInfo->Config.Prev
 276               		.loc 1 62 8 view .LVU51
 277 0132 0097      		sbiw r24,0
 278 0134 01F0      		breq .L10
  63:LUFA-100807/LUFA/Drivers/USB/Class/Device/HID.c **** 
 279               		.loc 1 63 7 is_stmt 1 view .LVU52
 280 0136 4781      		ldd r20,Z+7
 281 0138 50E0      		ldi r21,0
 282 013a B601      		movw r22,r12
 283 013c 0E94 0000 		call memcpy
 284               	.LVL10:
 285               	.L10:
  65:LUFA-100807/LUFA/Drivers/USB/Class/Device/HID.c **** 				Endpoint_Write_Control_Stream_LE(ReportData, ReportSize);
 286               		.loc 1 65 5 view .LVU53
 287               	.LBB54:
 288               	.LBI54:
 296:LUFA-100807/LUFA/Drivers/USB/Class/Device/../../HighLevel/../LowLevel/Endpoint.h **** 			{
 289               		.loc 2 296 23 view .LVU54
 290               	.LBB55:
 299:LUFA-100807/LUFA/Drivers/USB/Class/Device/../../HighLevel/../LowLevel/Endpoint.h **** 				#endif			
 291               		.loc 2 299 6 view .LVU55
 299:LUFA-100807/LUFA/Drivers/USB/Class/Device/../../HighLevel/../LowLevel/Endpoint.h **** 				#endif			
 292               		.loc 2 299 12 is_stmt 0 view .LVU56
 293 0140 1092 E900 		sts 233,__zero_reg__
 294               	.LVL11:
 299:LUFA-100807/LUFA/Drivers/USB/Class/Device/../../HighLevel/../LowLevel/Endpoint.h **** 				#endif			
 295               		.loc 2 299 12 view .LVU57
 296               	.LBE55:
 297               	.LBE54:
  66:LUFA-100807/LUFA/Drivers/USB/Class/Device/HID.c **** 				Endpoint_ClearOUT();
 298               		.loc 1 66 5 is_stmt 1 view .LVU58
 299 0144 6981      		ldd r22,Y+1
 300 0146 7A81      		ldd r23,Y+2
 301 0148 C601      		movw r24,r12
 302 014a 0E94 0000 		call Endpoint_Write_Control_Stream_LE
 303               	.LVL12:
  67:LUFA-100807/LUFA/Drivers/USB/Class/Device/HID.c **** 			}
 304               		.loc 1 67 5 view .LVU59
 305               	.LBB56:
 306               	.LBI56:
 443:LUFA-100807/LUFA/Drivers/USB/Class/Device/../../HighLevel/../LowLevel/Endpoint.h **** 			}
 444:LUFA-100807/LUFA/Drivers/USB/Class/Device/../../HighLevel/../LowLevel/Endpoint.h **** 			
 445:LUFA-100807/LUFA/Drivers/USB/Class/Device/../../HighLevel/../LowLevel/Endpoint.h **** 			/** Sends an IN packet to the host on the currently selected endpoint, freeing up the endpoint f
 446:LUFA-100807/LUFA/Drivers/USB/Class/Device/../../HighLevel/../LowLevel/Endpoint.h **** 			 *  next packet and switching to the alternative endpoint bank if double banked.
 447:LUFA-100807/LUFA/Drivers/USB/Class/Device/../../HighLevel/../LowLevel/Endpoint.h **** 			 *
 448:LUFA-100807/LUFA/Drivers/USB/Class/Device/../../HighLevel/../LowLevel/Endpoint.h **** 			 *  \ingroup Group_EndpointPacketManagement
 449:LUFA-100807/LUFA/Drivers/USB/Class/Device/../../HighLevel/../LowLevel/Endpoint.h **** 			 */
 450:LUFA-100807/LUFA/Drivers/USB/Class/Device/../../HighLevel/../LowLevel/Endpoint.h **** 			static inline void Endpoint_ClearIN(void) ATTR_ALWAYS_INLINE;
 451:LUFA-100807/LUFA/Drivers/USB/Class/Device/../../HighLevel/../LowLevel/Endpoint.h **** 			static inline void Endpoint_ClearIN(void)
 452:LUFA-100807/LUFA/Drivers/USB/Class/Device/../../HighLevel/../LowLevel/Endpoint.h **** 			{
 453:LUFA-100807/LUFA/Drivers/USB/Class/Device/../../HighLevel/../LowLevel/Endpoint.h **** 				#if !defined(CONTROL_ONLY_DEVICE)
 454:LUFA-100807/LUFA/Drivers/USB/Class/Device/../../HighLevel/../LowLevel/Endpoint.h **** 					UEINTX &= ~((1 << TXINI) | (1 << FIFOCON));
 455:LUFA-100807/LUFA/Drivers/USB/Class/Device/../../HighLevel/../LowLevel/Endpoint.h **** 				#else
 456:LUFA-100807/LUFA/Drivers/USB/Class/Device/../../HighLevel/../LowLevel/Endpoint.h **** 					UEINTX &= ~(1 << TXINI);
 457:LUFA-100807/LUFA/Drivers/USB/Class/Device/../../HighLevel/../LowLevel/Endpoint.h **** 				#endif
 458:LUFA-100807/LUFA/Drivers/USB/Class/Device/../../HighLevel/../LowLevel/Endpoint.h **** 			}
 459:LUFA-100807/LUFA/Drivers/USB/Class/Device/../../HighLevel/../LowLevel/Endpoint.h **** 			
 460:LUFA-100807/LUFA/Drivers/USB/Class/Device/../../HighLevel/../LowLevel/Endpoint.h **** 			/** Acknowledges an OUT packet to the host on the currently selected endpoint, freeing up the en
 461:LUFA-100807/LUFA/Drivers/USB/Class/Device/../../HighLevel/../LowLevel/Endpoint.h **** 			 *  for the next packet and switching to the alternative endpoint bank if double banked.
 462:LUFA-100807/LUFA/Drivers/USB/Class/Device/../../HighLevel/../LowLevel/Endpoint.h **** 			 *
 463:LUFA-100807/LUFA/Drivers/USB/Class/Device/../../HighLevel/../LowLevel/Endpoint.h **** 			 *  \ingroup Group_EndpointPacketManagement
 464:LUFA-100807/LUFA/Drivers/USB/Class/Device/../../HighLevel/../LowLevel/Endpoint.h **** 			 */
 465:LUFA-100807/LUFA/Drivers/USB/Class/Device/../../HighLevel/../LowLevel/Endpoint.h **** 			static inline void Endpoint_ClearOUT(void) ATTR_ALWAYS_INLINE;
 466:LUFA-100807/LUFA/Drivers/USB/Class/Device/../../HighLevel/../LowLevel/Endpoint.h **** 			static inline void Endpoint_ClearOUT(void)
 307               		.loc 2 466 23 view .LVU60
 308               	.LBB57:
 467:LUFA-100807/LUFA/Drivers/USB/Class/Device/../../HighLevel/../LowLevel/Endpoint.h **** 			{
 468:LUFA-100807/LUFA/Drivers/USB/Class/Device/../../HighLevel/../LowLevel/Endpoint.h **** 				#if !defined(CONTROL_ONLY_DEVICE)
 469:LUFA-100807/LUFA/Drivers/USB/Class/Device/../../HighLevel/../LowLevel/Endpoint.h **** 					UEINTX &= ~((1 << RXOUTI) | (1 << FIFOCON));
 309               		.loc 2 469 6 view .LVU61
 310               		.loc 2 469 13 is_stmt 0 view .LVU62
 311 014e 8091 E800 		lds r24,232
 312 0152 8B77      		andi r24,lo8(123)
 313 0154 8093 E800 		sts 232,r24
 314               	.LBE57:
 315               	.LBE56:
 316 0158 8E81      		ldd r24,Y+6
 317 015a 9F81      		ldd r25,Y+7
 318 015c 0FB6      		in __tmp_reg__,__SREG__
 319 015e F894      		cli
 320 0160 9EBF      		out __SP_H__,r25
 321 0162 0FBE      		out __SREG__,__tmp_reg__
 322 0164 8DBF      		out __SP_L__,r24
 323 0166 00C0      		rjmp .L1
 324               	.LVL13:
 325               	.L3:
 326               		.loc 2 469 13 view .LVU63
 327               	.LBE51:
  72:LUFA-100807/LUFA/Drivers/USB/Class/Device/HID.c **** 			{
 328               		.loc 1 72 4 is_stmt 1 view .LVU64
  72:LUFA-100807/LUFA/Drivers/USB/Class/Device/HID.c **** 			{
 329               		.loc 1 72 7 is_stmt 0 view .LVU65
 330 0168 8091 0000 		lds r24,USB_ControlRequest
 331 016c 8132      		cpi r24,lo8(33)
 332 016e 01F0      		breq .+2
 333 0170 00C0      		rjmp .L1
 334               	.LBB58:
  74:LUFA-100807/LUFA/Drivers/USB/Class/Device/HID.c **** 				
 335               		.loc 1 74 5 is_stmt 1 view .LVU66
 336               	.LBB59:
 337               	.LBI59:
 440:LUFA-100807/LUFA/Drivers/USB/Class/Device/../../HighLevel/../LowLevel/Endpoint.h **** 			{
 338               		.loc 2 440 23 view .LVU67
 339               	.LBB60:
 442:LUFA-100807/LUFA/Drivers/USB/Class/Device/../../HighLevel/../LowLevel/Endpoint.h **** 			}
 340               		.loc 2 442 5 view .LVU68
 442:LUFA-100807/LUFA/Drivers/USB/Class/Device/../../HighLevel/../LowLevel/Endpoint.h **** 			}
 341               		.loc 2 442 12 is_stmt 0 view .LVU69
 342 0172 8091 E800 		lds r24,232
 343 0176 877F      		andi r24,lo8(-9)
 344 0178 8093 E800 		sts 232,r24
 345               	.LBE60:
 346               	.LBE59:
  76:LUFA-100807/LUFA/Drivers/USB/Class/Device/HID.c **** 				uint8_t  ReportID   = (USB_ControlRequest.wValue & 0xFF);
 347               		.loc 1 76 5 is_stmt 1 view .LVU70
  76:LUFA-100807/LUFA/Drivers/USB/Class/Device/HID.c **** 				uint8_t  ReportID   = (USB_ControlRequest.wValue & 0xFF);
 348               		.loc 1 76 14 is_stmt 0 view .LVU71
 349 017c 0091 0000 		lds r16,USB_ControlRequest+6
 350 0180 1091 0000 		lds r17,USB_ControlRequest+6+1
 351               	.LVL14:
  77:LUFA-100807/LUFA/Drivers/USB/Class/Device/HID.c **** 				uint8_t  ReportType = (USB_ControlRequest.wValue >> 8) - 1;
 352               		.loc 1 77 5 is_stmt 1 view .LVU72
  77:LUFA-100807/LUFA/Drivers/USB/Class/Device/HID.c **** 				uint8_t  ReportType = (USB_ControlRequest.wValue >> 8) - 1;
 353               		.loc 1 77 46 is_stmt 0 view .LVU73
 354 0184 C090 0000 		lds r12,USB_ControlRequest+2
 355 0188 D090 0000 		lds r13,USB_ControlRequest+3
 356               	.LVL15:
  78:LUFA-100807/LUFA/Drivers/USB/Class/Device/HID.c **** 				uint8_t  ReportData[ReportSize];
 357               		.loc 1 78 5 is_stmt 1 view .LVU74
  79:LUFA-100807/LUFA/Drivers/USB/Class/Device/HID.c **** 
 358               		.loc 1 79 5 view .LVU75
  79:LUFA-100807/LUFA/Drivers/USB/Class/Device/HID.c **** 
 359               		.loc 1 79 14 is_stmt 0 view .LVU76
 360 018c EDB7      		in r30,__SP_L__
 361 018e FEB7      		in r31,__SP_H__
 362 0190 E01B      		sub r30,r16
 363 0192 F10B      		sbc r31,r17
 364 0194 0FB6      		in __tmp_reg__,__SREG__
 365 0196 F894      		cli
 366 0198 FEBF      		out __SP_H__,r31
 367 019a 0FBE      		out __SREG__,__tmp_reg__
 368 019c EDBF      		out __SP_L__,r30
 369 019e 8DB7      		in r24,__SP_L__
 370 01a0 9EB7      		in r25,__SP_H__
 371 01a2 0196      		adiw r24,1
 372 01a4 5C01      		movw r10,r24
 373               	.LVL16:
  81:LUFA-100807/LUFA/Drivers/USB/Class/Device/HID.c **** 				CALLBACK_HID_Device_ProcessHIDReport(HIDInterfaceInfo, ReportID, ReportType, ReportData, Report
 374               		.loc 1 81 5 is_stmt 1 view .LVU77
 375 01a6 B801      		movw r22,r16
 376 01a8 0E94 0000 		call Endpoint_Read_Control_Stream_LE
 377               	.LVL17:
  82:LUFA-100807/LUFA/Drivers/USB/Class/Device/HID.c **** 				Endpoint_ClearIN();				
 378               		.loc 1 82 5 view .LVU78
  78:LUFA-100807/LUFA/Drivers/USB/Class/Device/HID.c **** 				uint8_t  ReportData[ReportSize];
 379               		.loc 1 78 14 is_stmt 0 view .LVU79
 380 01ac 4FEF      		ldi r20,lo8(-1)
 381 01ae 4D0D      		add r20,r13
 382               	.LVL18:
  82:LUFA-100807/LUFA/Drivers/USB/Class/Device/HID.c **** 				Endpoint_ClearIN();				
 383               		.loc 1 82 5 view .LVU80
 384 01b0 9501      		movw r18,r10
 385 01b2 6C2D      		mov r22,r12
 386 01b4 C701      		movw r24,r14
 387 01b6 0E94 0000 		call CALLBACK_HID_Device_ProcessHIDReport
 388               	.LVL19:
  83:LUFA-100807/LUFA/Drivers/USB/Class/Device/HID.c **** 			}
 389               		.loc 1 83 5 is_stmt 1 view .LVU81
 390               	.LBB61:
 391               	.LBI61:
 451:LUFA-100807/LUFA/Drivers/USB/Class/Device/../../HighLevel/../LowLevel/Endpoint.h **** 			{
 392               		.loc 2 451 23 view .LVU82
 393               	.LBB62:
 454:LUFA-100807/LUFA/Drivers/USB/Class/Device/../../HighLevel/../LowLevel/Endpoint.h **** 				#else
 394               		.loc 2 454 6 view .LVU83
 454:LUFA-100807/LUFA/Drivers/USB/Class/Device/../../HighLevel/../LowLevel/Endpoint.h **** 				#else
 395               		.loc 2 454 13 is_stmt 0 view .LVU84
 396 01ba 8091 E800 		lds r24,232
 397 01be 8E77      		andi r24,lo8(126)
 398 01c0 8093 E800 		sts 232,r24
 399               	.LBE62:
 400               	.LBE61:
 401 01c4 EC81      		ldd r30,Y+4
 402 01c6 FD81      		ldd r31,Y+5
 403 01c8 0FB6      		in __tmp_reg__,__SREG__
 404 01ca F894      		cli
 405 01cc FEBF      		out __SP_H__,r31
 406 01ce 0FBE      		out __SREG__,__tmp_reg__
 407 01d0 EDBF      		out __SP_L__,r30
 408 01d2 00C0      		rjmp .L1
 409               	.LVL20:
 410               	.L6:
 454:LUFA-100807/LUFA/Drivers/USB/Class/Device/../../HighLevel/../LowLevel/Endpoint.h **** 				#else
 411               		.loc 2 454 13 view .LVU85
 412               	.LBE58:
  88:LUFA-100807/LUFA/Drivers/USB/Class/Device/HID.c **** 			{
 413               		.loc 1 88 4 is_stmt 1 view .LVU86
  88:LUFA-100807/LUFA/Drivers/USB/Class/Device/HID.c **** 			{
 414               		.loc 1 88 7 is_stmt 0 view .LVU87
 415 01d4 8091 0000 		lds r24,USB_ControlRequest
 416 01d8 813A      		cpi r24,lo8(-95)
 417 01da 01F0      		breq .+2
 418 01dc 00C0      		rjmp .L1
  90:LUFA-100807/LUFA/Drivers/USB/Class/Device/HID.c **** 
 419               		.loc 1 90 5 is_stmt 1 view .LVU88
 420               	.LBB63:
 421               	.LBI63:
 440:LUFA-100807/LUFA/Drivers/USB/Class/Device/../../HighLevel/../LowLevel/Endpoint.h **** 			{
 422               		.loc 2 440 23 view .LVU89
 423               	.LBB64:
 442:LUFA-100807/LUFA/Drivers/USB/Class/Device/../../HighLevel/../LowLevel/Endpoint.h **** 			}
 424               		.loc 2 442 5 view .LVU90
 442:LUFA-100807/LUFA/Drivers/USB/Class/Device/../../HighLevel/../LowLevel/Endpoint.h **** 			}
 425               		.loc 2 442 12 is_stmt 0 view .LVU91
 426 01de 8091 E800 		lds r24,232
 427 01e2 877F      		andi r24,lo8(-9)
 428 01e4 8093 E800 		sts 232,r24
 429               	.LBE64:
 430               	.LBE63:
  92:LUFA-100807/LUFA/Drivers/USB/Class/Device/HID.c **** 				Endpoint_ClearIN();
 431               		.loc 1 92 5 is_stmt 1 view .LVU92
 432 01e8 8085      		ldd r24,Z+8
 433               	.LVL21:
 434               	.LBB65:
 435               	.LBI65:
 470:LUFA-100807/LUFA/Drivers/USB/Class/Device/../../HighLevel/../LowLevel/Endpoint.h **** 				#else
 471:LUFA-100807/LUFA/Drivers/USB/Class/Device/../../HighLevel/../LowLevel/Endpoint.h **** 					UEINTX &= ~(1 << RXOUTI);	
 472:LUFA-100807/LUFA/Drivers/USB/Class/Device/../../HighLevel/../LowLevel/Endpoint.h **** 				#endif
 473:LUFA-100807/LUFA/Drivers/USB/Class/Device/../../HighLevel/../LowLevel/Endpoint.h **** 			}
 474:LUFA-100807/LUFA/Drivers/USB/Class/Device/../../HighLevel/../LowLevel/Endpoint.h **** 			
 475:LUFA-100807/LUFA/Drivers/USB/Class/Device/../../HighLevel/../LowLevel/Endpoint.h **** 			/** Stalls the current endpoint, indicating to the host that a logical problem occurred with the
 476:LUFA-100807/LUFA/Drivers/USB/Class/Device/../../HighLevel/../LowLevel/Endpoint.h **** 			 *  indicated endpoint and that the current transfer sequence should be aborted. This provides a
 477:LUFA-100807/LUFA/Drivers/USB/Class/Device/../../HighLevel/../LowLevel/Endpoint.h **** 			 *  way for devices to indicate invalid commands to the host so that the current transfer can be
 478:LUFA-100807/LUFA/Drivers/USB/Class/Device/../../HighLevel/../LowLevel/Endpoint.h **** 			 *  aborted and the host can begin its own recovery sequence.
 479:LUFA-100807/LUFA/Drivers/USB/Class/Device/../../HighLevel/../LowLevel/Endpoint.h **** 			 *
 480:LUFA-100807/LUFA/Drivers/USB/Class/Device/../../HighLevel/../LowLevel/Endpoint.h **** 			 *  The currently selected endpoint remains stalled until either the \ref Endpoint_ClearStall() 
 481:LUFA-100807/LUFA/Drivers/USB/Class/Device/../../HighLevel/../LowLevel/Endpoint.h **** 			 *  is called, or the host issues a CLEAR FEATURE request to the device for the currently select
 482:LUFA-100807/LUFA/Drivers/USB/Class/Device/../../HighLevel/../LowLevel/Endpoint.h **** 			 *  endpoint.
 483:LUFA-100807/LUFA/Drivers/USB/Class/Device/../../HighLevel/../LowLevel/Endpoint.h **** 			 *
 484:LUFA-100807/LUFA/Drivers/USB/Class/Device/../../HighLevel/../LowLevel/Endpoint.h **** 			 *  \ingroup Group_EndpointPacketManagement
 485:LUFA-100807/LUFA/Drivers/USB/Class/Device/../../HighLevel/../LowLevel/Endpoint.h **** 			 */
 486:LUFA-100807/LUFA/Drivers/USB/Class/Device/../../HighLevel/../LowLevel/Endpoint.h **** 			static inline void Endpoint_StallTransaction(void) ATTR_ALWAYS_INLINE;
 487:LUFA-100807/LUFA/Drivers/USB/Class/Device/../../HighLevel/../LowLevel/Endpoint.h **** 			static inline void Endpoint_StallTransaction(void)
 488:LUFA-100807/LUFA/Drivers/USB/Class/Device/../../HighLevel/../LowLevel/Endpoint.h **** 			{
 489:LUFA-100807/LUFA/Drivers/USB/Class/Device/../../HighLevel/../LowLevel/Endpoint.h **** 				UECONX |= (1 << STALLRQ);
 490:LUFA-100807/LUFA/Drivers/USB/Class/Device/../../HighLevel/../LowLevel/Endpoint.h **** 			}
 491:LUFA-100807/LUFA/Drivers/USB/Class/Device/../../HighLevel/../LowLevel/Endpoint.h **** 			
 492:LUFA-100807/LUFA/Drivers/USB/Class/Device/../../HighLevel/../LowLevel/Endpoint.h **** 			/** Clears the STALL condition on the currently selected endpoint.
 493:LUFA-100807/LUFA/Drivers/USB/Class/Device/../../HighLevel/../LowLevel/Endpoint.h **** 			 *
 494:LUFA-100807/LUFA/Drivers/USB/Class/Device/../../HighLevel/../LowLevel/Endpoint.h **** 			 *  \ingroup Group_EndpointPacketManagement
 495:LUFA-100807/LUFA/Drivers/USB/Class/Device/../../HighLevel/../LowLevel/Endpoint.h **** 			 */
 496:LUFA-100807/LUFA/Drivers/USB/Class/Device/../../HighLevel/../LowLevel/Endpoint.h **** 			static inline void Endpoint_ClearStall(void) ATTR_ALWAYS_INLINE;
 497:LUFA-100807/LUFA/Drivers/USB/Class/Device/../../HighLevel/../LowLevel/Endpoint.h **** 			static inline void Endpoint_ClearStall(void)
 498:LUFA-100807/LUFA/Drivers/USB/Class/Device/../../HighLevel/../LowLevel/Endpoint.h **** 			{
 499:LUFA-100807/LUFA/Drivers/USB/Class/Device/../../HighLevel/../LowLevel/Endpoint.h **** 				UECONX |= (1 << STALLRQC);
 500:LUFA-100807/LUFA/Drivers/USB/Class/Device/../../HighLevel/../LowLevel/Endpoint.h **** 			}
 501:LUFA-100807/LUFA/Drivers/USB/Class/Device/../../HighLevel/../LowLevel/Endpoint.h **** 			
 502:LUFA-100807/LUFA/Drivers/USB/Class/Device/../../HighLevel/../LowLevel/Endpoint.h **** 			/** Determines if the currently selected endpoint is stalled, false otherwise.
 503:LUFA-100807/LUFA/Drivers/USB/Class/Device/../../HighLevel/../LowLevel/Endpoint.h **** 			 *
 504:LUFA-100807/LUFA/Drivers/USB/Class/Device/../../HighLevel/../LowLevel/Endpoint.h **** 			 *  \ingroup Group_EndpointPacketManagement
 505:LUFA-100807/LUFA/Drivers/USB/Class/Device/../../HighLevel/../LowLevel/Endpoint.h **** 			 *
 506:LUFA-100807/LUFA/Drivers/USB/Class/Device/../../HighLevel/../LowLevel/Endpoint.h **** 			 *  \return Boolean true if the currently selected endpoint is stalled, false otherwise.
 507:LUFA-100807/LUFA/Drivers/USB/Class/Device/../../HighLevel/../LowLevel/Endpoint.h **** 			 */
 508:LUFA-100807/LUFA/Drivers/USB/Class/Device/../../HighLevel/../LowLevel/Endpoint.h **** 			static inline bool Endpoint_IsStalled(void) ATTR_WARN_UNUSED_RESULT ATTR_ALWAYS_INLINE;
 509:LUFA-100807/LUFA/Drivers/USB/Class/Device/../../HighLevel/../LowLevel/Endpoint.h **** 			static inline bool Endpoint_IsStalled(void)
 510:LUFA-100807/LUFA/Drivers/USB/Class/Device/../../HighLevel/../LowLevel/Endpoint.h **** 			{
 511:LUFA-100807/LUFA/Drivers/USB/Class/Device/../../HighLevel/../LowLevel/Endpoint.h **** 				return ((UECONX & (1 << STALLRQ)) ? true : false);
 512:LUFA-100807/LUFA/Drivers/USB/Class/Device/../../HighLevel/../LowLevel/Endpoint.h **** 			}
 513:LUFA-100807/LUFA/Drivers/USB/Class/Device/../../HighLevel/../LowLevel/Endpoint.h **** 			
 514:LUFA-100807/LUFA/Drivers/USB/Class/Device/../../HighLevel/../LowLevel/Endpoint.h **** 			/** Resets the data toggle of the currently selected endpoint. */
 515:LUFA-100807/LUFA/Drivers/USB/Class/Device/../../HighLevel/../LowLevel/Endpoint.h **** 			static inline void Endpoint_ResetDataToggle(void) ATTR_ALWAYS_INLINE;
 516:LUFA-100807/LUFA/Drivers/USB/Class/Device/../../HighLevel/../LowLevel/Endpoint.h **** 			static inline void Endpoint_ResetDataToggle(void)
 517:LUFA-100807/LUFA/Drivers/USB/Class/Device/../../HighLevel/../LowLevel/Endpoint.h **** 			{
 518:LUFA-100807/LUFA/Drivers/USB/Class/Device/../../HighLevel/../LowLevel/Endpoint.h **** 				UECONX |= (1 << RSTDT);
 519:LUFA-100807/LUFA/Drivers/USB/Class/Device/../../HighLevel/../LowLevel/Endpoint.h **** 			}
 520:LUFA-100807/LUFA/Drivers/USB/Class/Device/../../HighLevel/../LowLevel/Endpoint.h **** 			
 521:LUFA-100807/LUFA/Drivers/USB/Class/Device/../../HighLevel/../LowLevel/Endpoint.h **** 			/** Determines the currently selected endpoint's direction.
 522:LUFA-100807/LUFA/Drivers/USB/Class/Device/../../HighLevel/../LowLevel/Endpoint.h **** 			 *
 523:LUFA-100807/LUFA/Drivers/USB/Class/Device/../../HighLevel/../LowLevel/Endpoint.h **** 			 *  \return The currently selected endpoint's direction, as a ENDPOINT_DIR_* mask.
 524:LUFA-100807/LUFA/Drivers/USB/Class/Device/../../HighLevel/../LowLevel/Endpoint.h **** 			 */
 525:LUFA-100807/LUFA/Drivers/USB/Class/Device/../../HighLevel/../LowLevel/Endpoint.h **** 			static inline uint8_t Endpoint_GetEndpointDirection(void) ATTR_WARN_UNUSED_RESULT ATTR_ALWAYS_IN
 526:LUFA-100807/LUFA/Drivers/USB/Class/Device/../../HighLevel/../LowLevel/Endpoint.h **** 			static inline uint8_t Endpoint_GetEndpointDirection(void)
 527:LUFA-100807/LUFA/Drivers/USB/Class/Device/../../HighLevel/../LowLevel/Endpoint.h **** 			{
 528:LUFA-100807/LUFA/Drivers/USB/Class/Device/../../HighLevel/../LowLevel/Endpoint.h **** 				return (UECFG0X & ENDPOINT_DIR_IN);
 529:LUFA-100807/LUFA/Drivers/USB/Class/Device/../../HighLevel/../LowLevel/Endpoint.h **** 			}
 530:LUFA-100807/LUFA/Drivers/USB/Class/Device/../../HighLevel/../LowLevel/Endpoint.h **** 
 531:LUFA-100807/LUFA/Drivers/USB/Class/Device/../../HighLevel/../LowLevel/Endpoint.h **** 			/** Sets the direction of the currently selected endpoint.
 532:LUFA-100807/LUFA/Drivers/USB/Class/Device/../../HighLevel/../LowLevel/Endpoint.h **** 			 *
 533:LUFA-100807/LUFA/Drivers/USB/Class/Device/../../HighLevel/../LowLevel/Endpoint.h **** 			 *  \param[in] DirectionMask  New endpoint direction, as a ENDPOINT_DIR_* mask.
 534:LUFA-100807/LUFA/Drivers/USB/Class/Device/../../HighLevel/../LowLevel/Endpoint.h **** 			 */
 535:LUFA-100807/LUFA/Drivers/USB/Class/Device/../../HighLevel/../LowLevel/Endpoint.h **** 			static inline void Endpoint_SetEndpointDirection(const uint8_t DirectionMask) ATTR_ALWAYS_INLINE
 536:LUFA-100807/LUFA/Drivers/USB/Class/Device/../../HighLevel/../LowLevel/Endpoint.h **** 			static inline void Endpoint_SetEndpointDirection(const uint8_t DirectionMask)
 537:LUFA-100807/LUFA/Drivers/USB/Class/Device/../../HighLevel/../LowLevel/Endpoint.h **** 			{
 538:LUFA-100807/LUFA/Drivers/USB/Class/Device/../../HighLevel/../LowLevel/Endpoint.h **** 				UECFG0X = ((UECFG0X & ~ENDPOINT_DIR_IN) | DirectionMask);
 539:LUFA-100807/LUFA/Drivers/USB/Class/Device/../../HighLevel/../LowLevel/Endpoint.h **** 			}
 540:LUFA-100807/LUFA/Drivers/USB/Class/Device/../../HighLevel/../LowLevel/Endpoint.h **** 
 541:LUFA-100807/LUFA/Drivers/USB/Class/Device/../../HighLevel/../LowLevel/Endpoint.h **** 			/** Reads one byte from the currently selected endpoint's bank, for OUT direction endpoints.
 542:LUFA-100807/LUFA/Drivers/USB/Class/Device/../../HighLevel/../LowLevel/Endpoint.h **** 			 *
 543:LUFA-100807/LUFA/Drivers/USB/Class/Device/../../HighLevel/../LowLevel/Endpoint.h **** 			 *  \ingroup Group_EndpointPrimitiveRW
 544:LUFA-100807/LUFA/Drivers/USB/Class/Device/../../HighLevel/../LowLevel/Endpoint.h **** 			 *
 545:LUFA-100807/LUFA/Drivers/USB/Class/Device/../../HighLevel/../LowLevel/Endpoint.h **** 			 *  \return Next byte in the currently selected endpoint's FIFO buffer.
 546:LUFA-100807/LUFA/Drivers/USB/Class/Device/../../HighLevel/../LowLevel/Endpoint.h **** 			 */
 547:LUFA-100807/LUFA/Drivers/USB/Class/Device/../../HighLevel/../LowLevel/Endpoint.h **** 			static inline uint8_t Endpoint_Read_Byte(void) ATTR_WARN_UNUSED_RESULT ATTR_ALWAYS_INLINE;
 548:LUFA-100807/LUFA/Drivers/USB/Class/Device/../../HighLevel/../LowLevel/Endpoint.h **** 			static inline uint8_t Endpoint_Read_Byte(void)
 549:LUFA-100807/LUFA/Drivers/USB/Class/Device/../../HighLevel/../LowLevel/Endpoint.h **** 			{
 550:LUFA-100807/LUFA/Drivers/USB/Class/Device/../../HighLevel/../LowLevel/Endpoint.h **** 				return UEDATX;
 551:LUFA-100807/LUFA/Drivers/USB/Class/Device/../../HighLevel/../LowLevel/Endpoint.h **** 			}
 552:LUFA-100807/LUFA/Drivers/USB/Class/Device/../../HighLevel/../LowLevel/Endpoint.h **** 
 553:LUFA-100807/LUFA/Drivers/USB/Class/Device/../../HighLevel/../LowLevel/Endpoint.h **** 			/** Writes one byte from the currently selected endpoint's bank, for IN direction endpoints.
 554:LUFA-100807/LUFA/Drivers/USB/Class/Device/../../HighLevel/../LowLevel/Endpoint.h **** 			 *
 555:LUFA-100807/LUFA/Drivers/USB/Class/Device/../../HighLevel/../LowLevel/Endpoint.h **** 			 *  \ingroup Group_EndpointPrimitiveRW
 556:LUFA-100807/LUFA/Drivers/USB/Class/Device/../../HighLevel/../LowLevel/Endpoint.h **** 			 *
 557:LUFA-100807/LUFA/Drivers/USB/Class/Device/../../HighLevel/../LowLevel/Endpoint.h **** 			 *  \param[in] Byte  Next byte to write into the the currently selected endpoint's FIFO buffer.
 558:LUFA-100807/LUFA/Drivers/USB/Class/Device/../../HighLevel/../LowLevel/Endpoint.h **** 			 */
 559:LUFA-100807/LUFA/Drivers/USB/Class/Device/../../HighLevel/../LowLevel/Endpoint.h **** 			static inline void Endpoint_Write_Byte(const uint8_t Byte) ATTR_ALWAYS_INLINE;
 560:LUFA-100807/LUFA/Drivers/USB/Class/Device/../../HighLevel/../LowLevel/Endpoint.h **** 			static inline void Endpoint_Write_Byte(const uint8_t Byte)
 436               		.loc 2 560 23 view .LVU93
 437               	.LBB66:
 561:LUFA-100807/LUFA/Drivers/USB/Class/Device/../../HighLevel/../LowLevel/Endpoint.h **** 			{
 562:LUFA-100807/LUFA/Drivers/USB/Class/Device/../../HighLevel/../LowLevel/Endpoint.h **** 				UEDATX = Byte;
 438               		.loc 2 562 5 view .LVU94
 439               	.L18:
 440               		.loc 2 562 5 is_stmt 0 view .LVU95
 441               	.LBE66:
 442               	.LBE65:
 443               	.LBB67:
 444               	.LBI67:
 560:LUFA-100807/LUFA/Drivers/USB/Class/Device/../../HighLevel/../LowLevel/Endpoint.h **** 			{
 445               		.loc 2 560 23 is_stmt 1 view .LVU96
 446               	.LBB68:
 447               		.loc 2 562 5 view .LVU97
 448               		.loc 2 562 12 is_stmt 0 view .LVU98
 449 01ea 8093 F100 		sts 241,r24
 450               	.LVL22:
 451               		.loc 2 562 12 view .LVU99
 452               	.LBE68:
 453               	.LBE67:
 127:LUFA-100807/LUFA/Drivers/USB/Class/Device/HID.c **** 
 454               		.loc 1 127 5 is_stmt 1 view .LVU100
 455               	.LBB69:
 456               	.LBI69:
 451:LUFA-100807/LUFA/Drivers/USB/Class/Device/../../HighLevel/../LowLevel/Endpoint.h **** 			{
 457               		.loc 2 451 23 view .LVU101
 458               	.LBB70:
 454:LUFA-100807/LUFA/Drivers/USB/Class/Device/../../HighLevel/../LowLevel/Endpoint.h **** 				#else
 459               		.loc 2 454 6 view .LVU102
 454:LUFA-100807/LUFA/Drivers/USB/Class/Device/../../HighLevel/../LowLevel/Endpoint.h **** 				#else
 460               		.loc 2 454 13 is_stmt 0 view .LVU103
 461 01ee 8091 E800 		lds r24,232
 462 01f2 8E77      		andi r24,lo8(126)
 463 01f4 8093 E800 		sts 232,r24
 464 01f8 00C0      		rjmp .L19
 465               	.L8:
 466               	.LBE70:
 467               	.LBE69:
 111:LUFA-100807/LUFA/Drivers/USB/Class/Device/HID.c **** 			{
 468               		.loc 1 111 4 is_stmt 1 view .LVU104
 111:LUFA-100807/LUFA/Drivers/USB/Class/Device/HID.c **** 			{
 469               		.loc 1 111 7 is_stmt 0 view .LVU105
 470 01fa 8091 0000 		lds r24,USB_ControlRequest
 471 01fe 8132      		cpi r24,lo8(33)
 472 0200 01F0      		breq .+2
 473 0202 00C0      		rjmp .L1
 113:LUFA-100807/LUFA/Drivers/USB/Class/Device/HID.c **** 					
 474               		.loc 1 113 5 is_stmt 1 view .LVU106
 475               	.LBB71:
 476               	.LBI71:
 440:LUFA-100807/LUFA/Drivers/USB/Class/Device/../../HighLevel/../LowLevel/Endpoint.h **** 			{
 477               		.loc 2 440 23 view .LVU107
 478               	.LBB72:
 442:LUFA-100807/LUFA/Drivers/USB/Class/Device/../../HighLevel/../LowLevel/Endpoint.h **** 			}
 479               		.loc 2 442 5 view .LVU108
 442:LUFA-100807/LUFA/Drivers/USB/Class/Device/../../HighLevel/../LowLevel/Endpoint.h **** 			}
 480               		.loc 2 442 12 is_stmt 0 view .LVU109
 481 0204 8091 E800 		lds r24,232
 482 0208 877F      		andi r24,lo8(-9)
 483 020a 8093 E800 		sts 232,r24
 484               	.LBE72:
 485               	.LBE71:
 115:LUFA-100807/LUFA/Drivers/USB/Class/Device/HID.c **** 					
 486               		.loc 1 115 5 is_stmt 1 view .LVU110
 115:LUFA-100807/LUFA/Drivers/USB/Class/Device/HID.c **** 					
 487               		.loc 1 115 79 is_stmt 0 view .LVU111
 488 020e 8091 0000 		lds r24,USB_ControlRequest+2
 489 0212 9091 0000 		lds r25,USB_ControlRequest+2+1
 490 0216 36E0      		ldi r19,6
 491               		1:
 492 0218 9695      		lsr r25
 493 021a 8795      		ror r24
 494 021c 3A95      		dec r19
 495 021e 01F4      		brne 1b
 496 0220 8C7F      		andi r24,252
 497 0222 9370      		andi r25,3
 115:LUFA-100807/LUFA/Drivers/USB/Class/Device/HID.c **** 					
 498               		.loc 1 115 39 view .LVU112
 499 0224 9287      		std Z+10,r25
 500 0226 8187      		std Z+9,r24
 117:LUFA-100807/LUFA/Drivers/USB/Class/Device/HID.c **** 			}
 501               		.loc 1 117 5 is_stmt 1 view .LVU113
 502 0228 00C0      		rjmp .L19
 503               	.L5:
 122:LUFA-100807/LUFA/Drivers/USB/Class/Device/HID.c **** 			{		
 504               		.loc 1 122 4 view .LVU114
 122:LUFA-100807/LUFA/Drivers/USB/Class/Device/HID.c **** 			{		
 505               		.loc 1 122 7 is_stmt 0 view .LVU115
 506 022a 8091 0000 		lds r24,USB_ControlRequest
 507 022e 813A      		cpi r24,lo8(-95)
 508 0230 01F0      		breq .+2
 509 0232 00C0      		rjmp .L1
 124:LUFA-100807/LUFA/Drivers/USB/Class/Device/HID.c **** 				
 510               		.loc 1 124 5 is_stmt 1 view .LVU116
 511               	.LBB73:
 512               	.LBI73:
 440:LUFA-100807/LUFA/Drivers/USB/Class/Device/../../HighLevel/../LowLevel/Endpoint.h **** 			{
 513               		.loc 2 440 23 view .LVU117
 514               	.LBB74:
 442:LUFA-100807/LUFA/Drivers/USB/Class/Device/../../HighLevel/../LowLevel/Endpoint.h **** 			}
 515               		.loc 2 442 5 view .LVU118
 442:LUFA-100807/LUFA/Drivers/USB/Class/Device/../../HighLevel/../LowLevel/Endpoint.h **** 			}
 516               		.loc 2 442 12 is_stmt 0 view .LVU119
 517 0234 8091 E800 		lds r24,232
 518 0238 877F      		andi r24,lo8(-9)
 519 023a 8093 E800 		sts 232,r24
 520               	.LBE74:
 521               	.LBE73:
 126:LUFA-100807/LUFA/Drivers/USB/Class/Device/HID.c **** 				Endpoint_ClearIN();
 522               		.loc 1 126 5 is_stmt 1 view .LVU120
 126:LUFA-100807/LUFA/Drivers/USB/Class/Device/HID.c **** 				Endpoint_ClearIN();
 523               		.loc 1 126 59 is_stmt 0 view .LVU121
 524 023e 8185      		ldd r24,Z+9
 525 0240 9285      		ldd r25,Z+10
 526 0242 9695      		lsr r25
 527 0244 8795      		ror r24
 528 0246 9695      		lsr r25
 529 0248 8795      		ror r24
 530 024a 00C0      		rjmp .L18
 531               		.cfi_endproc
 532               	.LFE66:
 534               		.section	.text.HID_Device_ConfigureEndpoints,"ax",@progbits
 535               	.global	HID_Device_ConfigureEndpoints
 537               	HID_Device_ConfigureEndpoints:
 538               	.LVL23:
 539               	.LFB67:
 135:LUFA-100807/LUFA/Drivers/USB/Class/Device/HID.c **** 
 136:LUFA-100807/LUFA/Drivers/USB/Class/Device/HID.c **** bool HID_Device_ConfigureEndpoints(USB_ClassInfo_HID_Device_t* const HIDInterfaceInfo)
 137:LUFA-100807/LUFA/Drivers/USB/Class/Device/HID.c **** {
 540               		.loc 1 137 1 is_stmt 1 view -0
 541               		.cfi_startproc
 542               		.loc 1 137 1 is_stmt 0 view .LVU123
 543 0000 CF93      		push r28
 544               	.LCFI12:
 545               		.cfi_def_cfa_offset 3
 546               		.cfi_offset 28, -2
 547 0002 DF93      		push r29
 548               	.LCFI13:
 549               		.cfi_def_cfa_offset 4
 550               		.cfi_offset 29, -3
 551               	/* prologue: function */
 552               	/* frame size = 0 */
 553               	/* stack size = 2 */
 554               	.L__stack_usage = 2
 555 0004 FC01      		movw r30,r24
 138:LUFA-100807/LUFA/Drivers/USB/Class/Device/HID.c **** 	memset(&HIDInterfaceInfo->State, 0x00, sizeof(HIDInterfaceInfo->State));
 556               		.loc 1 138 2 is_stmt 1 view .LVU124
 557 0006 1486      		std Z+12,__zero_reg__
 558 0008 1386      		std Z+11,__zero_reg__
 139:LUFA-100807/LUFA/Drivers/USB/Class/Device/HID.c **** 	HIDInterfaceInfo->State.UsingReportProtocol = true;
 559               		.loc 1 139 2 view .LVU125
 560               		.loc 1 139 46 is_stmt 0 view .LVU126
 561 000a 81E0      		ldi r24,lo8(1)
 562               	.LVL24:
 563               		.loc 1 139 46 view .LVU127
 564 000c 8087      		std Z+8,r24
 140:LUFA-100807/LUFA/Drivers/USB/Class/Device/HID.c **** 	HIDInterfaceInfo->State.IdleCount = 500;
 565               		.loc 1 140 2 is_stmt 1 view .LVU128
 566               		.loc 1 140 36 is_stmt 0 view .LVU129
 567 000e 84EF      		ldi r24,lo8(-12)
 568 0010 91E0      		ldi r25,lo8(1)
 569 0012 9287      		std Z+10,r25
 570 0014 8187      		std Z+9,r24
 141:LUFA-100807/LUFA/Drivers/USB/Class/Device/HID.c **** 
 142:LUFA-100807/LUFA/Drivers/USB/Class/Device/HID.c **** 	if (!(Endpoint_ConfigureEndpoint(HIDInterfaceInfo->Config.ReportINEndpointNumber, EP_TYPE_INTERRUP
 571               		.loc 1 142 2 is_stmt 1 view .LVU130
 572               		.loc 1 142 8 is_stmt 0 view .LVU131
 573 0016 8281      		ldd r24,Z+2
 574 0018 9381      		ldd r25,Z+3
 575 001a 2481      		ldd r18,Z+4
 576 001c C0E0      		ldi r28,0
 577 001e 2111      		cpse r18,__zero_reg__
 578 0020 C4E0      		ldi r28,lo8(4)
 579               	.L21:
 580               		.loc 1 142 8 discriminator 11 view .LVU132
 581 0022 D181      		ldd r29,Z+1
 582               	.LVL25:
 583               	.LBB81:
 584               	.LBI81:
 563:LUFA-100807/LUFA/Drivers/USB/Class/Device/../../HighLevel/../LowLevel/Endpoint.h **** 			}
 564:LUFA-100807/LUFA/Drivers/USB/Class/Device/../../HighLevel/../LowLevel/Endpoint.h **** 
 565:LUFA-100807/LUFA/Drivers/USB/Class/Device/../../HighLevel/../LowLevel/Endpoint.h **** 			/** Discards one byte from the currently selected endpoint's bank, for OUT direction endpoints.
 566:LUFA-100807/LUFA/Drivers/USB/Class/Device/../../HighLevel/../LowLevel/Endpoint.h **** 			 *
 567:LUFA-100807/LUFA/Drivers/USB/Class/Device/../../HighLevel/../LowLevel/Endpoint.h **** 			 *  \ingroup Group_EndpointPrimitiveRW
 568:LUFA-100807/LUFA/Drivers/USB/Class/Device/../../HighLevel/../LowLevel/Endpoint.h **** 			 */
 569:LUFA-100807/LUFA/Drivers/USB/Class/Device/../../HighLevel/../LowLevel/Endpoint.h **** 			static inline void Endpoint_Discard_Byte(void) ATTR_ALWAYS_INLINE;
 570:LUFA-100807/LUFA/Drivers/USB/Class/Device/../../HighLevel/../LowLevel/Endpoint.h **** 			static inline void Endpoint_Discard_Byte(void)
 571:LUFA-100807/LUFA/Drivers/USB/Class/Device/../../HighLevel/../LowLevel/Endpoint.h **** 			{
 572:LUFA-100807/LUFA/Drivers/USB/Class/Device/../../HighLevel/../LowLevel/Endpoint.h **** 				uint8_t Dummy;
 573:LUFA-100807/LUFA/Drivers/USB/Class/Device/../../HighLevel/../LowLevel/Endpoint.h **** 				
 574:LUFA-100807/LUFA/Drivers/USB/Class/Device/../../HighLevel/../LowLevel/Endpoint.h **** 				Dummy = UEDATX;
 575:LUFA-100807/LUFA/Drivers/USB/Class/Device/../../HighLevel/../LowLevel/Endpoint.h **** 			}
 576:LUFA-100807/LUFA/Drivers/USB/Class/Device/../../HighLevel/../LowLevel/Endpoint.h **** 			
 577:LUFA-100807/LUFA/Drivers/USB/Class/Device/../../HighLevel/../LowLevel/Endpoint.h **** 			/** Reads two bytes from the currently selected endpoint's bank in little endian format, for OUT
 578:LUFA-100807/LUFA/Drivers/USB/Class/Device/../../HighLevel/../LowLevel/Endpoint.h **** 			 *  direction endpoints.
 579:LUFA-100807/LUFA/Drivers/USB/Class/Device/../../HighLevel/../LowLevel/Endpoint.h **** 			 *
 580:LUFA-100807/LUFA/Drivers/USB/Class/Device/../../HighLevel/../LowLevel/Endpoint.h **** 			 *  \ingroup Group_EndpointPrimitiveRW
 581:LUFA-100807/LUFA/Drivers/USB/Class/Device/../../HighLevel/../LowLevel/Endpoint.h **** 			 *
 582:LUFA-100807/LUFA/Drivers/USB/Class/Device/../../HighLevel/../LowLevel/Endpoint.h **** 			 *  \return Next word in the currently selected endpoint's FIFO buffer.
 583:LUFA-100807/LUFA/Drivers/USB/Class/Device/../../HighLevel/../LowLevel/Endpoint.h **** 			 */
 584:LUFA-100807/LUFA/Drivers/USB/Class/Device/../../HighLevel/../LowLevel/Endpoint.h **** 			static inline uint16_t Endpoint_Read_Word_LE(void) ATTR_WARN_UNUSED_RESULT ATTR_ALWAYS_INLINE;
 585:LUFA-100807/LUFA/Drivers/USB/Class/Device/../../HighLevel/../LowLevel/Endpoint.h **** 			static inline uint16_t Endpoint_Read_Word_LE(void)
 586:LUFA-100807/LUFA/Drivers/USB/Class/Device/../../HighLevel/../LowLevel/Endpoint.h **** 			{
 587:LUFA-100807/LUFA/Drivers/USB/Class/Device/../../HighLevel/../LowLevel/Endpoint.h **** 				union
 588:LUFA-100807/LUFA/Drivers/USB/Class/Device/../../HighLevel/../LowLevel/Endpoint.h **** 				{
 589:LUFA-100807/LUFA/Drivers/USB/Class/Device/../../HighLevel/../LowLevel/Endpoint.h **** 					uint16_t Word;
 590:LUFA-100807/LUFA/Drivers/USB/Class/Device/../../HighLevel/../LowLevel/Endpoint.h **** 					uint8_t  Bytes[2];
 591:LUFA-100807/LUFA/Drivers/USB/Class/Device/../../HighLevel/../LowLevel/Endpoint.h **** 				} Data;
 592:LUFA-100807/LUFA/Drivers/USB/Class/Device/../../HighLevel/../LowLevel/Endpoint.h **** 				
 593:LUFA-100807/LUFA/Drivers/USB/Class/Device/../../HighLevel/../LowLevel/Endpoint.h **** 				Data.Bytes[0] = UEDATX;
 594:LUFA-100807/LUFA/Drivers/USB/Class/Device/../../HighLevel/../LowLevel/Endpoint.h **** 				Data.Bytes[1] = UEDATX;
 595:LUFA-100807/LUFA/Drivers/USB/Class/Device/../../HighLevel/../LowLevel/Endpoint.h **** 			
 596:LUFA-100807/LUFA/Drivers/USB/Class/Device/../../HighLevel/../LowLevel/Endpoint.h **** 				return Data.Word;
 597:LUFA-100807/LUFA/Drivers/USB/Class/Device/../../HighLevel/../LowLevel/Endpoint.h **** 			}
 598:LUFA-100807/LUFA/Drivers/USB/Class/Device/../../HighLevel/../LowLevel/Endpoint.h **** 
 599:LUFA-100807/LUFA/Drivers/USB/Class/Device/../../HighLevel/../LowLevel/Endpoint.h **** 			/** Reads two bytes from the currently selected endpoint's bank in big endian format, for OUT
 600:LUFA-100807/LUFA/Drivers/USB/Class/Device/../../HighLevel/../LowLevel/Endpoint.h **** 			 *  direction endpoints.
 601:LUFA-100807/LUFA/Drivers/USB/Class/Device/../../HighLevel/../LowLevel/Endpoint.h **** 			 *
 602:LUFA-100807/LUFA/Drivers/USB/Class/Device/../../HighLevel/../LowLevel/Endpoint.h **** 			 *  \ingroup Group_EndpointPrimitiveRW
 603:LUFA-100807/LUFA/Drivers/USB/Class/Device/../../HighLevel/../LowLevel/Endpoint.h **** 			 *
 604:LUFA-100807/LUFA/Drivers/USB/Class/Device/../../HighLevel/../LowLevel/Endpoint.h **** 			 *  \return Next word in the currently selected endpoint's FIFO buffer.
 605:LUFA-100807/LUFA/Drivers/USB/Class/Device/../../HighLevel/../LowLevel/Endpoint.h **** 			 */
 606:LUFA-100807/LUFA/Drivers/USB/Class/Device/../../HighLevel/../LowLevel/Endpoint.h **** 			static inline uint16_t Endpoint_Read_Word_BE(void) ATTR_WARN_UNUSED_RESULT ATTR_ALWAYS_INLINE;
 607:LUFA-100807/LUFA/Drivers/USB/Class/Device/../../HighLevel/../LowLevel/Endpoint.h **** 			static inline uint16_t Endpoint_Read_Word_BE(void)
 608:LUFA-100807/LUFA/Drivers/USB/Class/Device/../../HighLevel/../LowLevel/Endpoint.h **** 			{
 609:LUFA-100807/LUFA/Drivers/USB/Class/Device/../../HighLevel/../LowLevel/Endpoint.h **** 				union
 610:LUFA-100807/LUFA/Drivers/USB/Class/Device/../../HighLevel/../LowLevel/Endpoint.h **** 				{
 611:LUFA-100807/LUFA/Drivers/USB/Class/Device/../../HighLevel/../LowLevel/Endpoint.h **** 					uint16_t Word;
 612:LUFA-100807/LUFA/Drivers/USB/Class/Device/../../HighLevel/../LowLevel/Endpoint.h **** 					uint8_t  Bytes[2];
 613:LUFA-100807/LUFA/Drivers/USB/Class/Device/../../HighLevel/../LowLevel/Endpoint.h **** 				} Data;
 614:LUFA-100807/LUFA/Drivers/USB/Class/Device/../../HighLevel/../LowLevel/Endpoint.h **** 				
 615:LUFA-100807/LUFA/Drivers/USB/Class/Device/../../HighLevel/../LowLevel/Endpoint.h **** 				Data.Bytes[1] = UEDATX;
 616:LUFA-100807/LUFA/Drivers/USB/Class/Device/../../HighLevel/../LowLevel/Endpoint.h **** 				Data.Bytes[0] = UEDATX;
 617:LUFA-100807/LUFA/Drivers/USB/Class/Device/../../HighLevel/../LowLevel/Endpoint.h **** 			
 618:LUFA-100807/LUFA/Drivers/USB/Class/Device/../../HighLevel/../LowLevel/Endpoint.h **** 				return Data.Word;
 619:LUFA-100807/LUFA/Drivers/USB/Class/Device/../../HighLevel/../LowLevel/Endpoint.h **** 			}
 620:LUFA-100807/LUFA/Drivers/USB/Class/Device/../../HighLevel/../LowLevel/Endpoint.h **** 
 621:LUFA-100807/LUFA/Drivers/USB/Class/Device/../../HighLevel/../LowLevel/Endpoint.h **** 			/** Writes two bytes to the currently selected endpoint's bank in little endian format, for IN
 622:LUFA-100807/LUFA/Drivers/USB/Class/Device/../../HighLevel/../LowLevel/Endpoint.h **** 			 *  direction endpoints.
 623:LUFA-100807/LUFA/Drivers/USB/Class/Device/../../HighLevel/../LowLevel/Endpoint.h **** 			 *
 624:LUFA-100807/LUFA/Drivers/USB/Class/Device/../../HighLevel/../LowLevel/Endpoint.h **** 			 *  \ingroup Group_EndpointPrimitiveRW
 625:LUFA-100807/LUFA/Drivers/USB/Class/Device/../../HighLevel/../LowLevel/Endpoint.h **** 			 *
 626:LUFA-100807/LUFA/Drivers/USB/Class/Device/../../HighLevel/../LowLevel/Endpoint.h **** 			 *  \param[in] Word  Next word to write to the currently selected endpoint's FIFO buffer.
 627:LUFA-100807/LUFA/Drivers/USB/Class/Device/../../HighLevel/../LowLevel/Endpoint.h **** 			 */
 628:LUFA-100807/LUFA/Drivers/USB/Class/Device/../../HighLevel/../LowLevel/Endpoint.h **** 			static inline void Endpoint_Write_Word_LE(const uint16_t Word) ATTR_ALWAYS_INLINE;
 629:LUFA-100807/LUFA/Drivers/USB/Class/Device/../../HighLevel/../LowLevel/Endpoint.h **** 			static inline void Endpoint_Write_Word_LE(const uint16_t Word)
 630:LUFA-100807/LUFA/Drivers/USB/Class/Device/../../HighLevel/../LowLevel/Endpoint.h **** 			{
 631:LUFA-100807/LUFA/Drivers/USB/Class/Device/../../HighLevel/../LowLevel/Endpoint.h **** 				UEDATX = (Word & 0xFF);
 632:LUFA-100807/LUFA/Drivers/USB/Class/Device/../../HighLevel/../LowLevel/Endpoint.h **** 				UEDATX = (Word >> 8);
 633:LUFA-100807/LUFA/Drivers/USB/Class/Device/../../HighLevel/../LowLevel/Endpoint.h **** 			}
 634:LUFA-100807/LUFA/Drivers/USB/Class/Device/../../HighLevel/../LowLevel/Endpoint.h **** 			
 635:LUFA-100807/LUFA/Drivers/USB/Class/Device/../../HighLevel/../LowLevel/Endpoint.h **** 			/** Writes two bytes to the currently selected endpoint's bank in big endian format, for IN
 636:LUFA-100807/LUFA/Drivers/USB/Class/Device/../../HighLevel/../LowLevel/Endpoint.h **** 			 *  direction endpoints.
 637:LUFA-100807/LUFA/Drivers/USB/Class/Device/../../HighLevel/../LowLevel/Endpoint.h **** 			 *
 638:LUFA-100807/LUFA/Drivers/USB/Class/Device/../../HighLevel/../LowLevel/Endpoint.h **** 			 *  \ingroup Group_EndpointPrimitiveRW
 639:LUFA-100807/LUFA/Drivers/USB/Class/Device/../../HighLevel/../LowLevel/Endpoint.h **** 			 *
 640:LUFA-100807/LUFA/Drivers/USB/Class/Device/../../HighLevel/../LowLevel/Endpoint.h **** 			 *  \param[in] Word  Next word to write to the currently selected endpoint's FIFO buffer.
 641:LUFA-100807/LUFA/Drivers/USB/Class/Device/../../HighLevel/../LowLevel/Endpoint.h **** 			 */
 642:LUFA-100807/LUFA/Drivers/USB/Class/Device/../../HighLevel/../LowLevel/Endpoint.h **** 			static inline void Endpoint_Write_Word_BE(const uint16_t Word) ATTR_ALWAYS_INLINE;
 643:LUFA-100807/LUFA/Drivers/USB/Class/Device/../../HighLevel/../LowLevel/Endpoint.h **** 			static inline void Endpoint_Write_Word_BE(const uint16_t Word)
 644:LUFA-100807/LUFA/Drivers/USB/Class/Device/../../HighLevel/../LowLevel/Endpoint.h **** 			{
 645:LUFA-100807/LUFA/Drivers/USB/Class/Device/../../HighLevel/../LowLevel/Endpoint.h **** 				UEDATX = (Word >> 8);
 646:LUFA-100807/LUFA/Drivers/USB/Class/Device/../../HighLevel/../LowLevel/Endpoint.h **** 				UEDATX = (Word & 0xFF);
 647:LUFA-100807/LUFA/Drivers/USB/Class/Device/../../HighLevel/../LowLevel/Endpoint.h **** 			}
 648:LUFA-100807/LUFA/Drivers/USB/Class/Device/../../HighLevel/../LowLevel/Endpoint.h **** 
 649:LUFA-100807/LUFA/Drivers/USB/Class/Device/../../HighLevel/../LowLevel/Endpoint.h **** 			/** Discards two bytes from the currently selected endpoint's bank, for OUT direction endpoints.
 650:LUFA-100807/LUFA/Drivers/USB/Class/Device/../../HighLevel/../LowLevel/Endpoint.h **** 			 *
 651:LUFA-100807/LUFA/Drivers/USB/Class/Device/../../HighLevel/../LowLevel/Endpoint.h **** 			 *  \ingroup Group_EndpointPrimitiveRW
 652:LUFA-100807/LUFA/Drivers/USB/Class/Device/../../HighLevel/../LowLevel/Endpoint.h **** 			 */
 653:LUFA-100807/LUFA/Drivers/USB/Class/Device/../../HighLevel/../LowLevel/Endpoint.h **** 			static inline void Endpoint_Discard_Word(void) ATTR_ALWAYS_INLINE;
 654:LUFA-100807/LUFA/Drivers/USB/Class/Device/../../HighLevel/../LowLevel/Endpoint.h **** 			static inline void Endpoint_Discard_Word(void)
 655:LUFA-100807/LUFA/Drivers/USB/Class/Device/../../HighLevel/../LowLevel/Endpoint.h **** 			{
 656:LUFA-100807/LUFA/Drivers/USB/Class/Device/../../HighLevel/../LowLevel/Endpoint.h **** 				uint8_t Dummy;
 657:LUFA-100807/LUFA/Drivers/USB/Class/Device/../../HighLevel/../LowLevel/Endpoint.h **** 				
 658:LUFA-100807/LUFA/Drivers/USB/Class/Device/../../HighLevel/../LowLevel/Endpoint.h **** 				Dummy = UEDATX;
 659:LUFA-100807/LUFA/Drivers/USB/Class/Device/../../HighLevel/../LowLevel/Endpoint.h **** 				Dummy = UEDATX;
 660:LUFA-100807/LUFA/Drivers/USB/Class/Device/../../HighLevel/../LowLevel/Endpoint.h **** 			}
 661:LUFA-100807/LUFA/Drivers/USB/Class/Device/../../HighLevel/../LowLevel/Endpoint.h **** 
 662:LUFA-100807/LUFA/Drivers/USB/Class/Device/../../HighLevel/../LowLevel/Endpoint.h **** 			/** Reads four bytes from the currently selected endpoint's bank in little endian format, for OU
 663:LUFA-100807/LUFA/Drivers/USB/Class/Device/../../HighLevel/../LowLevel/Endpoint.h **** 			 *  direction endpoints.
 664:LUFA-100807/LUFA/Drivers/USB/Class/Device/../../HighLevel/../LowLevel/Endpoint.h **** 			 *
 665:LUFA-100807/LUFA/Drivers/USB/Class/Device/../../HighLevel/../LowLevel/Endpoint.h **** 			 *  \ingroup Group_EndpointPrimitiveRW
 666:LUFA-100807/LUFA/Drivers/USB/Class/Device/../../HighLevel/../LowLevel/Endpoint.h **** 			 *
 667:LUFA-100807/LUFA/Drivers/USB/Class/Device/../../HighLevel/../LowLevel/Endpoint.h **** 			 *  \return Next double word in the currently selected endpoint's FIFO buffer.
 668:LUFA-100807/LUFA/Drivers/USB/Class/Device/../../HighLevel/../LowLevel/Endpoint.h **** 			 */
 669:LUFA-100807/LUFA/Drivers/USB/Class/Device/../../HighLevel/../LowLevel/Endpoint.h **** 			static inline uint32_t Endpoint_Read_DWord_LE(void) ATTR_WARN_UNUSED_RESULT ATTR_ALWAYS_INLINE;
 670:LUFA-100807/LUFA/Drivers/USB/Class/Device/../../HighLevel/../LowLevel/Endpoint.h **** 			static inline uint32_t Endpoint_Read_DWord_LE(void)
 671:LUFA-100807/LUFA/Drivers/USB/Class/Device/../../HighLevel/../LowLevel/Endpoint.h **** 			{
 672:LUFA-100807/LUFA/Drivers/USB/Class/Device/../../HighLevel/../LowLevel/Endpoint.h **** 				union
 673:LUFA-100807/LUFA/Drivers/USB/Class/Device/../../HighLevel/../LowLevel/Endpoint.h **** 				{
 674:LUFA-100807/LUFA/Drivers/USB/Class/Device/../../HighLevel/../LowLevel/Endpoint.h **** 					uint32_t DWord;
 675:LUFA-100807/LUFA/Drivers/USB/Class/Device/../../HighLevel/../LowLevel/Endpoint.h **** 					uint8_t  Bytes[4];
 676:LUFA-100807/LUFA/Drivers/USB/Class/Device/../../HighLevel/../LowLevel/Endpoint.h **** 				} Data;
 677:LUFA-100807/LUFA/Drivers/USB/Class/Device/../../HighLevel/../LowLevel/Endpoint.h **** 				
 678:LUFA-100807/LUFA/Drivers/USB/Class/Device/../../HighLevel/../LowLevel/Endpoint.h **** 				Data.Bytes[0] = UEDATX;
 679:LUFA-100807/LUFA/Drivers/USB/Class/Device/../../HighLevel/../LowLevel/Endpoint.h **** 				Data.Bytes[1] = UEDATX;
 680:LUFA-100807/LUFA/Drivers/USB/Class/Device/../../HighLevel/../LowLevel/Endpoint.h **** 				Data.Bytes[2] = UEDATX;
 681:LUFA-100807/LUFA/Drivers/USB/Class/Device/../../HighLevel/../LowLevel/Endpoint.h **** 				Data.Bytes[3] = UEDATX;
 682:LUFA-100807/LUFA/Drivers/USB/Class/Device/../../HighLevel/../LowLevel/Endpoint.h **** 			
 683:LUFA-100807/LUFA/Drivers/USB/Class/Device/../../HighLevel/../LowLevel/Endpoint.h **** 				return Data.DWord;
 684:LUFA-100807/LUFA/Drivers/USB/Class/Device/../../HighLevel/../LowLevel/Endpoint.h **** 			}
 685:LUFA-100807/LUFA/Drivers/USB/Class/Device/../../HighLevel/../LowLevel/Endpoint.h **** 
 686:LUFA-100807/LUFA/Drivers/USB/Class/Device/../../HighLevel/../LowLevel/Endpoint.h **** 			/** Reads four bytes from the currently selected endpoint's bank in big endian format, for OUT
 687:LUFA-100807/LUFA/Drivers/USB/Class/Device/../../HighLevel/../LowLevel/Endpoint.h **** 			 *  direction endpoints.
 688:LUFA-100807/LUFA/Drivers/USB/Class/Device/../../HighLevel/../LowLevel/Endpoint.h **** 			 *
 689:LUFA-100807/LUFA/Drivers/USB/Class/Device/../../HighLevel/../LowLevel/Endpoint.h **** 			 *  \ingroup Group_EndpointPrimitiveRW
 690:LUFA-100807/LUFA/Drivers/USB/Class/Device/../../HighLevel/../LowLevel/Endpoint.h **** 			 *
 691:LUFA-100807/LUFA/Drivers/USB/Class/Device/../../HighLevel/../LowLevel/Endpoint.h **** 			 *  \return Next double word in the currently selected endpoint's FIFO buffer.
 692:LUFA-100807/LUFA/Drivers/USB/Class/Device/../../HighLevel/../LowLevel/Endpoint.h **** 			 */
 693:LUFA-100807/LUFA/Drivers/USB/Class/Device/../../HighLevel/../LowLevel/Endpoint.h **** 			static inline uint32_t Endpoint_Read_DWord_BE(void) ATTR_WARN_UNUSED_RESULT ATTR_ALWAYS_INLINE;
 694:LUFA-100807/LUFA/Drivers/USB/Class/Device/../../HighLevel/../LowLevel/Endpoint.h **** 			static inline uint32_t Endpoint_Read_DWord_BE(void)
 695:LUFA-100807/LUFA/Drivers/USB/Class/Device/../../HighLevel/../LowLevel/Endpoint.h **** 			{
 696:LUFA-100807/LUFA/Drivers/USB/Class/Device/../../HighLevel/../LowLevel/Endpoint.h **** 				union
 697:LUFA-100807/LUFA/Drivers/USB/Class/Device/../../HighLevel/../LowLevel/Endpoint.h **** 				{
 698:LUFA-100807/LUFA/Drivers/USB/Class/Device/../../HighLevel/../LowLevel/Endpoint.h **** 					uint32_t DWord;
 699:LUFA-100807/LUFA/Drivers/USB/Class/Device/../../HighLevel/../LowLevel/Endpoint.h **** 					uint8_t  Bytes[4];
 700:LUFA-100807/LUFA/Drivers/USB/Class/Device/../../HighLevel/../LowLevel/Endpoint.h **** 				} Data;
 701:LUFA-100807/LUFA/Drivers/USB/Class/Device/../../HighLevel/../LowLevel/Endpoint.h **** 				
 702:LUFA-100807/LUFA/Drivers/USB/Class/Device/../../HighLevel/../LowLevel/Endpoint.h **** 				Data.Bytes[3] = UEDATX;
 703:LUFA-100807/LUFA/Drivers/USB/Class/Device/../../HighLevel/../LowLevel/Endpoint.h **** 				Data.Bytes[2] = UEDATX;
 704:LUFA-100807/LUFA/Drivers/USB/Class/Device/../../HighLevel/../LowLevel/Endpoint.h **** 				Data.Bytes[1] = UEDATX;
 705:LUFA-100807/LUFA/Drivers/USB/Class/Device/../../HighLevel/../LowLevel/Endpoint.h **** 				Data.Bytes[0] = UEDATX;
 706:LUFA-100807/LUFA/Drivers/USB/Class/Device/../../HighLevel/../LowLevel/Endpoint.h **** 			
 707:LUFA-100807/LUFA/Drivers/USB/Class/Device/../../HighLevel/../LowLevel/Endpoint.h **** 				return Data.DWord;
 708:LUFA-100807/LUFA/Drivers/USB/Class/Device/../../HighLevel/../LowLevel/Endpoint.h **** 			}
 709:LUFA-100807/LUFA/Drivers/USB/Class/Device/../../HighLevel/../LowLevel/Endpoint.h **** 
 710:LUFA-100807/LUFA/Drivers/USB/Class/Device/../../HighLevel/../LowLevel/Endpoint.h **** 			/** Writes four bytes to the currently selected endpoint's bank in little endian format, for IN
 711:LUFA-100807/LUFA/Drivers/USB/Class/Device/../../HighLevel/../LowLevel/Endpoint.h **** 			 *  direction endpoints.
 712:LUFA-100807/LUFA/Drivers/USB/Class/Device/../../HighLevel/../LowLevel/Endpoint.h **** 			 *
 713:LUFA-100807/LUFA/Drivers/USB/Class/Device/../../HighLevel/../LowLevel/Endpoint.h **** 			 *  \ingroup Group_EndpointPrimitiveRW
 714:LUFA-100807/LUFA/Drivers/USB/Class/Device/../../HighLevel/../LowLevel/Endpoint.h **** 			 *
 715:LUFA-100807/LUFA/Drivers/USB/Class/Device/../../HighLevel/../LowLevel/Endpoint.h **** 			 *  \param[in] DWord  Next double word to write to the currently selected endpoint's FIFO buffer
 716:LUFA-100807/LUFA/Drivers/USB/Class/Device/../../HighLevel/../LowLevel/Endpoint.h **** 			 */
 717:LUFA-100807/LUFA/Drivers/USB/Class/Device/../../HighLevel/../LowLevel/Endpoint.h **** 			static inline void Endpoint_Write_DWord_LE(const uint32_t DWord) ATTR_ALWAYS_INLINE;
 718:LUFA-100807/LUFA/Drivers/USB/Class/Device/../../HighLevel/../LowLevel/Endpoint.h **** 			static inline void Endpoint_Write_DWord_LE(const uint32_t DWord)
 719:LUFA-100807/LUFA/Drivers/USB/Class/Device/../../HighLevel/../LowLevel/Endpoint.h **** 			{
 720:LUFA-100807/LUFA/Drivers/USB/Class/Device/../../HighLevel/../LowLevel/Endpoint.h **** 				UEDATX = (DWord &  0xFF);
 721:LUFA-100807/LUFA/Drivers/USB/Class/Device/../../HighLevel/../LowLevel/Endpoint.h **** 				UEDATX = (DWord >> 8);
 722:LUFA-100807/LUFA/Drivers/USB/Class/Device/../../HighLevel/../LowLevel/Endpoint.h **** 				UEDATX = (DWord >> 16);
 723:LUFA-100807/LUFA/Drivers/USB/Class/Device/../../HighLevel/../LowLevel/Endpoint.h **** 				UEDATX = (DWord >> 24);
 724:LUFA-100807/LUFA/Drivers/USB/Class/Device/../../HighLevel/../LowLevel/Endpoint.h **** 			}
 725:LUFA-100807/LUFA/Drivers/USB/Class/Device/../../HighLevel/../LowLevel/Endpoint.h **** 			
 726:LUFA-100807/LUFA/Drivers/USB/Class/Device/../../HighLevel/../LowLevel/Endpoint.h **** 			/** Writes four bytes to the currently selected endpoint's bank in big endian format, for IN
 727:LUFA-100807/LUFA/Drivers/USB/Class/Device/../../HighLevel/../LowLevel/Endpoint.h **** 			 *  direction endpoints.
 728:LUFA-100807/LUFA/Drivers/USB/Class/Device/../../HighLevel/../LowLevel/Endpoint.h **** 			 *
 729:LUFA-100807/LUFA/Drivers/USB/Class/Device/../../HighLevel/../LowLevel/Endpoint.h **** 			 *  \ingroup Group_EndpointPrimitiveRW
 730:LUFA-100807/LUFA/Drivers/USB/Class/Device/../../HighLevel/../LowLevel/Endpoint.h **** 			 *
 731:LUFA-100807/LUFA/Drivers/USB/Class/Device/../../HighLevel/../LowLevel/Endpoint.h **** 			 *  \param[in] DWord  Next double word to write to the currently selected endpoint's FIFO buffer
 732:LUFA-100807/LUFA/Drivers/USB/Class/Device/../../HighLevel/../LowLevel/Endpoint.h **** 			 */
 733:LUFA-100807/LUFA/Drivers/USB/Class/Device/../../HighLevel/../LowLevel/Endpoint.h **** 			static inline void Endpoint_Write_DWord_BE(const uint32_t DWord) ATTR_ALWAYS_INLINE;
 734:LUFA-100807/LUFA/Drivers/USB/Class/Device/../../HighLevel/../LowLevel/Endpoint.h **** 			static inline void Endpoint_Write_DWord_BE(const uint32_t DWord)
 735:LUFA-100807/LUFA/Drivers/USB/Class/Device/../../HighLevel/../LowLevel/Endpoint.h **** 			{
 736:LUFA-100807/LUFA/Drivers/USB/Class/Device/../../HighLevel/../LowLevel/Endpoint.h **** 				UEDATX = (DWord >> 24);
 737:LUFA-100807/LUFA/Drivers/USB/Class/Device/../../HighLevel/../LowLevel/Endpoint.h **** 				UEDATX = (DWord >> 16);
 738:LUFA-100807/LUFA/Drivers/USB/Class/Device/../../HighLevel/../LowLevel/Endpoint.h **** 				UEDATX = (DWord >> 8);
 739:LUFA-100807/LUFA/Drivers/USB/Class/Device/../../HighLevel/../LowLevel/Endpoint.h **** 				UEDATX = (DWord &  0xFF);
 740:LUFA-100807/LUFA/Drivers/USB/Class/Device/../../HighLevel/../LowLevel/Endpoint.h **** 			}
 741:LUFA-100807/LUFA/Drivers/USB/Class/Device/../../HighLevel/../LowLevel/Endpoint.h **** 
 742:LUFA-100807/LUFA/Drivers/USB/Class/Device/../../HighLevel/../LowLevel/Endpoint.h **** 			/** Discards four bytes from the currently selected endpoint's bank, for OUT direction endpoints
 743:LUFA-100807/LUFA/Drivers/USB/Class/Device/../../HighLevel/../LowLevel/Endpoint.h **** 			 *
 744:LUFA-100807/LUFA/Drivers/USB/Class/Device/../../HighLevel/../LowLevel/Endpoint.h **** 			 *  \ingroup Group_EndpointPrimitiveRW
 745:LUFA-100807/LUFA/Drivers/USB/Class/Device/../../HighLevel/../LowLevel/Endpoint.h **** 			 */
 746:LUFA-100807/LUFA/Drivers/USB/Class/Device/../../HighLevel/../LowLevel/Endpoint.h **** 			static inline void Endpoint_Discard_DWord(void) ATTR_ALWAYS_INLINE;
 747:LUFA-100807/LUFA/Drivers/USB/Class/Device/../../HighLevel/../LowLevel/Endpoint.h **** 			static inline void Endpoint_Discard_DWord(void)
 748:LUFA-100807/LUFA/Drivers/USB/Class/Device/../../HighLevel/../LowLevel/Endpoint.h **** 			{
 749:LUFA-100807/LUFA/Drivers/USB/Class/Device/../../HighLevel/../LowLevel/Endpoint.h **** 				uint8_t Dummy;
 750:LUFA-100807/LUFA/Drivers/USB/Class/Device/../../HighLevel/../LowLevel/Endpoint.h **** 				
 751:LUFA-100807/LUFA/Drivers/USB/Class/Device/../../HighLevel/../LowLevel/Endpoint.h **** 				Dummy = UEDATX;
 752:LUFA-100807/LUFA/Drivers/USB/Class/Device/../../HighLevel/../LowLevel/Endpoint.h **** 				Dummy = UEDATX;
 753:LUFA-100807/LUFA/Drivers/USB/Class/Device/../../HighLevel/../LowLevel/Endpoint.h **** 				Dummy = UEDATX;
 754:LUFA-100807/LUFA/Drivers/USB/Class/Device/../../HighLevel/../LowLevel/Endpoint.h **** 				Dummy = UEDATX;
 755:LUFA-100807/LUFA/Drivers/USB/Class/Device/../../HighLevel/../LowLevel/Endpoint.h **** 			}
 756:LUFA-100807/LUFA/Drivers/USB/Class/Device/../../HighLevel/../LowLevel/Endpoint.h **** 
 757:LUFA-100807/LUFA/Drivers/USB/Class/Device/../../HighLevel/../LowLevel/Endpoint.h **** 		/* External Variables: */
 758:LUFA-100807/LUFA/Drivers/USB/Class/Device/../../HighLevel/../LowLevel/Endpoint.h **** 			/** Global indicating the maximum packet size of the default control endpoint located at address
 759:LUFA-100807/LUFA/Drivers/USB/Class/Device/../../HighLevel/../LowLevel/Endpoint.h **** 			 *  0 in the device. This value is set to the value indicated in the device descriptor in the us
 760:LUFA-100807/LUFA/Drivers/USB/Class/Device/../../HighLevel/../LowLevel/Endpoint.h **** 			 *  project once the USB interface is initialized into device mode.
 761:LUFA-100807/LUFA/Drivers/USB/Class/Device/../../HighLevel/../LowLevel/Endpoint.h **** 			 *
 762:LUFA-100807/LUFA/Drivers/USB/Class/Device/../../HighLevel/../LowLevel/Endpoint.h **** 			 *  If space is an issue, it is possible to fix this to a static value by defining the control
 763:LUFA-100807/LUFA/Drivers/USB/Class/Device/../../HighLevel/../LowLevel/Endpoint.h **** 			 *  endpoint size in the FIXED_CONTROL_ENDPOINT_SIZE token passed to the compiler in the makefil
 764:LUFA-100807/LUFA/Drivers/USB/Class/Device/../../HighLevel/../LowLevel/Endpoint.h **** 			 *  via the -D switch. When a fixed control endpoint size is used, the size is no longer dynamic
 765:LUFA-100807/LUFA/Drivers/USB/Class/Device/../../HighLevel/../LowLevel/Endpoint.h **** 			 *  read from the descriptors at runtime and instead fixed to the given value. When used, it is
 766:LUFA-100807/LUFA/Drivers/USB/Class/Device/../../HighLevel/../LowLevel/Endpoint.h **** 			 *  important that the descriptor control endpoint size value matches the size given as the
 767:LUFA-100807/LUFA/Drivers/USB/Class/Device/../../HighLevel/../LowLevel/Endpoint.h **** 			 *  FIXED_CONTROL_ENDPOINT_SIZE token - it is recommended that the FIXED_CONTROL_ENDPOINT_SIZE t
 768:LUFA-100807/LUFA/Drivers/USB/Class/Device/../../HighLevel/../LowLevel/Endpoint.h **** 			 *  be used in the descriptors to ensure this.
 769:LUFA-100807/LUFA/Drivers/USB/Class/Device/../../HighLevel/../LowLevel/Endpoint.h **** 			 *
 770:LUFA-100807/LUFA/Drivers/USB/Class/Device/../../HighLevel/../LowLevel/Endpoint.h **** 			 *  \note This variable should be treated as read-only in the user application, and never manual
 771:LUFA-100807/LUFA/Drivers/USB/Class/Device/../../HighLevel/../LowLevel/Endpoint.h **** 			 *        changed in value.
 772:LUFA-100807/LUFA/Drivers/USB/Class/Device/../../HighLevel/../LowLevel/Endpoint.h **** 			 */
 773:LUFA-100807/LUFA/Drivers/USB/Class/Device/../../HighLevel/../LowLevel/Endpoint.h **** 			#if (!defined(FIXED_CONTROL_ENDPOINT_SIZE) || defined(__DOXYGEN__))
 774:LUFA-100807/LUFA/Drivers/USB/Class/Device/../../HighLevel/../LowLevel/Endpoint.h **** 				extern uint8_t USB_ControlEndpointSize;
 775:LUFA-100807/LUFA/Drivers/USB/Class/Device/../../HighLevel/../LowLevel/Endpoint.h **** 			#else
 776:LUFA-100807/LUFA/Drivers/USB/Class/Device/../../HighLevel/../LowLevel/Endpoint.h **** 				#define USB_ControlEndpointSize FIXED_CONTROL_ENDPOINT_SIZE
 777:LUFA-100807/LUFA/Drivers/USB/Class/Device/../../HighLevel/../LowLevel/Endpoint.h **** 			#endif
 778:LUFA-100807/LUFA/Drivers/USB/Class/Device/../../HighLevel/../LowLevel/Endpoint.h **** 
 779:LUFA-100807/LUFA/Drivers/USB/Class/Device/../../HighLevel/../LowLevel/Endpoint.h **** 		/* Function Prototypes: */
 780:LUFA-100807/LUFA/Drivers/USB/Class/Device/../../HighLevel/../LowLevel/Endpoint.h **** 			#if !defined(NO_STREAM_CALLBACKS) || defined(__DOXYGEN__)
 781:LUFA-100807/LUFA/Drivers/USB/Class/Device/../../HighLevel/../LowLevel/Endpoint.h **** 				#define __CALLBACK_PARAM     , StreamCallbackPtr_t Callback
 782:LUFA-100807/LUFA/Drivers/USB/Class/Device/../../HighLevel/../LowLevel/Endpoint.h **** 			#else
 783:LUFA-100807/LUFA/Drivers/USB/Class/Device/../../HighLevel/../LowLevel/Endpoint.h **** 				#define __CALLBACK_PARAM
 784:LUFA-100807/LUFA/Drivers/USB/Class/Device/../../HighLevel/../LowLevel/Endpoint.h **** 			#endif
 785:LUFA-100807/LUFA/Drivers/USB/Class/Device/../../HighLevel/../LowLevel/Endpoint.h **** 		
 786:LUFA-100807/LUFA/Drivers/USB/Class/Device/../../HighLevel/../LowLevel/Endpoint.h **** 			/** Configures the specified endpoint number with the given endpoint type, direction, bank size
 787:LUFA-100807/LUFA/Drivers/USB/Class/Device/../../HighLevel/../LowLevel/Endpoint.h **** 			 *  and banking mode. Endpoints should be allocated in ascending order by their address in the
 788:LUFA-100807/LUFA/Drivers/USB/Class/Device/../../HighLevel/../LowLevel/Endpoint.h **** 			 *  device (i.e. endpoint 1 should be configured before endpoint 2 and so on) to prevent fragmen
 789:LUFA-100807/LUFA/Drivers/USB/Class/Device/../../HighLevel/../LowLevel/Endpoint.h **** 			 *  of the USB FIFO memory.
 790:LUFA-100807/LUFA/Drivers/USB/Class/Device/../../HighLevel/../LowLevel/Endpoint.h **** 			 *
 791:LUFA-100807/LUFA/Drivers/USB/Class/Device/../../HighLevel/../LowLevel/Endpoint.h **** 			 *  The endpoint type may be one of the EP_TYPE_* macros listed in LowLevel.h and the direction
 792:LUFA-100807/LUFA/Drivers/USB/Class/Device/../../HighLevel/../LowLevel/Endpoint.h **** 			 *  may be either \ref ENDPOINT_DIR_OUT or \ref ENDPOINT_DIR_IN.
 793:LUFA-100807/LUFA/Drivers/USB/Class/Device/../../HighLevel/../LowLevel/Endpoint.h **** 			 *
 794:LUFA-100807/LUFA/Drivers/USB/Class/Device/../../HighLevel/../LowLevel/Endpoint.h **** 			 *  The bank size must indicate the maximum packet size that the endpoint can handle. Different
 795:LUFA-100807/LUFA/Drivers/USB/Class/Device/../../HighLevel/../LowLevel/Endpoint.h **** 			 *  endpoint numbers can handle different maximum packet sizes - refer to the chosen USB AVR's
 796:LUFA-100807/LUFA/Drivers/USB/Class/Device/../../HighLevel/../LowLevel/Endpoint.h **** 			 *  datasheet to determine the maximum bank size for each endpoint.
 797:LUFA-100807/LUFA/Drivers/USB/Class/Device/../../HighLevel/../LowLevel/Endpoint.h **** 			 *
 798:LUFA-100807/LUFA/Drivers/USB/Class/Device/../../HighLevel/../LowLevel/Endpoint.h **** 			 *  The banking mode may be either \ref ENDPOINT_BANK_SINGLE or \ref ENDPOINT_BANK_DOUBLE.
 799:LUFA-100807/LUFA/Drivers/USB/Class/Device/../../HighLevel/../LowLevel/Endpoint.h **** 			 *
 800:LUFA-100807/LUFA/Drivers/USB/Class/Device/../../HighLevel/../LowLevel/Endpoint.h **** 			 *  \note The default control endpoint should not be manually configured by the user application
 801:LUFA-100807/LUFA/Drivers/USB/Class/Device/../../HighLevel/../LowLevel/Endpoint.h **** 			 *        it is automatically configured by the library internally.
 802:LUFA-100807/LUFA/Drivers/USB/Class/Device/../../HighLevel/../LowLevel/Endpoint.h **** 			 *        \n\n
 803:LUFA-100807/LUFA/Drivers/USB/Class/Device/../../HighLevel/../LowLevel/Endpoint.h **** 			 *
 804:LUFA-100807/LUFA/Drivers/USB/Class/Device/../../HighLevel/../LowLevel/Endpoint.h **** 			 *  \note This routine will select the specified endpoint, and the endpoint will remain selected
 805:LUFA-100807/LUFA/Drivers/USB/Class/Device/../../HighLevel/../LowLevel/Endpoint.h **** 			 *        once the routine completes regardless of if the endpoint configuration succeeds.
 806:LUFA-100807/LUFA/Drivers/USB/Class/Device/../../HighLevel/../LowLevel/Endpoint.h **** 			 *
 807:LUFA-100807/LUFA/Drivers/USB/Class/Device/../../HighLevel/../LowLevel/Endpoint.h **** 			 *  \return Boolean true if the configuration succeeded, false otherwise.
 808:LUFA-100807/LUFA/Drivers/USB/Class/Device/../../HighLevel/../LowLevel/Endpoint.h **** 			 */
 809:LUFA-100807/LUFA/Drivers/USB/Class/Device/../../HighLevel/../LowLevel/Endpoint.h **** 			bool Endpoint_ConfigureEndpoint(const uint8_t  Number,
 810:LUFA-100807/LUFA/Drivers/USB/Class/Device/../../HighLevel/../LowLevel/Endpoint.h **** 			                                const uint8_t Type,
 811:LUFA-100807/LUFA/Drivers/USB/Class/Device/../../HighLevel/../LowLevel/Endpoint.h **** 			                                const uint8_t Direction,
 812:LUFA-100807/LUFA/Drivers/USB/Class/Device/../../HighLevel/../LowLevel/Endpoint.h **** 			                                const uint16_t Size,
 813:LUFA-100807/LUFA/Drivers/USB/Class/Device/../../HighLevel/../LowLevel/Endpoint.h **** 			                                const uint8_t Banks);
 814:LUFA-100807/LUFA/Drivers/USB/Class/Device/../../HighLevel/../LowLevel/Endpoint.h **** 
 815:LUFA-100807/LUFA/Drivers/USB/Class/Device/../../HighLevel/../LowLevel/Endpoint.h **** 			/** Spin-loops until the currently selected non-control endpoint is ready for the next packet of
 816:LUFA-100807/LUFA/Drivers/USB/Class/Device/../../HighLevel/../LowLevel/Endpoint.h **** 			 *  to be read or written to it.
 817:LUFA-100807/LUFA/Drivers/USB/Class/Device/../../HighLevel/../LowLevel/Endpoint.h **** 			 *
 818:LUFA-100807/LUFA/Drivers/USB/Class/Device/../../HighLevel/../LowLevel/Endpoint.h **** 			 *  \note This routine should not be called on CONTROL type endpoints.
 819:LUFA-100807/LUFA/Drivers/USB/Class/Device/../../HighLevel/../LowLevel/Endpoint.h **** 			 *
 820:LUFA-100807/LUFA/Drivers/USB/Class/Device/../../HighLevel/../LowLevel/Endpoint.h **** 			 *  \ingroup Group_EndpointRW
 821:LUFA-100807/LUFA/Drivers/USB/Class/Device/../../HighLevel/../LowLevel/Endpoint.h **** 			 *
 822:LUFA-100807/LUFA/Drivers/USB/Class/Device/../../HighLevel/../LowLevel/Endpoint.h **** 			 *  \return A value from the \ref Endpoint_WaitUntilReady_ErrorCodes_t enum.
 823:LUFA-100807/LUFA/Drivers/USB/Class/Device/../../HighLevel/../LowLevel/Endpoint.h **** 			 */
 824:LUFA-100807/LUFA/Drivers/USB/Class/Device/../../HighLevel/../LowLevel/Endpoint.h **** 			uint8_t Endpoint_WaitUntilReady(void);
 825:LUFA-100807/LUFA/Drivers/USB/Class/Device/../../HighLevel/../LowLevel/Endpoint.h **** 			
 826:LUFA-100807/LUFA/Drivers/USB/Class/Device/../../HighLevel/../LowLevel/Endpoint.h **** 			/** Completes the status stage of a control transfer on a CONTROL type endpoint automatically,
 827:LUFA-100807/LUFA/Drivers/USB/Class/Device/../../HighLevel/../LowLevel/Endpoint.h **** 			 *  with respect to the data direction. This is a convenience function which can be used to
 828:LUFA-100807/LUFA/Drivers/USB/Class/Device/../../HighLevel/../LowLevel/Endpoint.h **** 			 *  simplify user control request handling.
 829:LUFA-100807/LUFA/Drivers/USB/Class/Device/../../HighLevel/../LowLevel/Endpoint.h **** 			 */
 830:LUFA-100807/LUFA/Drivers/USB/Class/Device/../../HighLevel/../LowLevel/Endpoint.h **** 			void Endpoint_ClearStatusStage(void);
 831:LUFA-100807/LUFA/Drivers/USB/Class/Device/../../HighLevel/../LowLevel/Endpoint.h **** 
 832:LUFA-100807/LUFA/Drivers/USB/Class/Device/../../HighLevel/../LowLevel/Endpoint.h **** 			/** Reads and discards the given number of bytes from the endpoint from the given buffer,
 833:LUFA-100807/LUFA/Drivers/USB/Class/Device/../../HighLevel/../LowLevel/Endpoint.h **** 			 *  discarding fully read packets from the host as needed. The last packet is not automatically
 834:LUFA-100807/LUFA/Drivers/USB/Class/Device/../../HighLevel/../LowLevel/Endpoint.h **** 			 *  discarded once the remaining bytes has been read; the user is responsible for manually
 835:LUFA-100807/LUFA/Drivers/USB/Class/Device/../../HighLevel/../LowLevel/Endpoint.h **** 			 *  discarding the last packet from the host via the \ref Endpoint_ClearOUT() macro. Between
 836:LUFA-100807/LUFA/Drivers/USB/Class/Device/../../HighLevel/../LowLevel/Endpoint.h **** 			 *  each USB packet, the given stream callback function is executed repeatedly until the next
 837:LUFA-100807/LUFA/Drivers/USB/Class/Device/../../HighLevel/../LowLevel/Endpoint.h **** 			 *  packet is ready, allowing for early aborts of stream transfers.
 838:LUFA-100807/LUFA/Drivers/USB/Class/Device/../../HighLevel/../LowLevel/Endpoint.h **** 			 *
 839:LUFA-100807/LUFA/Drivers/USB/Class/Device/../../HighLevel/../LowLevel/Endpoint.h **** 			 *	The callback routine should be created according to the information in \ref Group_StreamCallb
 840:LUFA-100807/LUFA/Drivers/USB/Class/Device/../../HighLevel/../LowLevel/Endpoint.h **** 			 *  If the token NO_STREAM_CALLBACKS is passed via the -D option to the compiler, stream callbac
 841:LUFA-100807/LUFA/Drivers/USB/Class/Device/../../HighLevel/../LowLevel/Endpoint.h **** 			 *  disabled and this function has the Callback parameter omitted.
 842:LUFA-100807/LUFA/Drivers/USB/Class/Device/../../HighLevel/../LowLevel/Endpoint.h **** 			 *
 843:LUFA-100807/LUFA/Drivers/USB/Class/Device/../../HighLevel/../LowLevel/Endpoint.h **** 			 *  \note This routine should not be used on CONTROL type endpoints.
 844:LUFA-100807/LUFA/Drivers/USB/Class/Device/../../HighLevel/../LowLevel/Endpoint.h **** 			 *
 845:LUFA-100807/LUFA/Drivers/USB/Class/Device/../../HighLevel/../LowLevel/Endpoint.h **** 			 *  \ingroup Group_EndpointStreamRW
 846:LUFA-100807/LUFA/Drivers/USB/Class/Device/../../HighLevel/../LowLevel/Endpoint.h **** 			 *
 847:LUFA-100807/LUFA/Drivers/USB/Class/Device/../../HighLevel/../LowLevel/Endpoint.h **** 			 *  \param[in] Length    Number of bytes to send via the currently selected endpoint.
 848:LUFA-100807/LUFA/Drivers/USB/Class/Device/../../HighLevel/../LowLevel/Endpoint.h **** 			 *  \param[in] Callback  Name of a callback routine to call between successive USB packet transf
 849:LUFA-100807/LUFA/Drivers/USB/Class/Device/../../HighLevel/../LowLevel/Endpoint.h **** 			 *
 850:LUFA-100807/LUFA/Drivers/USB/Class/Device/../../HighLevel/../LowLevel/Endpoint.h **** 			 *  \return A value from the \ref Endpoint_Stream_RW_ErrorCodes_t enum.
 851:LUFA-100807/LUFA/Drivers/USB/Class/Device/../../HighLevel/../LowLevel/Endpoint.h **** 			 */
 852:LUFA-100807/LUFA/Drivers/USB/Class/Device/../../HighLevel/../LowLevel/Endpoint.h **** 			uint8_t Endpoint_Discard_Stream(uint16_t Length
 853:LUFA-100807/LUFA/Drivers/USB/Class/Device/../../HighLevel/../LowLevel/Endpoint.h **** 			                                __CALLBACK_PARAM);
 854:LUFA-100807/LUFA/Drivers/USB/Class/Device/../../HighLevel/../LowLevel/Endpoint.h **** 
 855:LUFA-100807/LUFA/Drivers/USB/Class/Device/../../HighLevel/../LowLevel/Endpoint.h **** 			/** Writes the given number of bytes to the endpoint from the given buffer in little endian,
 856:LUFA-100807/LUFA/Drivers/USB/Class/Device/../../HighLevel/../LowLevel/Endpoint.h **** 			 *  sending full packets to the host as needed. The last packet filled is not automatically sent
 857:LUFA-100807/LUFA/Drivers/USB/Class/Device/../../HighLevel/../LowLevel/Endpoint.h **** 			 *  the user is responsible for manually sending the last written packet to the host via the
 858:LUFA-100807/LUFA/Drivers/USB/Class/Device/../../HighLevel/../LowLevel/Endpoint.h **** 			 *  \ref Endpoint_ClearIN() macro. Between each USB packet, the given stream callback function
 859:LUFA-100807/LUFA/Drivers/USB/Class/Device/../../HighLevel/../LowLevel/Endpoint.h **** 			 *  is executed repeatedly until the endpoint is ready to accept the next packet, allowing for e
 860:LUFA-100807/LUFA/Drivers/USB/Class/Device/../../HighLevel/../LowLevel/Endpoint.h **** 			 *  aborts of stream transfers.
 861:LUFA-100807/LUFA/Drivers/USB/Class/Device/../../HighLevel/../LowLevel/Endpoint.h **** 			 *
 862:LUFA-100807/LUFA/Drivers/USB/Class/Device/../../HighLevel/../LowLevel/Endpoint.h **** 			 *	The callback routine should be created according to the information in \ref Group_StreamCallb
 863:LUFA-100807/LUFA/Drivers/USB/Class/Device/../../HighLevel/../LowLevel/Endpoint.h **** 			 *  If the token NO_STREAM_CALLBACKS is passed via the -D option to the compiler, stream callbac
 864:LUFA-100807/LUFA/Drivers/USB/Class/Device/../../HighLevel/../LowLevel/Endpoint.h **** 			 *  disabled and this function has the Callback parameter omitted.
 865:LUFA-100807/LUFA/Drivers/USB/Class/Device/../../HighLevel/../LowLevel/Endpoint.h **** 			 *
 866:LUFA-100807/LUFA/Drivers/USB/Class/Device/../../HighLevel/../LowLevel/Endpoint.h **** 			 *  \note This routine should not be used on CONTROL type endpoints.
 867:LUFA-100807/LUFA/Drivers/USB/Class/Device/../../HighLevel/../LowLevel/Endpoint.h **** 			 *
 868:LUFA-100807/LUFA/Drivers/USB/Class/Device/../../HighLevel/../LowLevel/Endpoint.h **** 			 *  \ingroup Group_EndpointStreamRW
 869:LUFA-100807/LUFA/Drivers/USB/Class/Device/../../HighLevel/../LowLevel/Endpoint.h **** 			 *
 870:LUFA-100807/LUFA/Drivers/USB/Class/Device/../../HighLevel/../LowLevel/Endpoint.h **** 			 *  \param[in] Buffer    Pointer to the source data buffer to read from.
 871:LUFA-100807/LUFA/Drivers/USB/Class/Device/../../HighLevel/../LowLevel/Endpoint.h **** 			 *  \param[in] Length    Number of bytes to read for the currently selected endpoint into the bu
 872:LUFA-100807/LUFA/Drivers/USB/Class/Device/../../HighLevel/../LowLevel/Endpoint.h **** 			 *  \param[in] Callback  Name of a callback routine to call between successive USB packet transf
 873:LUFA-100807/LUFA/Drivers/USB/Class/Device/../../HighLevel/../LowLevel/Endpoint.h **** 			 *
 874:LUFA-100807/LUFA/Drivers/USB/Class/Device/../../HighLevel/../LowLevel/Endpoint.h **** 			 *  \return A value from the \ref Endpoint_Stream_RW_ErrorCodes_t enum.
 875:LUFA-100807/LUFA/Drivers/USB/Class/Device/../../HighLevel/../LowLevel/Endpoint.h **** 			 */
 876:LUFA-100807/LUFA/Drivers/USB/Class/Device/../../HighLevel/../LowLevel/Endpoint.h **** 			uint8_t Endpoint_Write_Stream_LE(const void* Buffer,
 877:LUFA-100807/LUFA/Drivers/USB/Class/Device/../../HighLevel/../LowLevel/Endpoint.h **** 			                                 uint16_t Length
 878:LUFA-100807/LUFA/Drivers/USB/Class/Device/../../HighLevel/../LowLevel/Endpoint.h **** 			                                 __CALLBACK_PARAM) ATTR_NON_NULL_PTR_ARG(1);
 879:LUFA-100807/LUFA/Drivers/USB/Class/Device/../../HighLevel/../LowLevel/Endpoint.h **** 
 880:LUFA-100807/LUFA/Drivers/USB/Class/Device/../../HighLevel/../LowLevel/Endpoint.h **** 			/** EEPROM buffer source version of \ref Endpoint_Write_Stream_LE().
 881:LUFA-100807/LUFA/Drivers/USB/Class/Device/../../HighLevel/../LowLevel/Endpoint.h **** 			 *
 882:LUFA-100807/LUFA/Drivers/USB/Class/Device/../../HighLevel/../LowLevel/Endpoint.h **** 			 *  \ingroup Group_EndpointStreamRW
 883:LUFA-100807/LUFA/Drivers/USB/Class/Device/../../HighLevel/../LowLevel/Endpoint.h **** 			 *
 884:LUFA-100807/LUFA/Drivers/USB/Class/Device/../../HighLevel/../LowLevel/Endpoint.h **** 			 *  \param[in] Buffer    Pointer to the source data buffer to read from.
 885:LUFA-100807/LUFA/Drivers/USB/Class/Device/../../HighLevel/../LowLevel/Endpoint.h **** 			 *  \param[in] Length    Number of bytes to read for the currently selected endpoint into the bu
 886:LUFA-100807/LUFA/Drivers/USB/Class/Device/../../HighLevel/../LowLevel/Endpoint.h **** 			 *  \param[in] Callback  Name of a callback routine to call between successive USB packet transf
 887:LUFA-100807/LUFA/Drivers/USB/Class/Device/../../HighLevel/../LowLevel/Endpoint.h **** 			 *
 888:LUFA-100807/LUFA/Drivers/USB/Class/Device/../../HighLevel/../LowLevel/Endpoint.h **** 			 *  \return A value from the \ref Endpoint_Stream_RW_ErrorCodes_t enum.
 889:LUFA-100807/LUFA/Drivers/USB/Class/Device/../../HighLevel/../LowLevel/Endpoint.h **** 			 */
 890:LUFA-100807/LUFA/Drivers/USB/Class/Device/../../HighLevel/../LowLevel/Endpoint.h **** 			uint8_t Endpoint_Write_EStream_LE(const void* Buffer,
 891:LUFA-100807/LUFA/Drivers/USB/Class/Device/../../HighLevel/../LowLevel/Endpoint.h **** 			                                  uint16_t Length
 892:LUFA-100807/LUFA/Drivers/USB/Class/Device/../../HighLevel/../LowLevel/Endpoint.h **** 			                                  __CALLBACK_PARAM) ATTR_NON_NULL_PTR_ARG(1);
 893:LUFA-100807/LUFA/Drivers/USB/Class/Device/../../HighLevel/../LowLevel/Endpoint.h **** 
 894:LUFA-100807/LUFA/Drivers/USB/Class/Device/../../HighLevel/../LowLevel/Endpoint.h **** 			/** FLASH buffer source version of \ref Endpoint_Write_Stream_LE().
 895:LUFA-100807/LUFA/Drivers/USB/Class/Device/../../HighLevel/../LowLevel/Endpoint.h **** 			 *
 896:LUFA-100807/LUFA/Drivers/USB/Class/Device/../../HighLevel/../LowLevel/Endpoint.h **** 			 *  \pre The FLASH data must be located in the first 64KB of FLASH for this function to work cor
 897:LUFA-100807/LUFA/Drivers/USB/Class/Device/../../HighLevel/../LowLevel/Endpoint.h **** 			 *
 898:LUFA-100807/LUFA/Drivers/USB/Class/Device/../../HighLevel/../LowLevel/Endpoint.h **** 			 *  \ingroup Group_EndpointStreamRW
 899:LUFA-100807/LUFA/Drivers/USB/Class/Device/../../HighLevel/../LowLevel/Endpoint.h **** 			 *
 900:LUFA-100807/LUFA/Drivers/USB/Class/Device/../../HighLevel/../LowLevel/Endpoint.h **** 			 *  \param[in] Buffer    Pointer to the source data buffer to read from.
 901:LUFA-100807/LUFA/Drivers/USB/Class/Device/../../HighLevel/../LowLevel/Endpoint.h **** 			 *  \param[in] Length    Number of bytes to read for the currently selected endpoint into the bu
 902:LUFA-100807/LUFA/Drivers/USB/Class/Device/../../HighLevel/../LowLevel/Endpoint.h **** 			 *  \param[in] Callback  Name of a callback routine to call between successive USB packet transf
 903:LUFA-100807/LUFA/Drivers/USB/Class/Device/../../HighLevel/../LowLevel/Endpoint.h **** 			 *
 904:LUFA-100807/LUFA/Drivers/USB/Class/Device/../../HighLevel/../LowLevel/Endpoint.h **** 			 *  \return A value from the \ref Endpoint_Stream_RW_ErrorCodes_t enum.
 905:LUFA-100807/LUFA/Drivers/USB/Class/Device/../../HighLevel/../LowLevel/Endpoint.h **** 			 */
 906:LUFA-100807/LUFA/Drivers/USB/Class/Device/../../HighLevel/../LowLevel/Endpoint.h **** 			uint8_t Endpoint_Write_PStream_LE(const void* Buffer,
 907:LUFA-100807/LUFA/Drivers/USB/Class/Device/../../HighLevel/../LowLevel/Endpoint.h **** 			                                  uint16_t Length
 908:LUFA-100807/LUFA/Drivers/USB/Class/Device/../../HighLevel/../LowLevel/Endpoint.h **** 			                                  __CALLBACK_PARAM) ATTR_NON_NULL_PTR_ARG(1);
 909:LUFA-100807/LUFA/Drivers/USB/Class/Device/../../HighLevel/../LowLevel/Endpoint.h **** 
 910:LUFA-100807/LUFA/Drivers/USB/Class/Device/../../HighLevel/../LowLevel/Endpoint.h **** 			/** Writes the given number of bytes to the endpoint from the given buffer in big endian,
 911:LUFA-100807/LUFA/Drivers/USB/Class/Device/../../HighLevel/../LowLevel/Endpoint.h **** 			 *  sending full packets to the host as needed. The last packet filled is not automatically sent
 912:LUFA-100807/LUFA/Drivers/USB/Class/Device/../../HighLevel/../LowLevel/Endpoint.h **** 			 *  the user is responsible for manually sending the last written packet to the host via the
 913:LUFA-100807/LUFA/Drivers/USB/Class/Device/../../HighLevel/../LowLevel/Endpoint.h **** 			 *  \ref Endpoint_ClearIN() macro. Between each USB packet, the given stream callback function
 914:LUFA-100807/LUFA/Drivers/USB/Class/Device/../../HighLevel/../LowLevel/Endpoint.h **** 			 *  is executed repeatedly until the endpoint is ready to accept the next packet, allowing for e
 915:LUFA-100807/LUFA/Drivers/USB/Class/Device/../../HighLevel/../LowLevel/Endpoint.h **** 			 *  aborts of stream transfers.
 916:LUFA-100807/LUFA/Drivers/USB/Class/Device/../../HighLevel/../LowLevel/Endpoint.h **** 			 *
 917:LUFA-100807/LUFA/Drivers/USB/Class/Device/../../HighLevel/../LowLevel/Endpoint.h **** 			 *	The callback routine should be created according to the information in \ref Group_StreamCallb
 918:LUFA-100807/LUFA/Drivers/USB/Class/Device/../../HighLevel/../LowLevel/Endpoint.h **** 			 *  If the token NO_STREAM_CALLBACKS is passed via the -D option to the compiler, stream callbac
 919:LUFA-100807/LUFA/Drivers/USB/Class/Device/../../HighLevel/../LowLevel/Endpoint.h **** 			 *  disabled and this function has the Callback parameter omitted.
 920:LUFA-100807/LUFA/Drivers/USB/Class/Device/../../HighLevel/../LowLevel/Endpoint.h **** 			 *
 921:LUFA-100807/LUFA/Drivers/USB/Class/Device/../../HighLevel/../LowLevel/Endpoint.h **** 			 *  \note This routine should not be used on CONTROL type endpoints.
 922:LUFA-100807/LUFA/Drivers/USB/Class/Device/../../HighLevel/../LowLevel/Endpoint.h **** 			 *
 923:LUFA-100807/LUFA/Drivers/USB/Class/Device/../../HighLevel/../LowLevel/Endpoint.h **** 			 *  \ingroup Group_EndpointStreamRW
 924:LUFA-100807/LUFA/Drivers/USB/Class/Device/../../HighLevel/../LowLevel/Endpoint.h **** 			 *
 925:LUFA-100807/LUFA/Drivers/USB/Class/Device/../../HighLevel/../LowLevel/Endpoint.h **** 			 *  \param[in] Buffer    Pointer to the source data buffer to read from.
 926:LUFA-100807/LUFA/Drivers/USB/Class/Device/../../HighLevel/../LowLevel/Endpoint.h **** 			 *  \param[in] Length    Number of bytes to read for the currently selected endpoint into the bu
 927:LUFA-100807/LUFA/Drivers/USB/Class/Device/../../HighLevel/../LowLevel/Endpoint.h **** 			 *  \param[in] Callback  Name of a callback routine to call between successive USB packet transf
 928:LUFA-100807/LUFA/Drivers/USB/Class/Device/../../HighLevel/../LowLevel/Endpoint.h **** 			 *
 929:LUFA-100807/LUFA/Drivers/USB/Class/Device/../../HighLevel/../LowLevel/Endpoint.h **** 			 *  \return A value from the \ref Endpoint_Stream_RW_ErrorCodes_t enum.
 930:LUFA-100807/LUFA/Drivers/USB/Class/Device/../../HighLevel/../LowLevel/Endpoint.h **** 			 */
 931:LUFA-100807/LUFA/Drivers/USB/Class/Device/../../HighLevel/../LowLevel/Endpoint.h **** 			uint8_t Endpoint_Write_Stream_BE(const void* Buffer,
 932:LUFA-100807/LUFA/Drivers/USB/Class/Device/../../HighLevel/../LowLevel/Endpoint.h **** 			                                 uint16_t Length
 933:LUFA-100807/LUFA/Drivers/USB/Class/Device/../../HighLevel/../LowLevel/Endpoint.h **** 			                                 __CALLBACK_PARAM) ATTR_NON_NULL_PTR_ARG(1);
 934:LUFA-100807/LUFA/Drivers/USB/Class/Device/../../HighLevel/../LowLevel/Endpoint.h **** 
 935:LUFA-100807/LUFA/Drivers/USB/Class/Device/../../HighLevel/../LowLevel/Endpoint.h **** 			/** EEPROM buffer source version of \ref Endpoint_Write_Stream_BE().
 936:LUFA-100807/LUFA/Drivers/USB/Class/Device/../../HighLevel/../LowLevel/Endpoint.h **** 			 *
 937:LUFA-100807/LUFA/Drivers/USB/Class/Device/../../HighLevel/../LowLevel/Endpoint.h **** 			 *  \ingroup Group_EndpointStreamRW
 938:LUFA-100807/LUFA/Drivers/USB/Class/Device/../../HighLevel/../LowLevel/Endpoint.h **** 			 *
 939:LUFA-100807/LUFA/Drivers/USB/Class/Device/../../HighLevel/../LowLevel/Endpoint.h **** 			 *  \param[in] Buffer    Pointer to the source data buffer to read from.
 940:LUFA-100807/LUFA/Drivers/USB/Class/Device/../../HighLevel/../LowLevel/Endpoint.h **** 			 *  \param[in] Length    Number of bytes to read for the currently selected endpoint into the bu
 941:LUFA-100807/LUFA/Drivers/USB/Class/Device/../../HighLevel/../LowLevel/Endpoint.h **** 			 *  \param[in] Callback  Name of a callback routine to call between successive USB packet transf
 942:LUFA-100807/LUFA/Drivers/USB/Class/Device/../../HighLevel/../LowLevel/Endpoint.h **** 			 *
 943:LUFA-100807/LUFA/Drivers/USB/Class/Device/../../HighLevel/../LowLevel/Endpoint.h **** 			 *  \return A value from the \ref Endpoint_Stream_RW_ErrorCodes_t enum.
 944:LUFA-100807/LUFA/Drivers/USB/Class/Device/../../HighLevel/../LowLevel/Endpoint.h **** 			 */
 945:LUFA-100807/LUFA/Drivers/USB/Class/Device/../../HighLevel/../LowLevel/Endpoint.h **** 			uint8_t Endpoint_Write_EStream_BE(const void* Buffer,
 946:LUFA-100807/LUFA/Drivers/USB/Class/Device/../../HighLevel/../LowLevel/Endpoint.h **** 			                                  uint16_t Length
 947:LUFA-100807/LUFA/Drivers/USB/Class/Device/../../HighLevel/../LowLevel/Endpoint.h **** 			                                  __CALLBACK_PARAM) ATTR_NON_NULL_PTR_ARG(1);
 948:LUFA-100807/LUFA/Drivers/USB/Class/Device/../../HighLevel/../LowLevel/Endpoint.h **** 
 949:LUFA-100807/LUFA/Drivers/USB/Class/Device/../../HighLevel/../LowLevel/Endpoint.h **** 			/** FLASH buffer source version of \ref Endpoint_Write_Stream_BE().
 950:LUFA-100807/LUFA/Drivers/USB/Class/Device/../../HighLevel/../LowLevel/Endpoint.h **** 			 *
 951:LUFA-100807/LUFA/Drivers/USB/Class/Device/../../HighLevel/../LowLevel/Endpoint.h **** 			 *  \pre The FLASH data must be located in the first 64KB of FLASH for this function to work cor
 952:LUFA-100807/LUFA/Drivers/USB/Class/Device/../../HighLevel/../LowLevel/Endpoint.h **** 			 *
 953:LUFA-100807/LUFA/Drivers/USB/Class/Device/../../HighLevel/../LowLevel/Endpoint.h **** 			 *  \ingroup Group_EndpointStreamRW
 954:LUFA-100807/LUFA/Drivers/USB/Class/Device/../../HighLevel/../LowLevel/Endpoint.h **** 			 *
 955:LUFA-100807/LUFA/Drivers/USB/Class/Device/../../HighLevel/../LowLevel/Endpoint.h **** 			 *  \param[in] Buffer    Pointer to the source data buffer to read from.
 956:LUFA-100807/LUFA/Drivers/USB/Class/Device/../../HighLevel/../LowLevel/Endpoint.h **** 			 *  \param[in] Length    Number of bytes to read for the currently selected endpoint into the bu
 957:LUFA-100807/LUFA/Drivers/USB/Class/Device/../../HighLevel/../LowLevel/Endpoint.h **** 			 *  \param[in] Callback  Name of a callback routine to call between successive USB packet transf
 958:LUFA-100807/LUFA/Drivers/USB/Class/Device/../../HighLevel/../LowLevel/Endpoint.h **** 			 *
 959:LUFA-100807/LUFA/Drivers/USB/Class/Device/../../HighLevel/../LowLevel/Endpoint.h **** 			 *  \return A value from the \ref Endpoint_Stream_RW_ErrorCodes_t enum.
 960:LUFA-100807/LUFA/Drivers/USB/Class/Device/../../HighLevel/../LowLevel/Endpoint.h **** 			 */
 961:LUFA-100807/LUFA/Drivers/USB/Class/Device/../../HighLevel/../LowLevel/Endpoint.h **** 			uint8_t Endpoint_Write_PStream_BE(const void* Buffer,
 962:LUFA-100807/LUFA/Drivers/USB/Class/Device/../../HighLevel/../LowLevel/Endpoint.h **** 			                                  uint16_t Length
 963:LUFA-100807/LUFA/Drivers/USB/Class/Device/../../HighLevel/../LowLevel/Endpoint.h **** 			                                  __CALLBACK_PARAM) ATTR_NON_NULL_PTR_ARG(1);
 964:LUFA-100807/LUFA/Drivers/USB/Class/Device/../../HighLevel/../LowLevel/Endpoint.h **** 
 965:LUFA-100807/LUFA/Drivers/USB/Class/Device/../../HighLevel/../LowLevel/Endpoint.h **** 			/** Reads the given number of bytes from the endpoint from the given buffer in little endian,
 966:LUFA-100807/LUFA/Drivers/USB/Class/Device/../../HighLevel/../LowLevel/Endpoint.h **** 			 *  discarding fully read packets from the host as needed. The last packet is not automatically
 967:LUFA-100807/LUFA/Drivers/USB/Class/Device/../../HighLevel/../LowLevel/Endpoint.h **** 			 *  discarded once the remaining bytes has been read; the user is responsible for manually
 968:LUFA-100807/LUFA/Drivers/USB/Class/Device/../../HighLevel/../LowLevel/Endpoint.h **** 			 *  discarding the last packet from the host via the \ref Endpoint_ClearOUT() macro. Between
 969:LUFA-100807/LUFA/Drivers/USB/Class/Device/../../HighLevel/../LowLevel/Endpoint.h **** 			 *  each USB packet, the given stream callback function is executed repeatedly until the endpoin
 970:LUFA-100807/LUFA/Drivers/USB/Class/Device/../../HighLevel/../LowLevel/Endpoint.h **** 			 *  is ready to accept the next packet, allowing for early aborts of stream transfers.
 971:LUFA-100807/LUFA/Drivers/USB/Class/Device/../../HighLevel/../LowLevel/Endpoint.h **** 			 *
 972:LUFA-100807/LUFA/Drivers/USB/Class/Device/../../HighLevel/../LowLevel/Endpoint.h **** 			 *	The callback routine should be created according to the information in \ref Group_StreamCallb
 973:LUFA-100807/LUFA/Drivers/USB/Class/Device/../../HighLevel/../LowLevel/Endpoint.h **** 			 *  If the token NO_STREAM_CALLBACKS is passed via the -D option to the compiler, stream callbac
 974:LUFA-100807/LUFA/Drivers/USB/Class/Device/../../HighLevel/../LowLevel/Endpoint.h **** 			 *  disabled and this function has the Callback parameter omitted.
 975:LUFA-100807/LUFA/Drivers/USB/Class/Device/../../HighLevel/../LowLevel/Endpoint.h **** 			 *
 976:LUFA-100807/LUFA/Drivers/USB/Class/Device/../../HighLevel/../LowLevel/Endpoint.h **** 			 *  \note This routine should not be used on CONTROL type endpoints.
 977:LUFA-100807/LUFA/Drivers/USB/Class/Device/../../HighLevel/../LowLevel/Endpoint.h **** 			 *
 978:LUFA-100807/LUFA/Drivers/USB/Class/Device/../../HighLevel/../LowLevel/Endpoint.h **** 			 *  \ingroup Group_EndpointStreamRW
 979:LUFA-100807/LUFA/Drivers/USB/Class/Device/../../HighLevel/../LowLevel/Endpoint.h **** 			 *
 980:LUFA-100807/LUFA/Drivers/USB/Class/Device/../../HighLevel/../LowLevel/Endpoint.h **** 			 *  \param[out] Buffer    Pointer to the destination data buffer to write to.
 981:LUFA-100807/LUFA/Drivers/USB/Class/Device/../../HighLevel/../LowLevel/Endpoint.h **** 			 *  \param[in]  Length    Number of bytes to send via the currently selected endpoint.
 982:LUFA-100807/LUFA/Drivers/USB/Class/Device/../../HighLevel/../LowLevel/Endpoint.h **** 			 *  \param[in]  Callback  Name of a callback routine to call between successive USB packet trans
 983:LUFA-100807/LUFA/Drivers/USB/Class/Device/../../HighLevel/../LowLevel/Endpoint.h **** 			 *
 984:LUFA-100807/LUFA/Drivers/USB/Class/Device/../../HighLevel/../LowLevel/Endpoint.h **** 			 *  \return A value from the \ref Endpoint_Stream_RW_ErrorCodes_t enum.
 985:LUFA-100807/LUFA/Drivers/USB/Class/Device/../../HighLevel/../LowLevel/Endpoint.h **** 			 */
 986:LUFA-100807/LUFA/Drivers/USB/Class/Device/../../HighLevel/../LowLevel/Endpoint.h **** 			uint8_t Endpoint_Read_Stream_LE(void* Buffer,
 987:LUFA-100807/LUFA/Drivers/USB/Class/Device/../../HighLevel/../LowLevel/Endpoint.h **** 			                                uint16_t Length
 988:LUFA-100807/LUFA/Drivers/USB/Class/Device/../../HighLevel/../LowLevel/Endpoint.h **** 			                                __CALLBACK_PARAM) ATTR_NON_NULL_PTR_ARG(1);
 989:LUFA-100807/LUFA/Drivers/USB/Class/Device/../../HighLevel/../LowLevel/Endpoint.h **** 
 990:LUFA-100807/LUFA/Drivers/USB/Class/Device/../../HighLevel/../LowLevel/Endpoint.h **** 			/** EEPROM buffer source version of \ref Endpoint_Read_Stream_LE().
 991:LUFA-100807/LUFA/Drivers/USB/Class/Device/../../HighLevel/../LowLevel/Endpoint.h **** 			 *
 992:LUFA-100807/LUFA/Drivers/USB/Class/Device/../../HighLevel/../LowLevel/Endpoint.h **** 			 *  \ingroup Group_EndpointStreamRW
 993:LUFA-100807/LUFA/Drivers/USB/Class/Device/../../HighLevel/../LowLevel/Endpoint.h **** 			 *
 994:LUFA-100807/LUFA/Drivers/USB/Class/Device/../../HighLevel/../LowLevel/Endpoint.h **** 			 *  \param[out] Buffer    Pointer to the destination data buffer to write to, located in EEPROM 
 995:LUFA-100807/LUFA/Drivers/USB/Class/Device/../../HighLevel/../LowLevel/Endpoint.h **** 			 *  \param[in]  Length    Number of bytes to send via the currently selected endpoint.
 996:LUFA-100807/LUFA/Drivers/USB/Class/Device/../../HighLevel/../LowLevel/Endpoint.h **** 			 *  \param[in]  Callback  Name of a callback routine to call between successive USB packet trans
 997:LUFA-100807/LUFA/Drivers/USB/Class/Device/../../HighLevel/../LowLevel/Endpoint.h **** 			 *
 998:LUFA-100807/LUFA/Drivers/USB/Class/Device/../../HighLevel/../LowLevel/Endpoint.h **** 			 *  \return A value from the \ref Endpoint_Stream_RW_ErrorCodes_t enum.
 999:LUFA-100807/LUFA/Drivers/USB/Class/Device/../../HighLevel/../LowLevel/Endpoint.h **** 			 */
1000:LUFA-100807/LUFA/Drivers/USB/Class/Device/../../HighLevel/../LowLevel/Endpoint.h **** 			uint8_t Endpoint_Read_EStream_LE(void* Buffer,
1001:LUFA-100807/LUFA/Drivers/USB/Class/Device/../../HighLevel/../LowLevel/Endpoint.h **** 			                                 uint16_t Length
1002:LUFA-100807/LUFA/Drivers/USB/Class/Device/../../HighLevel/../LowLevel/Endpoint.h **** 			                                 __CALLBACK_PARAM) ATTR_NON_NULL_PTR_ARG(1);
1003:LUFA-100807/LUFA/Drivers/USB/Class/Device/../../HighLevel/../LowLevel/Endpoint.h **** 			
1004:LUFA-100807/LUFA/Drivers/USB/Class/Device/../../HighLevel/../LowLevel/Endpoint.h **** 			/** Reads the given number of bytes from the endpoint from the given buffer in big endian,
1005:LUFA-100807/LUFA/Drivers/USB/Class/Device/../../HighLevel/../LowLevel/Endpoint.h **** 			 *  discarding fully read packets from the host as needed. The last packet is not automatically
1006:LUFA-100807/LUFA/Drivers/USB/Class/Device/../../HighLevel/../LowLevel/Endpoint.h **** 			 *  discarded once the remaining bytes has been read; the user is responsible for manually
1007:LUFA-100807/LUFA/Drivers/USB/Class/Device/../../HighLevel/../LowLevel/Endpoint.h **** 			 *  discarding the last packet from the host via the \ref Endpoint_ClearOUT() macro. Between
1008:LUFA-100807/LUFA/Drivers/USB/Class/Device/../../HighLevel/../LowLevel/Endpoint.h **** 			 *  each USB packet, the given stream callback function is executed repeatedly until the endpoin
1009:LUFA-100807/LUFA/Drivers/USB/Class/Device/../../HighLevel/../LowLevel/Endpoint.h **** 			 *  is ready to accept the next packet, allowing for early aborts of stream transfers.
1010:LUFA-100807/LUFA/Drivers/USB/Class/Device/../../HighLevel/../LowLevel/Endpoint.h **** 			 *
1011:LUFA-100807/LUFA/Drivers/USB/Class/Device/../../HighLevel/../LowLevel/Endpoint.h **** 			 *	The callback routine should be created according to the information in \ref Group_StreamCallb
1012:LUFA-100807/LUFA/Drivers/USB/Class/Device/../../HighLevel/../LowLevel/Endpoint.h **** 			 *  If the token NO_STREAM_CALLBACKS is passed via the -D option to the compiler, stream callbac
1013:LUFA-100807/LUFA/Drivers/USB/Class/Device/../../HighLevel/../LowLevel/Endpoint.h **** 			 *  disabled and this function has the Callback parameter omitted.
1014:LUFA-100807/LUFA/Drivers/USB/Class/Device/../../HighLevel/../LowLevel/Endpoint.h **** 			 *
1015:LUFA-100807/LUFA/Drivers/USB/Class/Device/../../HighLevel/../LowLevel/Endpoint.h **** 			 *  \note This routine should not be used on CONTROL type endpoints.
1016:LUFA-100807/LUFA/Drivers/USB/Class/Device/../../HighLevel/../LowLevel/Endpoint.h **** 			 *
1017:LUFA-100807/LUFA/Drivers/USB/Class/Device/../../HighLevel/../LowLevel/Endpoint.h **** 			 *  \ingroup Group_EndpointStreamRW
1018:LUFA-100807/LUFA/Drivers/USB/Class/Device/../../HighLevel/../LowLevel/Endpoint.h **** 			 *
1019:LUFA-100807/LUFA/Drivers/USB/Class/Device/../../HighLevel/../LowLevel/Endpoint.h **** 			 *  \param[out] Buffer    Pointer to the destination data buffer to write to.
1020:LUFA-100807/LUFA/Drivers/USB/Class/Device/../../HighLevel/../LowLevel/Endpoint.h **** 			 *  \param[in]  Length    Number of bytes to send via the currently selected endpoint.
1021:LUFA-100807/LUFA/Drivers/USB/Class/Device/../../HighLevel/../LowLevel/Endpoint.h **** 			 *  \param[in]  Callback  Name of a callback routine to call between successive USB packet trans
1022:LUFA-100807/LUFA/Drivers/USB/Class/Device/../../HighLevel/../LowLevel/Endpoint.h **** 			 *
1023:LUFA-100807/LUFA/Drivers/USB/Class/Device/../../HighLevel/../LowLevel/Endpoint.h **** 			 *  \return A value from the \ref Endpoint_Stream_RW_ErrorCodes_t enum.
1024:LUFA-100807/LUFA/Drivers/USB/Class/Device/../../HighLevel/../LowLevel/Endpoint.h **** 			 */
1025:LUFA-100807/LUFA/Drivers/USB/Class/Device/../../HighLevel/../LowLevel/Endpoint.h **** 			uint8_t Endpoint_Read_Stream_BE(void* Buffer,
1026:LUFA-100807/LUFA/Drivers/USB/Class/Device/../../HighLevel/../LowLevel/Endpoint.h **** 			                                uint16_t Length
1027:LUFA-100807/LUFA/Drivers/USB/Class/Device/../../HighLevel/../LowLevel/Endpoint.h **** 			                                __CALLBACK_PARAM) ATTR_NON_NULL_PTR_ARG(1);
1028:LUFA-100807/LUFA/Drivers/USB/Class/Device/../../HighLevel/../LowLevel/Endpoint.h **** 
1029:LUFA-100807/LUFA/Drivers/USB/Class/Device/../../HighLevel/../LowLevel/Endpoint.h **** 			/** EEPROM buffer source version of \ref Endpoint_Read_Stream_BE().
1030:LUFA-100807/LUFA/Drivers/USB/Class/Device/../../HighLevel/../LowLevel/Endpoint.h **** 			 *
1031:LUFA-100807/LUFA/Drivers/USB/Class/Device/../../HighLevel/../LowLevel/Endpoint.h **** 			 *  \ingroup Group_EndpointStreamRW
1032:LUFA-100807/LUFA/Drivers/USB/Class/Device/../../HighLevel/../LowLevel/Endpoint.h **** 			 *
1033:LUFA-100807/LUFA/Drivers/USB/Class/Device/../../HighLevel/../LowLevel/Endpoint.h **** 			 *  \param[out] Buffer    Pointer to the destination data buffer to write to, located in EEPROM 
1034:LUFA-100807/LUFA/Drivers/USB/Class/Device/../../HighLevel/../LowLevel/Endpoint.h **** 			 *  \param[in]  Length    Number of bytes to send via the currently selected endpoint.
1035:LUFA-100807/LUFA/Drivers/USB/Class/Device/../../HighLevel/../LowLevel/Endpoint.h **** 			 *  \param[in]  Callback  Name of a callback routine to call between successive USB packet trans
1036:LUFA-100807/LUFA/Drivers/USB/Class/Device/../../HighLevel/../LowLevel/Endpoint.h **** 			 *
1037:LUFA-100807/LUFA/Drivers/USB/Class/Device/../../HighLevel/../LowLevel/Endpoint.h **** 			 *  \return A value from the \ref Endpoint_Stream_RW_ErrorCodes_t enum.
1038:LUFA-100807/LUFA/Drivers/USB/Class/Device/../../HighLevel/../LowLevel/Endpoint.h **** 			 */
1039:LUFA-100807/LUFA/Drivers/USB/Class/Device/../../HighLevel/../LowLevel/Endpoint.h **** 			uint8_t Endpoint_Read_EStream_BE(void* Buffer,
1040:LUFA-100807/LUFA/Drivers/USB/Class/Device/../../HighLevel/../LowLevel/Endpoint.h **** 			                                 uint16_t Length
1041:LUFA-100807/LUFA/Drivers/USB/Class/Device/../../HighLevel/../LowLevel/Endpoint.h **** 			                                 __CALLBACK_PARAM) ATTR_NON_NULL_PTR_ARG(1);
1042:LUFA-100807/LUFA/Drivers/USB/Class/Device/../../HighLevel/../LowLevel/Endpoint.h **** 
1043:LUFA-100807/LUFA/Drivers/USB/Class/Device/../../HighLevel/../LowLevel/Endpoint.h **** 			/** Writes the given number of bytes to the CONTROL type endpoint from the given buffer in littl
1044:LUFA-100807/LUFA/Drivers/USB/Class/Device/../../HighLevel/../LowLevel/Endpoint.h **** 			 *  sending full packets to the host as needed. The host OUT acknowledgement is not automaticall
1045:LUFA-100807/LUFA/Drivers/USB/Class/Device/../../HighLevel/../LowLevel/Endpoint.h **** 			 *  in both failure and success states; the user is responsible for manually clearing the setup 
1046:LUFA-100807/LUFA/Drivers/USB/Class/Device/../../HighLevel/../LowLevel/Endpoint.h **** 			 *  finalize the transfer via the \ref Endpoint_ClearOUT() macro.
1047:LUFA-100807/LUFA/Drivers/USB/Class/Device/../../HighLevel/../LowLevel/Endpoint.h **** 			 *
1048:LUFA-100807/LUFA/Drivers/USB/Class/Device/../../HighLevel/../LowLevel/Endpoint.h **** 			 *  \note This function automatically clears the control transfer's status stage. Do not manuall
1049:LUFA-100807/LUFA/Drivers/USB/Class/Device/../../HighLevel/../LowLevel/Endpoint.h **** 			 *        to clear the status stage when using this routine in a control transaction.
1050:LUFA-100807/LUFA/Drivers/USB/Class/Device/../../HighLevel/../LowLevel/Endpoint.h **** 			 *        \n\n
1051:LUFA-100807/LUFA/Drivers/USB/Class/Device/../../HighLevel/../LowLevel/Endpoint.h **** 			 *
1052:LUFA-100807/LUFA/Drivers/USB/Class/Device/../../HighLevel/../LowLevel/Endpoint.h **** 			 *  \note This routine should only be used on CONTROL type endpoints.
1053:LUFA-100807/LUFA/Drivers/USB/Class/Device/../../HighLevel/../LowLevel/Endpoint.h **** 			 *
1054:LUFA-100807/LUFA/Drivers/USB/Class/Device/../../HighLevel/../LowLevel/Endpoint.h **** 			 *  \warning Unlike the standard stream read/write commands, the control stream commands cannot 
1055:LUFA-100807/LUFA/Drivers/USB/Class/Device/../../HighLevel/../LowLevel/Endpoint.h **** 			 *           together; i.e. the entire stream data must be read or written at the one time.
1056:LUFA-100807/LUFA/Drivers/USB/Class/Device/../../HighLevel/../LowLevel/Endpoint.h **** 			 *
1057:LUFA-100807/LUFA/Drivers/USB/Class/Device/../../HighLevel/../LowLevel/Endpoint.h **** 			 *  \ingroup Group_EndpointStreamRW
1058:LUFA-100807/LUFA/Drivers/USB/Class/Device/../../HighLevel/../LowLevel/Endpoint.h **** 			 *
1059:LUFA-100807/LUFA/Drivers/USB/Class/Device/../../HighLevel/../LowLevel/Endpoint.h **** 			 *  \param[in] Buffer  Pointer to the source data buffer to read from.
1060:LUFA-100807/LUFA/Drivers/USB/Class/Device/../../HighLevel/../LowLevel/Endpoint.h **** 			 *  \param[in] Length  Number of bytes to read for the currently selected endpoint into the buff
1061:LUFA-100807/LUFA/Drivers/USB/Class/Device/../../HighLevel/../LowLevel/Endpoint.h **** 			 *
1062:LUFA-100807/LUFA/Drivers/USB/Class/Device/../../HighLevel/../LowLevel/Endpoint.h **** 			 *  \return A value from the \ref Endpoint_ControlStream_RW_ErrorCodes_t enum.
1063:LUFA-100807/LUFA/Drivers/USB/Class/Device/../../HighLevel/../LowLevel/Endpoint.h **** 			 */
1064:LUFA-100807/LUFA/Drivers/USB/Class/Device/../../HighLevel/../LowLevel/Endpoint.h **** 			uint8_t Endpoint_Write_Control_Stream_LE(const void* Buffer,
1065:LUFA-100807/LUFA/Drivers/USB/Class/Device/../../HighLevel/../LowLevel/Endpoint.h **** 			                                         uint16_t Length) ATTR_NON_NULL_PTR_ARG(1);
1066:LUFA-100807/LUFA/Drivers/USB/Class/Device/../../HighLevel/../LowLevel/Endpoint.h **** 
1067:LUFA-100807/LUFA/Drivers/USB/Class/Device/../../HighLevel/../LowLevel/Endpoint.h **** 			/** EEPROM buffer source version of Endpoint_Write_Control_Stream_LE.
1068:LUFA-100807/LUFA/Drivers/USB/Class/Device/../../HighLevel/../LowLevel/Endpoint.h **** 			 *
1069:LUFA-100807/LUFA/Drivers/USB/Class/Device/../../HighLevel/../LowLevel/Endpoint.h **** 			 *  \note This function automatically clears the control transfer's status stage. Do not manuall
1070:LUFA-100807/LUFA/Drivers/USB/Class/Device/../../HighLevel/../LowLevel/Endpoint.h **** 			 *        to clear the status stage when using this routine in a control transaction.
1071:LUFA-100807/LUFA/Drivers/USB/Class/Device/../../HighLevel/../LowLevel/Endpoint.h **** 			 *        \n\n
1072:LUFA-100807/LUFA/Drivers/USB/Class/Device/../../HighLevel/../LowLevel/Endpoint.h **** 			 *
1073:LUFA-100807/LUFA/Drivers/USB/Class/Device/../../HighLevel/../LowLevel/Endpoint.h **** 			 *  \note This routine should only be used on CONTROL type endpoints.
1074:LUFA-100807/LUFA/Drivers/USB/Class/Device/../../HighLevel/../LowLevel/Endpoint.h **** 			 *
1075:LUFA-100807/LUFA/Drivers/USB/Class/Device/../../HighLevel/../LowLevel/Endpoint.h **** 			 *  \warning Unlike the standard stream read/write commands, the control stream commands cannot 
1076:LUFA-100807/LUFA/Drivers/USB/Class/Device/../../HighLevel/../LowLevel/Endpoint.h **** 			 *           together; i.e. the entire stream data must be read or written at the one time.
1077:LUFA-100807/LUFA/Drivers/USB/Class/Device/../../HighLevel/../LowLevel/Endpoint.h **** 			 *
1078:LUFA-100807/LUFA/Drivers/USB/Class/Device/../../HighLevel/../LowLevel/Endpoint.h **** 			 *  \ingroup Group_EndpointStreamRW
1079:LUFA-100807/LUFA/Drivers/USB/Class/Device/../../HighLevel/../LowLevel/Endpoint.h **** 			 *
1080:LUFA-100807/LUFA/Drivers/USB/Class/Device/../../HighLevel/../LowLevel/Endpoint.h **** 			 *  \param[in] Buffer  Pointer to the source data buffer to read from.
1081:LUFA-100807/LUFA/Drivers/USB/Class/Device/../../HighLevel/../LowLevel/Endpoint.h **** 			 *  \param[in] Length  Number of bytes to read for the currently selected endpoint into the buff
1082:LUFA-100807/LUFA/Drivers/USB/Class/Device/../../HighLevel/../LowLevel/Endpoint.h **** 			 *
1083:LUFA-100807/LUFA/Drivers/USB/Class/Device/../../HighLevel/../LowLevel/Endpoint.h **** 			 *  \return A value from the \ref Endpoint_ControlStream_RW_ErrorCodes_t enum.
1084:LUFA-100807/LUFA/Drivers/USB/Class/Device/../../HighLevel/../LowLevel/Endpoint.h **** 			 */
1085:LUFA-100807/LUFA/Drivers/USB/Class/Device/../../HighLevel/../LowLevel/Endpoint.h **** 			uint8_t Endpoint_Write_Control_EStream_LE(const void* Buffer,
1086:LUFA-100807/LUFA/Drivers/USB/Class/Device/../../HighLevel/../LowLevel/Endpoint.h **** 			                                          uint16_t Length) ATTR_NON_NULL_PTR_ARG(1);
1087:LUFA-100807/LUFA/Drivers/USB/Class/Device/../../HighLevel/../LowLevel/Endpoint.h **** 
1088:LUFA-100807/LUFA/Drivers/USB/Class/Device/../../HighLevel/../LowLevel/Endpoint.h **** 			/** FLASH buffer source version of \ref Endpoint_Write_Control_Stream_LE().
1089:LUFA-100807/LUFA/Drivers/USB/Class/Device/../../HighLevel/../LowLevel/Endpoint.h **** 			 *
1090:LUFA-100807/LUFA/Drivers/USB/Class/Device/../../HighLevel/../LowLevel/Endpoint.h **** 			 *  \pre The FLASH data must be located in the first 64KB of FLASH for this function to work cor
1091:LUFA-100807/LUFA/Drivers/USB/Class/Device/../../HighLevel/../LowLevel/Endpoint.h **** 			 *
1092:LUFA-100807/LUFA/Drivers/USB/Class/Device/../../HighLevel/../LowLevel/Endpoint.h **** 			 *  \note This function automatically clears the control transfer's status stage. Do not manuall
1093:LUFA-100807/LUFA/Drivers/USB/Class/Device/../../HighLevel/../LowLevel/Endpoint.h **** 			 *        to clear the status stage when using this routine in a control transaction.
1094:LUFA-100807/LUFA/Drivers/USB/Class/Device/../../HighLevel/../LowLevel/Endpoint.h **** 			 *        \n\n
1095:LUFA-100807/LUFA/Drivers/USB/Class/Device/../../HighLevel/../LowLevel/Endpoint.h **** 			 *
1096:LUFA-100807/LUFA/Drivers/USB/Class/Device/../../HighLevel/../LowLevel/Endpoint.h **** 			 *  \note This routine should only be used on CONTROL type endpoints.
1097:LUFA-100807/LUFA/Drivers/USB/Class/Device/../../HighLevel/../LowLevel/Endpoint.h **** 			 *
1098:LUFA-100807/LUFA/Drivers/USB/Class/Device/../../HighLevel/../LowLevel/Endpoint.h **** 			 *  \warning Unlike the standard stream read/write commands, the control stream commands cannot 
1099:LUFA-100807/LUFA/Drivers/USB/Class/Device/../../HighLevel/../LowLevel/Endpoint.h **** 			 *           together; i.e. the entire stream data must be read or written at the one time.
1100:LUFA-100807/LUFA/Drivers/USB/Class/Device/../../HighLevel/../LowLevel/Endpoint.h **** 			 *
1101:LUFA-100807/LUFA/Drivers/USB/Class/Device/../../HighLevel/../LowLevel/Endpoint.h **** 			 *  \ingroup Group_EndpointStreamRW
1102:LUFA-100807/LUFA/Drivers/USB/Class/Device/../../HighLevel/../LowLevel/Endpoint.h **** 			 *
1103:LUFA-100807/LUFA/Drivers/USB/Class/Device/../../HighLevel/../LowLevel/Endpoint.h **** 			 *  \param[in] Buffer  Pointer to the source data buffer to read from.
1104:LUFA-100807/LUFA/Drivers/USB/Class/Device/../../HighLevel/../LowLevel/Endpoint.h **** 			 *  \param[in] Length  Number of bytes to read for the currently selected endpoint into the buff
1105:LUFA-100807/LUFA/Drivers/USB/Class/Device/../../HighLevel/../LowLevel/Endpoint.h **** 			 *
1106:LUFA-100807/LUFA/Drivers/USB/Class/Device/../../HighLevel/../LowLevel/Endpoint.h **** 			 *  \return A value from the \ref Endpoint_ControlStream_RW_ErrorCodes_t enum.
1107:LUFA-100807/LUFA/Drivers/USB/Class/Device/../../HighLevel/../LowLevel/Endpoint.h **** 			 */
1108:LUFA-100807/LUFA/Drivers/USB/Class/Device/../../HighLevel/../LowLevel/Endpoint.h **** 			uint8_t Endpoint_Write_Control_PStream_LE(const void* Buffer,
1109:LUFA-100807/LUFA/Drivers/USB/Class/Device/../../HighLevel/../LowLevel/Endpoint.h **** 			                                          uint16_t Length) ATTR_NON_NULL_PTR_ARG(1);
1110:LUFA-100807/LUFA/Drivers/USB/Class/Device/../../HighLevel/../LowLevel/Endpoint.h **** 
1111:LUFA-100807/LUFA/Drivers/USB/Class/Device/../../HighLevel/../LowLevel/Endpoint.h **** 			/** Writes the given number of bytes to the CONTROL type endpoint from the given buffer in big e
1112:LUFA-100807/LUFA/Drivers/USB/Class/Device/../../HighLevel/../LowLevel/Endpoint.h **** 			 *  sending full packets to the host as needed. The host OUT acknowledgement is not automaticall
1113:LUFA-100807/LUFA/Drivers/USB/Class/Device/../../HighLevel/../LowLevel/Endpoint.h **** 			 *  in both failure and success states; the user is responsible for manually clearing the setup 
1114:LUFA-100807/LUFA/Drivers/USB/Class/Device/../../HighLevel/../LowLevel/Endpoint.h **** 			 *  finalize the transfer via the \ref Endpoint_ClearOUT() macro.
1115:LUFA-100807/LUFA/Drivers/USB/Class/Device/../../HighLevel/../LowLevel/Endpoint.h **** 			 *
1116:LUFA-100807/LUFA/Drivers/USB/Class/Device/../../HighLevel/../LowLevel/Endpoint.h **** 			 *  \note This function automatically clears the control transfer's status stage. Do not manuall
1117:LUFA-100807/LUFA/Drivers/USB/Class/Device/../../HighLevel/../LowLevel/Endpoint.h **** 			 *        to clear the status stage when using this routine in a control transaction.
1118:LUFA-100807/LUFA/Drivers/USB/Class/Device/../../HighLevel/../LowLevel/Endpoint.h **** 			 *        \n\n
1119:LUFA-100807/LUFA/Drivers/USB/Class/Device/../../HighLevel/../LowLevel/Endpoint.h **** 			 *
1120:LUFA-100807/LUFA/Drivers/USB/Class/Device/../../HighLevel/../LowLevel/Endpoint.h **** 			 *  \note This routine should only be used on CONTROL type endpoints.
1121:LUFA-100807/LUFA/Drivers/USB/Class/Device/../../HighLevel/../LowLevel/Endpoint.h **** 			 *
1122:LUFA-100807/LUFA/Drivers/USB/Class/Device/../../HighLevel/../LowLevel/Endpoint.h **** 			 *  \warning Unlike the standard stream read/write commands, the control stream commands cannot 
1123:LUFA-100807/LUFA/Drivers/USB/Class/Device/../../HighLevel/../LowLevel/Endpoint.h **** 			 *           together; i.e. the entire stream data must be read or written at the one time.
1124:LUFA-100807/LUFA/Drivers/USB/Class/Device/../../HighLevel/../LowLevel/Endpoint.h **** 			 *
1125:LUFA-100807/LUFA/Drivers/USB/Class/Device/../../HighLevel/../LowLevel/Endpoint.h **** 			 *  \ingroup Group_EndpointStreamRW
1126:LUFA-100807/LUFA/Drivers/USB/Class/Device/../../HighLevel/../LowLevel/Endpoint.h **** 			 *
1127:LUFA-100807/LUFA/Drivers/USB/Class/Device/../../HighLevel/../LowLevel/Endpoint.h **** 			 *  \param[in] Buffer  Pointer to the source data buffer to read from.
1128:LUFA-100807/LUFA/Drivers/USB/Class/Device/../../HighLevel/../LowLevel/Endpoint.h **** 			 *  \param[in] Length  Number of bytes to read for the currently selected endpoint into the buff
1129:LUFA-100807/LUFA/Drivers/USB/Class/Device/../../HighLevel/../LowLevel/Endpoint.h **** 			 *
1130:LUFA-100807/LUFA/Drivers/USB/Class/Device/../../HighLevel/../LowLevel/Endpoint.h **** 			 *  \return A value from the \ref Endpoint_ControlStream_RW_ErrorCodes_t enum.
1131:LUFA-100807/LUFA/Drivers/USB/Class/Device/../../HighLevel/../LowLevel/Endpoint.h **** 			 */
1132:LUFA-100807/LUFA/Drivers/USB/Class/Device/../../HighLevel/../LowLevel/Endpoint.h **** 			uint8_t Endpoint_Write_Control_Stream_BE(const void* Buffer,
1133:LUFA-100807/LUFA/Drivers/USB/Class/Device/../../HighLevel/../LowLevel/Endpoint.h **** 			                                         uint16_t Length) ATTR_NON_NULL_PTR_ARG(1);
1134:LUFA-100807/LUFA/Drivers/USB/Class/Device/../../HighLevel/../LowLevel/Endpoint.h **** 
1135:LUFA-100807/LUFA/Drivers/USB/Class/Device/../../HighLevel/../LowLevel/Endpoint.h **** 			/** EEPROM buffer source version of \ref Endpoint_Write_Control_Stream_BE().
1136:LUFA-100807/LUFA/Drivers/USB/Class/Device/../../HighLevel/../LowLevel/Endpoint.h **** 			 *
1137:LUFA-100807/LUFA/Drivers/USB/Class/Device/../../HighLevel/../LowLevel/Endpoint.h **** 			 *  \note This function automatically clears the control transfer's status stage. Do not manuall
1138:LUFA-100807/LUFA/Drivers/USB/Class/Device/../../HighLevel/../LowLevel/Endpoint.h **** 			 *        to clear the status stage when using this routine in a control transaction.
1139:LUFA-100807/LUFA/Drivers/USB/Class/Device/../../HighLevel/../LowLevel/Endpoint.h **** 			 *        \n\n
1140:LUFA-100807/LUFA/Drivers/USB/Class/Device/../../HighLevel/../LowLevel/Endpoint.h **** 			 *
1141:LUFA-100807/LUFA/Drivers/USB/Class/Device/../../HighLevel/../LowLevel/Endpoint.h **** 			 *  \note This routine should only be used on CONTROL type endpoints.
1142:LUFA-100807/LUFA/Drivers/USB/Class/Device/../../HighLevel/../LowLevel/Endpoint.h **** 			 *
1143:LUFA-100807/LUFA/Drivers/USB/Class/Device/../../HighLevel/../LowLevel/Endpoint.h **** 			 *  \warning Unlike the standard stream read/write commands, the control stream commands cannot 
1144:LUFA-100807/LUFA/Drivers/USB/Class/Device/../../HighLevel/../LowLevel/Endpoint.h **** 			 *           together; i.e. the entire stream data must be read or written at the one time.
1145:LUFA-100807/LUFA/Drivers/USB/Class/Device/../../HighLevel/../LowLevel/Endpoint.h **** 			 *
1146:LUFA-100807/LUFA/Drivers/USB/Class/Device/../../HighLevel/../LowLevel/Endpoint.h **** 			 *  \ingroup Group_EndpointStreamRW
1147:LUFA-100807/LUFA/Drivers/USB/Class/Device/../../HighLevel/../LowLevel/Endpoint.h **** 			 *
1148:LUFA-100807/LUFA/Drivers/USB/Class/Device/../../HighLevel/../LowLevel/Endpoint.h **** 			 *  \param[in] Buffer  Pointer to the source data buffer to read from.
1149:LUFA-100807/LUFA/Drivers/USB/Class/Device/../../HighLevel/../LowLevel/Endpoint.h **** 			 *  \param[in] Length  Number of bytes to read for the currently selected endpoint into the buff
1150:LUFA-100807/LUFA/Drivers/USB/Class/Device/../../HighLevel/../LowLevel/Endpoint.h **** 			 *
1151:LUFA-100807/LUFA/Drivers/USB/Class/Device/../../HighLevel/../LowLevel/Endpoint.h **** 			 *  \return A value from the \ref Endpoint_ControlStream_RW_ErrorCodes_t enum.
1152:LUFA-100807/LUFA/Drivers/USB/Class/Device/../../HighLevel/../LowLevel/Endpoint.h **** 			 */
1153:LUFA-100807/LUFA/Drivers/USB/Class/Device/../../HighLevel/../LowLevel/Endpoint.h **** 			uint8_t Endpoint_Write_Control_EStream_BE(const void* Buffer,
1154:LUFA-100807/LUFA/Drivers/USB/Class/Device/../../HighLevel/../LowLevel/Endpoint.h **** 			                                          uint16_t Length) ATTR_NON_NULL_PTR_ARG(1);
1155:LUFA-100807/LUFA/Drivers/USB/Class/Device/../../HighLevel/../LowLevel/Endpoint.h **** 
1156:LUFA-100807/LUFA/Drivers/USB/Class/Device/../../HighLevel/../LowLevel/Endpoint.h **** 			/** FLASH buffer source version of \ref Endpoint_Write_Control_Stream_BE().
1157:LUFA-100807/LUFA/Drivers/USB/Class/Device/../../HighLevel/../LowLevel/Endpoint.h **** 			 *
1158:LUFA-100807/LUFA/Drivers/USB/Class/Device/../../HighLevel/../LowLevel/Endpoint.h **** 			 *  \pre The FLASH data must be located in the first 64KB of FLASH for this function to work cor
1159:LUFA-100807/LUFA/Drivers/USB/Class/Device/../../HighLevel/../LowLevel/Endpoint.h **** 			 *
1160:LUFA-100807/LUFA/Drivers/USB/Class/Device/../../HighLevel/../LowLevel/Endpoint.h **** 			 *  \note This function automatically clears the control transfer's status stage. Do not manuall
1161:LUFA-100807/LUFA/Drivers/USB/Class/Device/../../HighLevel/../LowLevel/Endpoint.h **** 			 *        to clear the status stage when using this routine in a control transaction.
1162:LUFA-100807/LUFA/Drivers/USB/Class/Device/../../HighLevel/../LowLevel/Endpoint.h **** 			 *        \n\n
1163:LUFA-100807/LUFA/Drivers/USB/Class/Device/../../HighLevel/../LowLevel/Endpoint.h **** 			 *
1164:LUFA-100807/LUFA/Drivers/USB/Class/Device/../../HighLevel/../LowLevel/Endpoint.h **** 			 *  \note This routine should only be used on CONTROL type endpoints.
1165:LUFA-100807/LUFA/Drivers/USB/Class/Device/../../HighLevel/../LowLevel/Endpoint.h **** 			 *
1166:LUFA-100807/LUFA/Drivers/USB/Class/Device/../../HighLevel/../LowLevel/Endpoint.h **** 			 *  \warning Unlike the standard stream read/write commands, the control stream commands cannot 
1167:LUFA-100807/LUFA/Drivers/USB/Class/Device/../../HighLevel/../LowLevel/Endpoint.h **** 			 *           together; i.e. the entire stream data must be read or written at the one time.
1168:LUFA-100807/LUFA/Drivers/USB/Class/Device/../../HighLevel/../LowLevel/Endpoint.h **** 			 *
1169:LUFA-100807/LUFA/Drivers/USB/Class/Device/../../HighLevel/../LowLevel/Endpoint.h **** 			 *  \ingroup Group_EndpointStreamRW
1170:LUFA-100807/LUFA/Drivers/USB/Class/Device/../../HighLevel/../LowLevel/Endpoint.h **** 			 *
1171:LUFA-100807/LUFA/Drivers/USB/Class/Device/../../HighLevel/../LowLevel/Endpoint.h **** 			 *  \param[in] Buffer  Pointer to the source data buffer to read from.
1172:LUFA-100807/LUFA/Drivers/USB/Class/Device/../../HighLevel/../LowLevel/Endpoint.h **** 			 *  \param[in] Length  Number of bytes to read for the currently selected endpoint into the buff
1173:LUFA-100807/LUFA/Drivers/USB/Class/Device/../../HighLevel/../LowLevel/Endpoint.h **** 			 *
1174:LUFA-100807/LUFA/Drivers/USB/Class/Device/../../HighLevel/../LowLevel/Endpoint.h **** 			 *  \return A value from the \ref Endpoint_ControlStream_RW_ErrorCodes_t enum.
1175:LUFA-100807/LUFA/Drivers/USB/Class/Device/../../HighLevel/../LowLevel/Endpoint.h **** 			 */
1176:LUFA-100807/LUFA/Drivers/USB/Class/Device/../../HighLevel/../LowLevel/Endpoint.h **** 			uint8_t Endpoint_Write_Control_PStream_BE(const void* Buffer,
1177:LUFA-100807/LUFA/Drivers/USB/Class/Device/../../HighLevel/../LowLevel/Endpoint.h **** 			                                          uint16_t Length) ATTR_NON_NULL_PTR_ARG(1);
1178:LUFA-100807/LUFA/Drivers/USB/Class/Device/../../HighLevel/../LowLevel/Endpoint.h **** 
1179:LUFA-100807/LUFA/Drivers/USB/Class/Device/../../HighLevel/../LowLevel/Endpoint.h **** 			/** Reads the given number of bytes from the CONTROL endpoint from the given buffer in little en
1180:LUFA-100807/LUFA/Drivers/USB/Class/Device/../../HighLevel/../LowLevel/Endpoint.h **** 			 *  discarding fully read packets from the host as needed. The device IN acknowledgement is not
1181:LUFA-100807/LUFA/Drivers/USB/Class/Device/../../HighLevel/../LowLevel/Endpoint.h **** 			 *  automatically sent after success or failure states; the user is responsible for manually sen
1182:LUFA-100807/LUFA/Drivers/USB/Class/Device/../../HighLevel/../LowLevel/Endpoint.h **** 			 *  setup IN to finalize the transfer via the \ref Endpoint_ClearIN() macro.
1183:LUFA-100807/LUFA/Drivers/USB/Class/Device/../../HighLevel/../LowLevel/Endpoint.h **** 			 *
1184:LUFA-100807/LUFA/Drivers/USB/Class/Device/../../HighLevel/../LowLevel/Endpoint.h **** 			 *  \note This function automatically clears the control transfer's status stage. Do not manuall
1185:LUFA-100807/LUFA/Drivers/USB/Class/Device/../../HighLevel/../LowLevel/Endpoint.h **** 			 *        to clear the status stage when using this routine in a control transaction.
1186:LUFA-100807/LUFA/Drivers/USB/Class/Device/../../HighLevel/../LowLevel/Endpoint.h **** 			 *        \n\n
1187:LUFA-100807/LUFA/Drivers/USB/Class/Device/../../HighLevel/../LowLevel/Endpoint.h **** 			 *
1188:LUFA-100807/LUFA/Drivers/USB/Class/Device/../../HighLevel/../LowLevel/Endpoint.h **** 			 *  \note This routine should only be used on CONTROL type endpoints.
1189:LUFA-100807/LUFA/Drivers/USB/Class/Device/../../HighLevel/../LowLevel/Endpoint.h **** 			 *
1190:LUFA-100807/LUFA/Drivers/USB/Class/Device/../../HighLevel/../LowLevel/Endpoint.h **** 			 *  \warning Unlike the standard stream read/write commands, the control stream commands cannot 
1191:LUFA-100807/LUFA/Drivers/USB/Class/Device/../../HighLevel/../LowLevel/Endpoint.h **** 			 *           together; i.e. the entire stream data must be read or written at the one time.
1192:LUFA-100807/LUFA/Drivers/USB/Class/Device/../../HighLevel/../LowLevel/Endpoint.h **** 			 *
1193:LUFA-100807/LUFA/Drivers/USB/Class/Device/../../HighLevel/../LowLevel/Endpoint.h **** 			 *  \ingroup Group_EndpointStreamRW
1194:LUFA-100807/LUFA/Drivers/USB/Class/Device/../../HighLevel/../LowLevel/Endpoint.h **** 			 *
1195:LUFA-100807/LUFA/Drivers/USB/Class/Device/../../HighLevel/../LowLevel/Endpoint.h **** 			 *  \param[out] Buffer  Pointer to the destination data buffer to write to.
1196:LUFA-100807/LUFA/Drivers/USB/Class/Device/../../HighLevel/../LowLevel/Endpoint.h **** 			 *  \param[in]  Length  Number of bytes to send via the currently selected endpoint.
1197:LUFA-100807/LUFA/Drivers/USB/Class/Device/../../HighLevel/../LowLevel/Endpoint.h **** 			 *
1198:LUFA-100807/LUFA/Drivers/USB/Class/Device/../../HighLevel/../LowLevel/Endpoint.h **** 			 *  \return A value from the \ref Endpoint_ControlStream_RW_ErrorCodes_t enum.
1199:LUFA-100807/LUFA/Drivers/USB/Class/Device/../../HighLevel/../LowLevel/Endpoint.h **** 			 */
1200:LUFA-100807/LUFA/Drivers/USB/Class/Device/../../HighLevel/../LowLevel/Endpoint.h **** 			uint8_t Endpoint_Read_Control_Stream_LE(void* Buffer,
1201:LUFA-100807/LUFA/Drivers/USB/Class/Device/../../HighLevel/../LowLevel/Endpoint.h **** 			                                        uint16_t Length) ATTR_NON_NULL_PTR_ARG(1);
1202:LUFA-100807/LUFA/Drivers/USB/Class/Device/../../HighLevel/../LowLevel/Endpoint.h **** 
1203:LUFA-100807/LUFA/Drivers/USB/Class/Device/../../HighLevel/../LowLevel/Endpoint.h **** 			/** EEPROM buffer source version of \ref Endpoint_Read_Control_Stream_LE().
1204:LUFA-100807/LUFA/Drivers/USB/Class/Device/../../HighLevel/../LowLevel/Endpoint.h **** 			 *
1205:LUFA-100807/LUFA/Drivers/USB/Class/Device/../../HighLevel/../LowLevel/Endpoint.h **** 			 *  \note This function automatically clears the control transfer's status stage. Do not manuall
1206:LUFA-100807/LUFA/Drivers/USB/Class/Device/../../HighLevel/../LowLevel/Endpoint.h **** 			 *        to clear the status stage when using this routine in a control transaction.
1207:LUFA-100807/LUFA/Drivers/USB/Class/Device/../../HighLevel/../LowLevel/Endpoint.h **** 			 *        \n\n
1208:LUFA-100807/LUFA/Drivers/USB/Class/Device/../../HighLevel/../LowLevel/Endpoint.h **** 			 *
1209:LUFA-100807/LUFA/Drivers/USB/Class/Device/../../HighLevel/../LowLevel/Endpoint.h **** 			 *  \note This routine should only be used on CONTROL type endpoints.
1210:LUFA-100807/LUFA/Drivers/USB/Class/Device/../../HighLevel/../LowLevel/Endpoint.h **** 			 *
1211:LUFA-100807/LUFA/Drivers/USB/Class/Device/../../HighLevel/../LowLevel/Endpoint.h **** 			 *  \warning Unlike the standard stream read/write commands, the control stream commands cannot 
1212:LUFA-100807/LUFA/Drivers/USB/Class/Device/../../HighLevel/../LowLevel/Endpoint.h **** 			 *           together; i.e. the entire stream data must be read or written at the one time.
1213:LUFA-100807/LUFA/Drivers/USB/Class/Device/../../HighLevel/../LowLevel/Endpoint.h **** 			 *
1214:LUFA-100807/LUFA/Drivers/USB/Class/Device/../../HighLevel/../LowLevel/Endpoint.h **** 			 *  \ingroup Group_EndpointStreamRW
1215:LUFA-100807/LUFA/Drivers/USB/Class/Device/../../HighLevel/../LowLevel/Endpoint.h **** 			 *
1216:LUFA-100807/LUFA/Drivers/USB/Class/Device/../../HighLevel/../LowLevel/Endpoint.h **** 			 *  \param[out] Buffer  Pointer to the destination data buffer to write to.
1217:LUFA-100807/LUFA/Drivers/USB/Class/Device/../../HighLevel/../LowLevel/Endpoint.h **** 			 *  \param[in]  Length  Number of bytes to send via the currently selected endpoint.
1218:LUFA-100807/LUFA/Drivers/USB/Class/Device/../../HighLevel/../LowLevel/Endpoint.h **** 			 *
1219:LUFA-100807/LUFA/Drivers/USB/Class/Device/../../HighLevel/../LowLevel/Endpoint.h **** 			 *  \return A value from the \ref Endpoint_ControlStream_RW_ErrorCodes_t enum.
1220:LUFA-100807/LUFA/Drivers/USB/Class/Device/../../HighLevel/../LowLevel/Endpoint.h **** 			 */
1221:LUFA-100807/LUFA/Drivers/USB/Class/Device/../../HighLevel/../LowLevel/Endpoint.h **** 			uint8_t Endpoint_Read_Control_EStream_LE(void* Buffer,
1222:LUFA-100807/LUFA/Drivers/USB/Class/Device/../../HighLevel/../LowLevel/Endpoint.h **** 			                                         uint16_t Length) ATTR_NON_NULL_PTR_ARG(1);
1223:LUFA-100807/LUFA/Drivers/USB/Class/Device/../../HighLevel/../LowLevel/Endpoint.h **** 
1224:LUFA-100807/LUFA/Drivers/USB/Class/Device/../../HighLevel/../LowLevel/Endpoint.h **** 			/** Reads the given number of bytes from the CONTROL endpoint from the given buffer in big endia
1225:LUFA-100807/LUFA/Drivers/USB/Class/Device/../../HighLevel/../LowLevel/Endpoint.h **** 			 *  discarding fully read packets from the host as needed. The device IN acknowledgement is not
1226:LUFA-100807/LUFA/Drivers/USB/Class/Device/../../HighLevel/../LowLevel/Endpoint.h **** 			 *  automatically sent after success or failure states; the user is responsible for manually sen
1227:LUFA-100807/LUFA/Drivers/USB/Class/Device/../../HighLevel/../LowLevel/Endpoint.h **** 			 *  setup IN to finalize the transfer via the \ref Endpoint_ClearIN() macro.
1228:LUFA-100807/LUFA/Drivers/USB/Class/Device/../../HighLevel/../LowLevel/Endpoint.h **** 			 *
1229:LUFA-100807/LUFA/Drivers/USB/Class/Device/../../HighLevel/../LowLevel/Endpoint.h **** 			 *  \note This function automatically clears the control transfer's status stage. Do not manuall
1230:LUFA-100807/LUFA/Drivers/USB/Class/Device/../../HighLevel/../LowLevel/Endpoint.h **** 			 *        to clear the status stage when using this routine in a control transaction.
1231:LUFA-100807/LUFA/Drivers/USB/Class/Device/../../HighLevel/../LowLevel/Endpoint.h **** 			 *        \n\n
1232:LUFA-100807/LUFA/Drivers/USB/Class/Device/../../HighLevel/../LowLevel/Endpoint.h **** 			 *
1233:LUFA-100807/LUFA/Drivers/USB/Class/Device/../../HighLevel/../LowLevel/Endpoint.h **** 			 *  \note This routine should only be used on CONTROL type endpoints.
1234:LUFA-100807/LUFA/Drivers/USB/Class/Device/../../HighLevel/../LowLevel/Endpoint.h **** 			 *
1235:LUFA-100807/LUFA/Drivers/USB/Class/Device/../../HighLevel/../LowLevel/Endpoint.h **** 			 *  \warning Unlike the standard stream read/write commands, the control stream commands cannot 
1236:LUFA-100807/LUFA/Drivers/USB/Class/Device/../../HighLevel/../LowLevel/Endpoint.h **** 			 *           together; i.e. the entire stream data must be read or written at the one time.
1237:LUFA-100807/LUFA/Drivers/USB/Class/Device/../../HighLevel/../LowLevel/Endpoint.h **** 			 *
1238:LUFA-100807/LUFA/Drivers/USB/Class/Device/../../HighLevel/../LowLevel/Endpoint.h **** 			 *  \ingroup Group_EndpointStreamRW
1239:LUFA-100807/LUFA/Drivers/USB/Class/Device/../../HighLevel/../LowLevel/Endpoint.h **** 			 *
1240:LUFA-100807/LUFA/Drivers/USB/Class/Device/../../HighLevel/../LowLevel/Endpoint.h **** 			 *  \param[out] Buffer  Pointer to the destination data buffer to write to.
1241:LUFA-100807/LUFA/Drivers/USB/Class/Device/../../HighLevel/../LowLevel/Endpoint.h **** 			 *  \param[in]  Length  Number of bytes to send via the currently selected endpoint.
1242:LUFA-100807/LUFA/Drivers/USB/Class/Device/../../HighLevel/../LowLevel/Endpoint.h **** 			 *
1243:LUFA-100807/LUFA/Drivers/USB/Class/Device/../../HighLevel/../LowLevel/Endpoint.h **** 			 *  \return A value from the \ref Endpoint_ControlStream_RW_ErrorCodes_t enum.
1244:LUFA-100807/LUFA/Drivers/USB/Class/Device/../../HighLevel/../LowLevel/Endpoint.h **** 			 */
1245:LUFA-100807/LUFA/Drivers/USB/Class/Device/../../HighLevel/../LowLevel/Endpoint.h **** 			uint8_t Endpoint_Read_Control_Stream_BE(void* Buffer,
1246:LUFA-100807/LUFA/Drivers/USB/Class/Device/../../HighLevel/../LowLevel/Endpoint.h **** 			                                        uint16_t Length) ATTR_NON_NULL_PTR_ARG(1);
1247:LUFA-100807/LUFA/Drivers/USB/Class/Device/../../HighLevel/../LowLevel/Endpoint.h **** 			
1248:LUFA-100807/LUFA/Drivers/USB/Class/Device/../../HighLevel/../LowLevel/Endpoint.h **** 			/** EEPROM buffer source version of \ref Endpoint_Read_Control_Stream_BE().
1249:LUFA-100807/LUFA/Drivers/USB/Class/Device/../../HighLevel/../LowLevel/Endpoint.h **** 			 *
1250:LUFA-100807/LUFA/Drivers/USB/Class/Device/../../HighLevel/../LowLevel/Endpoint.h **** 			 *  \note This function automatically clears the control transfer's status stage. Do not manuall
1251:LUFA-100807/LUFA/Drivers/USB/Class/Device/../../HighLevel/../LowLevel/Endpoint.h **** 			 *        to clear the status stage when using this routine in a control transaction.
1252:LUFA-100807/LUFA/Drivers/USB/Class/Device/../../HighLevel/../LowLevel/Endpoint.h **** 			 *        \n\n
1253:LUFA-100807/LUFA/Drivers/USB/Class/Device/../../HighLevel/../LowLevel/Endpoint.h **** 			 *
1254:LUFA-100807/LUFA/Drivers/USB/Class/Device/../../HighLevel/../LowLevel/Endpoint.h **** 			 *  \note This routine should only be used on CONTROL type endpoints.
1255:LUFA-100807/LUFA/Drivers/USB/Class/Device/../../HighLevel/../LowLevel/Endpoint.h **** 			 *
1256:LUFA-100807/LUFA/Drivers/USB/Class/Device/../../HighLevel/../LowLevel/Endpoint.h **** 			 *  \warning Unlike the standard stream read/write commands, the control stream commands cannot 
1257:LUFA-100807/LUFA/Drivers/USB/Class/Device/../../HighLevel/../LowLevel/Endpoint.h **** 			 *           together; i.e. the entire stream data must be read or written at the one time.
1258:LUFA-100807/LUFA/Drivers/USB/Class/Device/../../HighLevel/../LowLevel/Endpoint.h **** 			 *
1259:LUFA-100807/LUFA/Drivers/USB/Class/Device/../../HighLevel/../LowLevel/Endpoint.h **** 			 *  \ingroup Group_EndpointStreamRW
1260:LUFA-100807/LUFA/Drivers/USB/Class/Device/../../HighLevel/../LowLevel/Endpoint.h **** 			 *
1261:LUFA-100807/LUFA/Drivers/USB/Class/Device/../../HighLevel/../LowLevel/Endpoint.h **** 			 *  \param[out] Buffer  Pointer to the destination data buffer to write to.
1262:LUFA-100807/LUFA/Drivers/USB/Class/Device/../../HighLevel/../LowLevel/Endpoint.h **** 			 *  \param[in]  Length  Number of bytes to send via the currently selected endpoint.
1263:LUFA-100807/LUFA/Drivers/USB/Class/Device/../../HighLevel/../LowLevel/Endpoint.h **** 			 *
1264:LUFA-100807/LUFA/Drivers/USB/Class/Device/../../HighLevel/../LowLevel/Endpoint.h **** 			 *  \return A value from the \ref Endpoint_ControlStream_RW_ErrorCodes_t enum.
1265:LUFA-100807/LUFA/Drivers/USB/Class/Device/../../HighLevel/../LowLevel/Endpoint.h **** 			 */
1266:LUFA-100807/LUFA/Drivers/USB/Class/Device/../../HighLevel/../LowLevel/Endpoint.h **** 			uint8_t Endpoint_Read_Control_EStream_BE(void* Buffer,
1267:LUFA-100807/LUFA/Drivers/USB/Class/Device/../../HighLevel/../LowLevel/Endpoint.h **** 			                                         uint16_t Length) ATTR_NON_NULL_PTR_ARG(1);
1268:LUFA-100807/LUFA/Drivers/USB/Class/Device/../../HighLevel/../LowLevel/Endpoint.h **** 
1269:LUFA-100807/LUFA/Drivers/USB/Class/Device/../../HighLevel/../LowLevel/Endpoint.h **** 	/* Private Interface - For use in library only: */
1270:LUFA-100807/LUFA/Drivers/USB/Class/Device/../../HighLevel/../LowLevel/Endpoint.h **** 	#if !defined(__DOXYGEN__)
1271:LUFA-100807/LUFA/Drivers/USB/Class/Device/../../HighLevel/../LowLevel/Endpoint.h **** 		/* Macros: */
1272:LUFA-100807/LUFA/Drivers/USB/Class/Device/../../HighLevel/../LowLevel/Endpoint.h **** 			#define _ENDPOINT_GET_MAXSIZE(n)               _ENDPOINT_GET_MAXSIZE2(ENDPOINT_DETAILS_EP ## n)
1273:LUFA-100807/LUFA/Drivers/USB/Class/Device/../../HighLevel/../LowLevel/Endpoint.h **** 			#define _ENDPOINT_GET_MAXSIZE2(details)        _ENDPOINT_GET_MAXSIZE3(details)
1274:LUFA-100807/LUFA/Drivers/USB/Class/Device/../../HighLevel/../LowLevel/Endpoint.h **** 			#define _ENDPOINT_GET_MAXSIZE3(maxsize, db)    maxsize
1275:LUFA-100807/LUFA/Drivers/USB/Class/Device/../../HighLevel/../LowLevel/Endpoint.h **** 
1276:LUFA-100807/LUFA/Drivers/USB/Class/Device/../../HighLevel/../LowLevel/Endpoint.h **** 			#define _ENDPOINT_GET_DOUBLEBANK(n)            _ENDPOINT_GET_DOUBLEBANK2(ENDPOINT_DETAILS_EP ## 
1277:LUFA-100807/LUFA/Drivers/USB/Class/Device/../../HighLevel/../LowLevel/Endpoint.h **** 			#define _ENDPOINT_GET_DOUBLEBANK2(details)     _ENDPOINT_GET_DOUBLEBANK3(details)
1278:LUFA-100807/LUFA/Drivers/USB/Class/Device/../../HighLevel/../LowLevel/Endpoint.h **** 			#define _ENDPOINT_GET_DOUBLEBANK3(maxsize, db) db
1279:LUFA-100807/LUFA/Drivers/USB/Class/Device/../../HighLevel/../LowLevel/Endpoint.h **** 			
1280:LUFA-100807/LUFA/Drivers/USB/Class/Device/../../HighLevel/../LowLevel/Endpoint.h **** 			#if defined(USB_SERIES_4_AVR) || defined(USB_SERIES_6_AVR) || defined(USB_SERIES_7_AVR)
1281:LUFA-100807/LUFA/Drivers/USB/Class/Device/../../HighLevel/../LowLevel/Endpoint.h **** 				#define ENDPOINT_DETAILS_EP0               64,  true
1282:LUFA-100807/LUFA/Drivers/USB/Class/Device/../../HighLevel/../LowLevel/Endpoint.h **** 				#define ENDPOINT_DETAILS_EP1               256, true
1283:LUFA-100807/LUFA/Drivers/USB/Class/Device/../../HighLevel/../LowLevel/Endpoint.h **** 				#define ENDPOINT_DETAILS_EP2               64,  true
1284:LUFA-100807/LUFA/Drivers/USB/Class/Device/../../HighLevel/../LowLevel/Endpoint.h **** 				#define ENDPOINT_DETAILS_EP3               64,  true
1285:LUFA-100807/LUFA/Drivers/USB/Class/Device/../../HighLevel/../LowLevel/Endpoint.h **** 				#define ENDPOINT_DETAILS_EP4               64,  true
1286:LUFA-100807/LUFA/Drivers/USB/Class/Device/../../HighLevel/../LowLevel/Endpoint.h **** 				#define ENDPOINT_DETAILS_EP5               64,  true
1287:LUFA-100807/LUFA/Drivers/USB/Class/Device/../../HighLevel/../LowLevel/Endpoint.h **** 				#define ENDPOINT_DETAILS_EP6               64,  true
1288:LUFA-100807/LUFA/Drivers/USB/Class/Device/../../HighLevel/../LowLevel/Endpoint.h **** 			#else
1289:LUFA-100807/LUFA/Drivers/USB/Class/Device/../../HighLevel/../LowLevel/Endpoint.h **** 				#define ENDPOINT_DETAILS_EP0               64,  true
1290:LUFA-100807/LUFA/Drivers/USB/Class/Device/../../HighLevel/../LowLevel/Endpoint.h **** 				#define ENDPOINT_DETAILS_EP1               64,  false
1291:LUFA-100807/LUFA/Drivers/USB/Class/Device/../../HighLevel/../LowLevel/Endpoint.h **** 				#define ENDPOINT_DETAILS_EP2               64,  false
1292:LUFA-100807/LUFA/Drivers/USB/Class/Device/../../HighLevel/../LowLevel/Endpoint.h **** 				#define ENDPOINT_DETAILS_EP3               64,  true
1293:LUFA-100807/LUFA/Drivers/USB/Class/Device/../../HighLevel/../LowLevel/Endpoint.h **** 				#define ENDPOINT_DETAILS_EP4               64,  true			
1294:LUFA-100807/LUFA/Drivers/USB/Class/Device/../../HighLevel/../LowLevel/Endpoint.h **** 			#endif
1295:LUFA-100807/LUFA/Drivers/USB/Class/Device/../../HighLevel/../LowLevel/Endpoint.h **** 
1296:LUFA-100807/LUFA/Drivers/USB/Class/Device/../../HighLevel/../LowLevel/Endpoint.h **** 			#define Endpoint_ConfigureEndpoint(Number, Type, Direction, Size, Banks)                        
1297:LUFA-100807/LUFA/Drivers/USB/Class/Device/../../HighLevel/../LowLevel/Endpoint.h **** 			                     (__builtin_constant_p(Size) ? Endpoint_ConfigureEndpointStatic((Number),   
1298:LUFA-100807/LUFA/Drivers/USB/Class/Device/../../HighLevel/../LowLevel/Endpoint.h **** 			                                                                                    (Type),     
1299:LUFA-100807/LUFA/Drivers/USB/Class/Device/../../HighLevel/../LowLevel/Endpoint.h **** 			                                                                                    (Direction),
1300:LUFA-100807/LUFA/Drivers/USB/Class/Device/../../HighLevel/../LowLevel/Endpoint.h **** 			                                                                                    Size, Banks)
1301:LUFA-100807/LUFA/Drivers/USB/Class/Device/../../HighLevel/../LowLevel/Endpoint.h **** 			                                                   Endpoint_ConfigureEndpointDynamic((Number),  
1302:LUFA-100807/LUFA/Drivers/USB/Class/Device/../../HighLevel/../LowLevel/Endpoint.h **** 			                                                                                     (Type),    
1303:LUFA-100807/LUFA/Drivers/USB/Class/Device/../../HighLevel/../LowLevel/Endpoint.h **** 			                                                                                     (Direction)
1304:LUFA-100807/LUFA/Drivers/USB/Class/Device/../../HighLevel/../LowLevel/Endpoint.h **** 			                                                                                     Size, Banks
1305:LUFA-100807/LUFA/Drivers/USB/Class/Device/../../HighLevel/../LowLevel/Endpoint.h **** 
1306:LUFA-100807/LUFA/Drivers/USB/Class/Device/../../HighLevel/../LowLevel/Endpoint.h **** 		/* Function Prototypes: */
1307:LUFA-100807/LUFA/Drivers/USB/Class/Device/../../HighLevel/../LowLevel/Endpoint.h **** 			void    Endpoint_ClearEndpoints(void);
1308:LUFA-100807/LUFA/Drivers/USB/Class/Device/../../HighLevel/../LowLevel/Endpoint.h **** 			uint8_t Endpoint_BytesToEPSizeMaskDynamic(const uint16_t Size);
1309:LUFA-100807/LUFA/Drivers/USB/Class/Device/../../HighLevel/../LowLevel/Endpoint.h **** 			bool    Endpoint_ConfigureEndpoint_Prv(const uint8_t Number,
1310:LUFA-100807/LUFA/Drivers/USB/Class/Device/../../HighLevel/../LowLevel/Endpoint.h **** 			                                       const uint8_t UECFG0XData,
1311:LUFA-100807/LUFA/Drivers/USB/Class/Device/../../HighLevel/../LowLevel/Endpoint.h **** 			                                       const uint8_t UECFG1XData);			
1312:LUFA-100807/LUFA/Drivers/USB/Class/Device/../../HighLevel/../LowLevel/Endpoint.h **** 
1313:LUFA-100807/LUFA/Drivers/USB/Class/Device/../../HighLevel/../LowLevel/Endpoint.h **** 		/* Inline Functions: */
1314:LUFA-100807/LUFA/Drivers/USB/Class/Device/../../HighLevel/../LowLevel/Endpoint.h **** 			static inline uint8_t Endpoint_BytesToEPSizeMask(const uint16_t Bytes) ATTR_WARN_UNUSED_RESULT A
1315:LUFA-100807/LUFA/Drivers/USB/Class/Device/../../HighLevel/../LowLevel/Endpoint.h **** 			static inline uint8_t Endpoint_BytesToEPSizeMask(const uint16_t Bytes)
1316:LUFA-100807/LUFA/Drivers/USB/Class/Device/../../HighLevel/../LowLevel/Endpoint.h **** 			{
1317:LUFA-100807/LUFA/Drivers/USB/Class/Device/../../HighLevel/../LowLevel/Endpoint.h **** 				uint8_t  MaskVal    = 0;
1318:LUFA-100807/LUFA/Drivers/USB/Class/Device/../../HighLevel/../LowLevel/Endpoint.h **** 				uint16_t CheckBytes = 8;
1319:LUFA-100807/LUFA/Drivers/USB/Class/Device/../../HighLevel/../LowLevel/Endpoint.h **** 				
1320:LUFA-100807/LUFA/Drivers/USB/Class/Device/../../HighLevel/../LowLevel/Endpoint.h **** 				while (CheckBytes < Bytes)
1321:LUFA-100807/LUFA/Drivers/USB/Class/Device/../../HighLevel/../LowLevel/Endpoint.h **** 				{
1322:LUFA-100807/LUFA/Drivers/USB/Class/Device/../../HighLevel/../LowLevel/Endpoint.h **** 					MaskVal++;
1323:LUFA-100807/LUFA/Drivers/USB/Class/Device/../../HighLevel/../LowLevel/Endpoint.h **** 					CheckBytes <<= 1;
1324:LUFA-100807/LUFA/Drivers/USB/Class/Device/../../HighLevel/../LowLevel/Endpoint.h **** 				}
1325:LUFA-100807/LUFA/Drivers/USB/Class/Device/../../HighLevel/../LowLevel/Endpoint.h **** 				
1326:LUFA-100807/LUFA/Drivers/USB/Class/Device/../../HighLevel/../LowLevel/Endpoint.h **** 				return (MaskVal << EPSIZE0);
1327:LUFA-100807/LUFA/Drivers/USB/Class/Device/../../HighLevel/../LowLevel/Endpoint.h **** 			}
1328:LUFA-100807/LUFA/Drivers/USB/Class/Device/../../HighLevel/../LowLevel/Endpoint.h **** 			
1329:LUFA-100807/LUFA/Drivers/USB/Class/Device/../../HighLevel/../LowLevel/Endpoint.h **** 			static inline bool Endpoint_ConfigureEndpointStatic(const uint8_t Number,
1330:LUFA-100807/LUFA/Drivers/USB/Class/Device/../../HighLevel/../LowLevel/Endpoint.h **** 			                                                    const uint8_t Type,
1331:LUFA-100807/LUFA/Drivers/USB/Class/Device/../../HighLevel/../LowLevel/Endpoint.h **** 			                                                    const uint8_t Direction,
1332:LUFA-100807/LUFA/Drivers/USB/Class/Device/../../HighLevel/../LowLevel/Endpoint.h **** 			                                                    const uint16_t Size,
1333:LUFA-100807/LUFA/Drivers/USB/Class/Device/../../HighLevel/../LowLevel/Endpoint.h **** 			                                                    const uint8_t Banks)
1334:LUFA-100807/LUFA/Drivers/USB/Class/Device/../../HighLevel/../LowLevel/Endpoint.h **** 			{
1335:LUFA-100807/LUFA/Drivers/USB/Class/Device/../../HighLevel/../LowLevel/Endpoint.h **** 				return Endpoint_ConfigureEndpoint_Prv(Number, (((Type) << EPTYPE0) | (Direction)),
1336:LUFA-100807/LUFA/Drivers/USB/Class/Device/../../HighLevel/../LowLevel/Endpoint.h **** 				                                      ((1 << ALLOC) | Banks | Endpoint_BytesToEPSizeMask(Size))
1337:LUFA-100807/LUFA/Drivers/USB/Class/Device/../../HighLevel/../LowLevel/Endpoint.h **** 			}
1338:LUFA-100807/LUFA/Drivers/USB/Class/Device/../../HighLevel/../LowLevel/Endpoint.h **** 
1339:LUFA-100807/LUFA/Drivers/USB/Class/Device/../../HighLevel/../LowLevel/Endpoint.h **** 			static inline bool Endpoint_ConfigureEndpointDynamic(const uint8_t Number,
 585               		.loc 2 1339 23 is_stmt 1 discriminator 11 view .LVU133
 586               	.LBB82:
1340:LUFA-100807/LUFA/Drivers/USB/Class/Device/../../HighLevel/../LowLevel/Endpoint.h **** 			                                                     const uint8_t Type,
1341:LUFA-100807/LUFA/Drivers/USB/Class/Device/../../HighLevel/../LowLevel/Endpoint.h **** 			                                                     const uint8_t Direction,
1342:LUFA-100807/LUFA/Drivers/USB/Class/Device/../../HighLevel/../LowLevel/Endpoint.h **** 			                                                     const uint16_t Size,
1343:LUFA-100807/LUFA/Drivers/USB/Class/Device/../../HighLevel/../LowLevel/Endpoint.h **** 			                                                     const uint8_t Banks)
1344:LUFA-100807/LUFA/Drivers/USB/Class/Device/../../HighLevel/../LowLevel/Endpoint.h **** 			{
1345:LUFA-100807/LUFA/Drivers/USB/Class/Device/../../HighLevel/../LowLevel/Endpoint.h **** 				return Endpoint_ConfigureEndpoint_Prv(Number, (((Type) << EPTYPE0) | (Direction)),
 587               		.loc 2 1345 5 discriminator 11 view .LVU134
1346:LUFA-100807/LUFA/Drivers/USB/Class/Device/../../HighLevel/../LowLevel/Endpoint.h **** 				                                      ((1 << ALLOC) | Banks | Endpoint_BytesToEPSizeMaskDynamic
 588               		.loc 2 1346 67 is_stmt 0 discriminator 11 view .LVU135
 589 0024 0E94 0000 		call Endpoint_BytesToEPSizeMaskDynamic
 590               	.LVL26:
1345:LUFA-100807/LUFA/Drivers/USB/Class/Device/../../HighLevel/../LowLevel/Endpoint.h **** 				                                      ((1 << ALLOC) | Banks | Endpoint_BytesToEPSizeMaskDynamic
 591               		.loc 2 1345 12 discriminator 11 view .LVU136
 592 0028 4C2F      		mov r20,r28
 593 002a 482B      		or r20,r24
 594 002c 4260      		ori r20,lo8(2)
 595 002e 61EC      		ldi r22,lo8(-63)
 596 0030 8D2F      		mov r24,r29
 597               	/* epilogue start */
 598               	.LBE82:
 599               	.LBE81:
 143:LUFA-100807/LUFA/Drivers/USB/Class/Device/HID.c **** 									 ENDPOINT_DIR_IN, HIDInterfaceInfo->Config.ReportINEndpointSize,
 144:LUFA-100807/LUFA/Drivers/USB/Class/Device/HID.c **** 									 HIDInterfaceInfo->Config.ReportINEndpointDoubleBank ? ENDPOINT_BANK_DOUBLE : ENDPOINT_BAN
 145:LUFA-100807/LUFA/Drivers/USB/Class/Device/HID.c **** 	{
 146:LUFA-100807/LUFA/Drivers/USB/Class/Device/HID.c **** 		return false;
 147:LUFA-100807/LUFA/Drivers/USB/Class/Device/HID.c **** 	}
 148:LUFA-100807/LUFA/Drivers/USB/Class/Device/HID.c **** 	
 149:LUFA-100807/LUFA/Drivers/USB/Class/Device/HID.c **** 	return true;
 150:LUFA-100807/LUFA/Drivers/USB/Class/Device/HID.c **** }
 600               		.loc 1 150 1 discriminator 11 view .LVU137
 601 0032 DF91      		pop r29
 602               	.LVL27:
 603               		.loc 1 150 1 discriminator 11 view .LVU138
 604 0034 CF91      		pop r28
 605               	.LVL28:
 606               	.LBB84:
 607               	.LBB83:
1345:LUFA-100807/LUFA/Drivers/USB/Class/Device/../../HighLevel/../LowLevel/Endpoint.h **** 				                                      ((1 << ALLOC) | Banks | Endpoint_BytesToEPSizeMaskDynamic
 608               		.loc 2 1345 12 discriminator 11 view .LVU139
 609 0036 0C94 0000 		jmp Endpoint_ConfigureEndpoint_Prv
 610               	.LVL29:
1345:LUFA-100807/LUFA/Drivers/USB/Class/Device/../../HighLevel/../LowLevel/Endpoint.h **** 				                                      ((1 << ALLOC) | Banks | Endpoint_BytesToEPSizeMaskDynamic
 611               		.loc 2 1345 12 discriminator 11 view .LVU140
 612               	.LBE83:
 613               	.LBE84:
 614               		.cfi_endproc
 615               	.LFE67:
 617               		.section	.text.HID_Device_USBTask,"ax",@progbits
 618               	.global	HID_Device_USBTask
 620               	HID_Device_USBTask:
 621               	.LVL30:
 622               	.LFB68:
 151:LUFA-100807/LUFA/Drivers/USB/Class/Device/HID.c **** 		
 152:LUFA-100807/LUFA/Drivers/USB/Class/Device/HID.c **** void HID_Device_USBTask(USB_ClassInfo_HID_Device_t* const HIDInterfaceInfo)
 153:LUFA-100807/LUFA/Drivers/USB/Class/Device/HID.c **** {
 623               		.loc 1 153 1 is_stmt 1 view -0
 624               		.cfi_startproc
 625               		.loc 1 153 1 is_stmt 0 view .LVU142
 626 0000 9F92      		push r9
 627               	.LCFI14:
 628               		.cfi_def_cfa_offset 3
 629               		.cfi_offset 9, -2
 630 0002 AF92      		push r10
 631               	.LCFI15:
 632               		.cfi_def_cfa_offset 4
 633               		.cfi_offset 10, -3
 634 0004 BF92      		push r11
 635               	.LCFI16:
 636               		.cfi_def_cfa_offset 5
 637               		.cfi_offset 11, -4
 638 0006 CF92      		push r12
 639               	.LCFI17:
 640               		.cfi_def_cfa_offset 6
 641               		.cfi_offset 12, -5
 642 0008 DF92      		push r13
 643               	.LCFI18:
 644               		.cfi_def_cfa_offset 7
 645               		.cfi_offset 13, -6
 646 000a EF92      		push r14
 647               	.LCFI19:
 648               		.cfi_def_cfa_offset 8
 649               		.cfi_offset 14, -7
 650 000c FF92      		push r15
 651               	.LCFI20:
 652               		.cfi_def_cfa_offset 9
 653               		.cfi_offset 15, -8
 654 000e 0F93      		push r16
 655               	.LCFI21:
 656               		.cfi_def_cfa_offset 10
 657               		.cfi_offset 16, -9
 658 0010 1F93      		push r17
 659               	.LCFI22:
 660               		.cfi_def_cfa_offset 11
 661               		.cfi_offset 17, -10
 662 0012 CF93      		push r28
 663               	.LCFI23:
 664               		.cfi_def_cfa_offset 12
 665               		.cfi_offset 28, -11
 666 0014 DF93      		push r29
 667               	.LCFI24:
 668               		.cfi_def_cfa_offset 13
 669               		.cfi_offset 29, -12
 670 0016 00D0      		rcall .
 671 0018 00D0      		rcall .
 672 001a 00D0      		rcall .
 673 001c 0F92      		push __tmp_reg__
 674               	.LCFI25:
 675               		.cfi_def_cfa_offset 20
 676 001e CDB7      		in r28,__SP_L__
 677 0020 DEB7      		in r29,__SP_H__
 678               	.LCFI26:
 679               		.cfi_def_cfa_register 28
 680               	/* prologue: function */
 681               	/* frame size = 7 */
 682               	/* stack size = 18 */
 683               	.L__stack_usage = 18
 684 0022 7C01      		movw r14,r24
 154:LUFA-100807/LUFA/Drivers/USB/Class/Device/HID.c **** 	if (USB_DeviceState != DEVICE_STATE_Configured)
 155:LUFA-100807/LUFA/Drivers/USB/Class/Device/HID.c **** 	  return;
 156:LUFA-100807/LUFA/Drivers/USB/Class/Device/HID.c **** 
 157:LUFA-100807/LUFA/Drivers/USB/Class/Device/HID.c **** 	Endpoint_SelectEndpoint(HIDInterfaceInfo->Config.ReportINEndpointNumber);
 158:LUFA-100807/LUFA/Drivers/USB/Class/Device/HID.c **** 	
 159:LUFA-100807/LUFA/Drivers/USB/Class/Device/HID.c **** 	if (Endpoint_IsReadWriteAllowed())
 160:LUFA-100807/LUFA/Drivers/USB/Class/Device/HID.c **** 	{
 161:LUFA-100807/LUFA/Drivers/USB/Class/Device/HID.c **** 		uint8_t  ReportINData[HIDInterfaceInfo->Config.PrevReportINBufferSize];
 162:LUFA-100807/LUFA/Drivers/USB/Class/Device/HID.c **** 		uint8_t  ReportID     = 0;
 163:LUFA-100807/LUFA/Drivers/USB/Class/Device/HID.c **** 		uint16_t ReportINSize = 0;
 164:LUFA-100807/LUFA/Drivers/USB/Class/Device/HID.c **** 
 165:LUFA-100807/LUFA/Drivers/USB/Class/Device/HID.c **** 		memset(ReportINData, 0, sizeof(ReportINData));
 166:LUFA-100807/LUFA/Drivers/USB/Class/Device/HID.c **** 
 167:LUFA-100807/LUFA/Drivers/USB/Class/Device/HID.c **** 		bool ForceSend         = CALLBACK_HID_Device_CreateHIDReport(HIDInterfaceInfo, &ReportID, REPORT_
 168:LUFA-100807/LUFA/Drivers/USB/Class/Device/HID.c **** 		                                                             ReportINData, &ReportINSize);
 169:LUFA-100807/LUFA/Drivers/USB/Class/Device/HID.c **** 		bool StatesChanged     = false;
 170:LUFA-100807/LUFA/Drivers/USB/Class/Device/HID.c **** 		bool IdlePeriodElapsed = (HIDInterfaceInfo->State.IdleCount && !(HIDInterfaceInfo->State.IdleMSRe
 171:LUFA-100807/LUFA/Drivers/USB/Class/Device/HID.c **** 		
 172:LUFA-100807/LUFA/Drivers/USB/Class/Device/HID.c **** 		if (HIDInterfaceInfo->Config.PrevReportINBuffer != NULL)
 173:LUFA-100807/LUFA/Drivers/USB/Class/Device/HID.c **** 		{
 174:LUFA-100807/LUFA/Drivers/USB/Class/Device/HID.c **** 			StatesChanged = (memcmp(ReportINData, HIDInterfaceInfo->Config.PrevReportINBuffer, ReportINSize)
 175:LUFA-100807/LUFA/Drivers/USB/Class/Device/HID.c **** 			memcpy(HIDInterfaceInfo->Config.PrevReportINBuffer, ReportINData, HIDInterfaceInfo->Config.PrevR
 176:LUFA-100807/LUFA/Drivers/USB/Class/Device/HID.c **** 		}
 177:LUFA-100807/LUFA/Drivers/USB/Class/Device/HID.c **** 
 178:LUFA-100807/LUFA/Drivers/USB/Class/Device/HID.c **** 		if (ReportINSize && (ForceSend || StatesChanged || IdlePeriodElapsed))
 179:LUFA-100807/LUFA/Drivers/USB/Class/Device/HID.c **** 		{
 180:LUFA-100807/LUFA/Drivers/USB/Class/Device/HID.c **** 			HIDInterfaceInfo->State.IdleMSRemaining = HIDInterfaceInfo->State.IdleCount;
 181:LUFA-100807/LUFA/Drivers/USB/Class/Device/HID.c **** 
 182:LUFA-100807/LUFA/Drivers/USB/Class/Device/HID.c **** 			Endpoint_SelectEndpoint(HIDInterfaceInfo->Config.ReportINEndpointNumber);
 183:LUFA-100807/LUFA/Drivers/USB/Class/Device/HID.c **** 
 184:LUFA-100807/LUFA/Drivers/USB/Class/Device/HID.c **** 			if (ReportID)
 185:LUFA-100807/LUFA/Drivers/USB/Class/Device/HID.c **** 			  Endpoint_Write_Byte(ReportID);
 186:LUFA-100807/LUFA/Drivers/USB/Class/Device/HID.c **** 
 187:LUFA-100807/LUFA/Drivers/USB/Class/Device/HID.c **** 			Endpoint_Write_Stream_LE(ReportINData, ReportINSize, NO_STREAM_CALLBACK);
 188:LUFA-100807/LUFA/Drivers/USB/Class/Device/HID.c **** 			
 189:LUFA-100807/LUFA/Drivers/USB/Class/Device/HID.c **** 			Endpoint_ClearIN();
 190:LUFA-100807/LUFA/Drivers/USB/Class/Device/HID.c **** 		}
 191:LUFA-100807/LUFA/Drivers/USB/Class/Device/HID.c **** 	}
 192:LUFA-100807/LUFA/Drivers/USB/Class/Device/HID.c **** }
 685               		.loc 1 192 1 view .LVU143
 686 0024 8DB7      		in r24,__SP_L__
 687 0026 9EB7      		in r25,__SP_H__
 688               	.LVL31:
 689               		.loc 1 192 1 view .LVU144
 690 0028 9F83      		std Y+7,r25
 691 002a 8E83      		std Y+6,r24
 154:LUFA-100807/LUFA/Drivers/USB/Class/Device/HID.c **** 	if (USB_DeviceState != DEVICE_STATE_Configured)
 692               		.loc 1 154 2 is_stmt 1 view .LVU145
 154:LUFA-100807/LUFA/Drivers/USB/Class/Device/HID.c **** 	if (USB_DeviceState != DEVICE_STATE_Configured)
 693               		.loc 1 154 6 is_stmt 0 view .LVU146
 694 002c 8EB3      		in r24,0x1e
 154:LUFA-100807/LUFA/Drivers/USB/Class/Device/HID.c **** 	if (USB_DeviceState != DEVICE_STATE_Configured)
 695               		.loc 1 154 5 view .LVU147
 696 002e 8430      		cpi r24,lo8(4)
 697 0030 01F0      		breq .+2
 698 0032 00C0      		rjmp .L23
 157:LUFA-100807/LUFA/Drivers/USB/Class/Device/HID.c **** 	
 699               		.loc 1 157 2 is_stmt 1 view .LVU148
 700 0034 F701      		movw r30,r14
 701 0036 8181      		ldd r24,Z+1
 702               	.LVL32:
 703               	.LBB85:
 704               	.LBI85:
 296:LUFA-100807/LUFA/Drivers/USB/Class/Device/../../HighLevel/../LowLevel/Endpoint.h **** 			{
 705               		.loc 2 296 23 view .LVU149
 706               	.LBB86:
 299:LUFA-100807/LUFA/Drivers/USB/Class/Device/../../HighLevel/../LowLevel/Endpoint.h **** 				#endif			
 707               		.loc 2 299 6 view .LVU150
 299:LUFA-100807/LUFA/Drivers/USB/Class/Device/../../HighLevel/../LowLevel/Endpoint.h **** 				#endif			
 708               		.loc 2 299 12 is_stmt 0 view .LVU151
 709 0038 8093 E900 		sts 233,r24
 710               	.LVL33:
 299:LUFA-100807/LUFA/Drivers/USB/Class/Device/../../HighLevel/../LowLevel/Endpoint.h **** 				#endif			
 711               		.loc 2 299 12 view .LVU152
 712               	.LBE86:
 713               	.LBE85:
 159:LUFA-100807/LUFA/Drivers/USB/Class/Device/HID.c **** 	{
 714               		.loc 1 159 2 is_stmt 1 view .LVU153
 715               	.LBB87:
 716               	.LBI87:
 356:LUFA-100807/LUFA/Drivers/USB/Class/Device/../../HighLevel/../LowLevel/Endpoint.h **** 			{
 717               		.loc 2 356 23 view .LVU154
 718               	.LBB88:
 358:LUFA-100807/LUFA/Drivers/USB/Class/Device/../../HighLevel/../LowLevel/Endpoint.h **** 			}
 719               		.loc 2 358 5 view .LVU155
 358:LUFA-100807/LUFA/Drivers/USB/Class/Device/../../HighLevel/../LowLevel/Endpoint.h **** 			}
 720               		.loc 2 358 14 is_stmt 0 view .LVU156
 721 003c 8091 E800 		lds r24,232
 722               	.LBE88:
 723               	.LBE87:
 159:LUFA-100807/LUFA/Drivers/USB/Class/Device/HID.c **** 	{
 724               		.loc 1 159 5 view .LVU157
 725 0040 85FF      		sbrs r24,5
 726 0042 00C0      		rjmp .L23
 727               	.LBB89:
 160:LUFA-100807/LUFA/Drivers/USB/Class/Device/HID.c **** 		uint8_t  ReportINData[HIDInterfaceInfo->Config.PrevReportINBufferSize];
 728               		.loc 1 160 2 view .LVU158
 729 0044 8DB7      		in r24,__SP_L__
 730 0046 9EB7      		in r25,__SP_H__
 731 0048 9D83      		std Y+5,r25
 732 004a 8C83      		std Y+4,r24
 161:LUFA-100807/LUFA/Drivers/USB/Class/Device/HID.c **** 		uint8_t  ReportID     = 0;
 733               		.loc 1 161 3 is_stmt 1 view .LVU159
 734               	.LVL34:
 161:LUFA-100807/LUFA/Drivers/USB/Class/Device/HID.c **** 		uint8_t  ReportID     = 0;
 735               		.loc 1 161 12 is_stmt 0 view .LVU160
 736 004c 4781      		ldd r20,Z+7
 737 004e 50E0      		ldi r21,0
 738 0050 EDB7      		in r30,__SP_L__
 739 0052 FEB7      		in r31,__SP_H__
 740 0054 E41B      		sub r30,r20
 741 0056 F50B      		sbc r31,r21
 742 0058 0FB6      		in __tmp_reg__,__SREG__
 743 005a F894      		cli
 744 005c FEBF      		out __SP_H__,r31
 745 005e 0FBE      		out __SREG__,__tmp_reg__
 746 0060 EDBF      		out __SP_L__,r30
 747 0062 8DB7      		in r24,__SP_L__
 748 0064 9EB7      		in r25,__SP_H__
 749 0066 0196      		adiw r24,1
 750 0068 6C01      		movw r12,r24
 751               	.LVL35:
 162:LUFA-100807/LUFA/Drivers/USB/Class/Device/HID.c **** 		uint16_t ReportINSize = 0;
 752               		.loc 1 162 3 is_stmt 1 view .LVU161
 162:LUFA-100807/LUFA/Drivers/USB/Class/Device/HID.c **** 		uint16_t ReportINSize = 0;
 753               		.loc 1 162 12 is_stmt 0 view .LVU162
 754 006a 1B82      		std Y+3,__zero_reg__
 163:LUFA-100807/LUFA/Drivers/USB/Class/Device/HID.c **** 
 755               		.loc 1 163 3 is_stmt 1 view .LVU163
 163:LUFA-100807/LUFA/Drivers/USB/Class/Device/HID.c **** 
 756               		.loc 1 163 12 is_stmt 0 view .LVU164
 757 006c 1A82      		std Y+2,__zero_reg__
 758 006e 1982      		std Y+1,__zero_reg__
 165:LUFA-100807/LUFA/Drivers/USB/Class/Device/HID.c **** 
 759               		.loc 1 165 3 is_stmt 1 view .LVU165
 760 0070 70E0      		ldi r23,0
 761 0072 60E0      		ldi r22,0
 762 0074 0E94 0000 		call memset
 763               	.LVL36:
 167:LUFA-100807/LUFA/Drivers/USB/Class/Device/HID.c **** 		                                                             ReportINData, &ReportINSize);
 764               		.loc 1 167 3 view .LVU166
 167:LUFA-100807/LUFA/Drivers/USB/Class/Device/HID.c **** 		                                                             ReportINData, &ReportINSize);
 765               		.loc 1 167 28 is_stmt 0 view .LVU167
 766 0078 8E01      		movw r16,r28
 767 007a 0F5F      		subi r16,-1
 768 007c 1F4F      		sbci r17,-1
 769 007e 9601      		movw r18,r12
 770 0080 40E0      		ldi r20,0
 771 0082 BE01      		movw r22,r28
 772 0084 6D5F      		subi r22,-3
 773 0086 7F4F      		sbci r23,-1
 774 0088 C701      		movw r24,r14
 775 008a 0E94 0000 		call CALLBACK_HID_Device_CreateHIDReport
 776               	.LVL37:
 777 008e 982E      		mov r9,r24
 778               	.LVL38:
 169:LUFA-100807/LUFA/Drivers/USB/Class/Device/HID.c **** 		bool IdlePeriodElapsed = (HIDInterfaceInfo->State.IdleCount && !(HIDInterfaceInfo->State.IdleMSRe
 779               		.loc 1 169 3 is_stmt 1 view .LVU168
 170:LUFA-100807/LUFA/Drivers/USB/Class/Device/HID.c **** 		
 780               		.loc 1 170 3 view .LVU169
 170:LUFA-100807/LUFA/Drivers/USB/Class/Device/HID.c **** 		
 781               		.loc 1 170 63 is_stmt 0 view .LVU170
 782 0090 F701      		movw r30,r14
 783 0092 8185      		ldd r24,Z+9
 784 0094 9285      		ldd r25,Z+10
 785 0096 892B      		or r24,r25
 786 0098 01F0      		breq .L34
 170:LUFA-100807/LUFA/Drivers/USB/Class/Device/HID.c **** 		
 787               		.loc 1 170 63 discriminator 1 view .LVU171
 788 009a 11E0      		ldi r17,lo8(1)
 789 009c 8385      		ldd r24,Z+11
 790 009e 9485      		ldd r25,Z+12
 791 00a0 892B      		or r24,r25
 792 00a2 01F0      		breq .L27
 793               	.L34:
 170:LUFA-100807/LUFA/Drivers/USB/Class/Device/HID.c **** 		
 794               		.loc 1 170 63 view .LVU172
 795 00a4 10E0      		ldi r17,0
 796               	.L27:
 797               	.LVL39:
 172:LUFA-100807/LUFA/Drivers/USB/Class/Device/HID.c **** 		{
 798               		.loc 1 172 3 is_stmt 1 discriminator 6 view .LVU173
 172:LUFA-100807/LUFA/Drivers/USB/Class/Device/HID.c **** 		{
 799               		.loc 1 172 31 is_stmt 0 discriminator 6 view .LVU174
 800 00a6 F701      		movw r30,r14
 801 00a8 A580      		ldd r10,Z+5
 802 00aa B680      		ldd r11,Z+6
 169:LUFA-100807/LUFA/Drivers/USB/Class/Device/HID.c **** 		bool IdlePeriodElapsed = (HIDInterfaceInfo->State.IdleCount && !(HIDInterfaceInfo->State.IdleMSRe
 803               		.loc 1 169 8 discriminator 6 view .LVU175
 804 00ac 00E0      		ldi r16,0
 172:LUFA-100807/LUFA/Drivers/USB/Class/Device/HID.c **** 		{
 805               		.loc 1 172 6 discriminator 6 view .LVU176
 806 00ae A114      		cp r10,__zero_reg__
 807 00b0 B104      		cpc r11,__zero_reg__
 808 00b2 01F0      		breq .L29
 174:LUFA-100807/LUFA/Drivers/USB/Class/Device/HID.c **** 			memcpy(HIDInterfaceInfo->Config.PrevReportINBuffer, ReportINData, HIDInterfaceInfo->Config.PrevR
 809               		.loc 1 174 4 is_stmt 1 view .LVU177
 174:LUFA-100807/LUFA/Drivers/USB/Class/Device/HID.c **** 			memcpy(HIDInterfaceInfo->Config.PrevReportINBuffer, ReportINData, HIDInterfaceInfo->Config.PrevR
 810               		.loc 1 174 21 is_stmt 0 view .LVU178
 811 00b4 4981      		ldd r20,Y+1
 812 00b6 5A81      		ldd r21,Y+2
 813 00b8 B501      		movw r22,r10
 814 00ba C601      		movw r24,r12
 815 00bc 0E94 0000 		call memcmp
 816               	.LVL40:
 174:LUFA-100807/LUFA/Drivers/USB/Class/Device/HID.c **** 			memcpy(HIDInterfaceInfo->Config.PrevReportINBuffer, ReportINData, HIDInterfaceInfo->Config.PrevR
 817               		.loc 1 174 18 view .LVU179
 818 00c0 01E0      		ldi r16,lo8(1)
 819 00c2 892B      		or r24,r25
 820 00c4 01F4      		brne .L30
 821 00c6 00E0      		ldi r16,0
 822               	.L30:
 823               	.LVL41:
 175:LUFA-100807/LUFA/Drivers/USB/Class/Device/HID.c **** 		}
 824               		.loc 1 175 4 is_stmt 1 view .LVU180
 825 00c8 F701      		movw r30,r14
 826 00ca 4781      		ldd r20,Z+7
 827 00cc 50E0      		ldi r21,0
 828 00ce B601      		movw r22,r12
 829 00d0 C501      		movw r24,r10
 830 00d2 0E94 0000 		call memcpy
 831               	.LVL42:
 832               	.L29:
 178:LUFA-100807/LUFA/Drivers/USB/Class/Device/HID.c **** 		{
 833               		.loc 1 178 3 view .LVU181
 178:LUFA-100807/LUFA/Drivers/USB/Class/Device/HID.c **** 		{
 834               		.loc 1 178 6 is_stmt 0 view .LVU182
 835 00d6 8981      		ldd r24,Y+1
 836 00d8 9A81      		ldd r25,Y+2
 837 00da 892B      		or r24,r25
 838 00dc 01F0      		breq .L31
 178:LUFA-100807/LUFA/Drivers/USB/Class/Device/HID.c **** 		{
 839               		.loc 1 178 20 discriminator 1 view .LVU183
 840 00de 9110      		cpse r9,__zero_reg__
 841 00e0 00C0      		rjmp .L32
 178:LUFA-100807/LUFA/Drivers/USB/Class/Device/HID.c **** 		{
 842               		.loc 1 178 34 discriminator 2 view .LVU184
 843 00e2 0111      		cpse r16,__zero_reg__
 844 00e4 00C0      		rjmp .L32
 178:LUFA-100807/LUFA/Drivers/USB/Class/Device/HID.c **** 		{
 845               		.loc 1 178 51 discriminator 3 view .LVU185
 846 00e6 10FF      		sbrs r17,0
 847 00e8 00C0      		rjmp .L31
 848               	.L32:
 180:LUFA-100807/LUFA/Drivers/USB/Class/Device/HID.c **** 
 849               		.loc 1 180 4 is_stmt 1 view .LVU186
 180:LUFA-100807/LUFA/Drivers/USB/Class/Device/HID.c **** 
 850               		.loc 1 180 44 is_stmt 0 view .LVU187
 851 00ea F701      		movw r30,r14
 852 00ec 8185      		ldd r24,Z+9
 853 00ee 9285      		ldd r25,Z+10
 854 00f0 9487      		std Z+12,r25
 855 00f2 8387      		std Z+11,r24
 182:LUFA-100807/LUFA/Drivers/USB/Class/Device/HID.c **** 
 856               		.loc 1 182 4 is_stmt 1 view .LVU188
 857 00f4 8181      		ldd r24,Z+1
 858               	.LVL43:
 859               	.LBB90:
 860               	.LBI90:
 296:LUFA-100807/LUFA/Drivers/USB/Class/Device/../../HighLevel/../LowLevel/Endpoint.h **** 			{
 861               		.loc 2 296 23 view .LVU189
 862               	.LBB91:
 299:LUFA-100807/LUFA/Drivers/USB/Class/Device/../../HighLevel/../LowLevel/Endpoint.h **** 				#endif			
 863               		.loc 2 299 6 view .LVU190
 299:LUFA-100807/LUFA/Drivers/USB/Class/Device/../../HighLevel/../LowLevel/Endpoint.h **** 				#endif			
 864               		.loc 2 299 12 is_stmt 0 view .LVU191
 865 00f6 8093 E900 		sts 233,r24
 866               	.LVL44:
 299:LUFA-100807/LUFA/Drivers/USB/Class/Device/../../HighLevel/../LowLevel/Endpoint.h **** 				#endif			
 867               		.loc 2 299 12 view .LVU192
 868               	.LBE91:
 869               	.LBE90:
 184:LUFA-100807/LUFA/Drivers/USB/Class/Device/HID.c **** 			  Endpoint_Write_Byte(ReportID);
 870               		.loc 1 184 4 is_stmt 1 view .LVU193
 184:LUFA-100807/LUFA/Drivers/USB/Class/Device/HID.c **** 			  Endpoint_Write_Byte(ReportID);
 871               		.loc 1 184 8 is_stmt 0 view .LVU194
 872 00fa 8B81      		ldd r24,Y+3
 184:LUFA-100807/LUFA/Drivers/USB/Class/Device/HID.c **** 			  Endpoint_Write_Byte(ReportID);
 873               		.loc 1 184 7 view .LVU195
 874 00fc 8111      		cpse r24,__zero_reg__
 185:LUFA-100807/LUFA/Drivers/USB/Class/Device/HID.c **** 
 875               		.loc 1 185 6 is_stmt 1 view .LVU196
 876               	.LVL45:
 877               	.LBB92:
 878               	.LBI92:
 560:LUFA-100807/LUFA/Drivers/USB/Class/Device/../../HighLevel/../LowLevel/Endpoint.h **** 			{
 879               		.loc 2 560 23 view .LVU197
 880               	.LBB93:
 562:LUFA-100807/LUFA/Drivers/USB/Class/Device/../../HighLevel/../LowLevel/Endpoint.h **** 			}
 881               		.loc 2 562 5 view .LVU198
 562:LUFA-100807/LUFA/Drivers/USB/Class/Device/../../HighLevel/../LowLevel/Endpoint.h **** 			}
 882               		.loc 2 562 12 is_stmt 0 view .LVU199
 883 00fe 8093 F100 		sts 241,r24
 884               	.LVL46:
 885               	.L33:
 562:LUFA-100807/LUFA/Drivers/USB/Class/Device/../../HighLevel/../LowLevel/Endpoint.h **** 			}
 886               		.loc 2 562 12 view .LVU200
 887               	.LBE93:
 888               	.LBE92:
 187:LUFA-100807/LUFA/Drivers/USB/Class/Device/HID.c **** 			
 889               		.loc 1 187 4 is_stmt 1 view .LVU201
 890 0102 6981      		ldd r22,Y+1
 891 0104 7A81      		ldd r23,Y+2
 892 0106 50E0      		ldi r21,0
 893 0108 40E0      		ldi r20,0
 894 010a C601      		movw r24,r12
 895 010c 0E94 0000 		call Endpoint_Write_Stream_LE
 896               	.LVL47:
 189:LUFA-100807/LUFA/Drivers/USB/Class/Device/HID.c **** 		}
 897               		.loc 1 189 4 view .LVU202
 898               	.LBB94:
 899               	.LBI94:
 451:LUFA-100807/LUFA/Drivers/USB/Class/Device/../../HighLevel/../LowLevel/Endpoint.h **** 			{
 900               		.loc 2 451 23 view .LVU203
 901               	.LBB95:
 454:LUFA-100807/LUFA/Drivers/USB/Class/Device/../../HighLevel/../LowLevel/Endpoint.h **** 				#else
 902               		.loc 2 454 6 view .LVU204
 454:LUFA-100807/LUFA/Drivers/USB/Class/Device/../../HighLevel/../LowLevel/Endpoint.h **** 				#else
 903               		.loc 2 454 13 is_stmt 0 view .LVU205
 904 0110 8091 E800 		lds r24,232
 905 0114 8E77      		andi r24,lo8(126)
 906 0116 8093 E800 		sts 232,r24
 907               	.L31:
