   1               		.file	"RNDIS.c"
   2               	__SP_H__ = 0x3e
   3               	__SP_L__ = 0x3d
   4               	__SREG__ = 0x3f
   5               	__tmp_reg__ = 0
   6               	__zero_reg__ = 1
   7               		.text
   8               	.Ltext0:
   9               		.cfi_sections	.debug_frame
  10               		.section	.text.RNDIS_Device_ProcessControlRequest,"ax",@progbits
  11               	.global	RNDIS_Device_ProcessControlRequest
  13               	RNDIS_Device_ProcessControlRequest:
  14               	.LVL0:
  15               	.LFB65:
  16               		.file 1 "LUFA-100807/LUFA/Drivers/USB/Class/Device/RNDIS.c"
   1:LUFA-100807/LUFA/Drivers/USB/Class/Device/RNDIS.c **** /*
   2:LUFA-100807/LUFA/Drivers/USB/Class/Device/RNDIS.c ****              LUFA Library
   3:LUFA-100807/LUFA/Drivers/USB/Class/Device/RNDIS.c ****      Copyright (C) Dean Camera, 2010.
   4:LUFA-100807/LUFA/Drivers/USB/Class/Device/RNDIS.c ****               
   5:LUFA-100807/LUFA/Drivers/USB/Class/Device/RNDIS.c ****   dean [at] fourwalledcubicle [dot] com
   6:LUFA-100807/LUFA/Drivers/USB/Class/Device/RNDIS.c ****       www.fourwalledcubicle.com
   7:LUFA-100807/LUFA/Drivers/USB/Class/Device/RNDIS.c **** */
   8:LUFA-100807/LUFA/Drivers/USB/Class/Device/RNDIS.c **** 
   9:LUFA-100807/LUFA/Drivers/USB/Class/Device/RNDIS.c **** /*
  10:LUFA-100807/LUFA/Drivers/USB/Class/Device/RNDIS.c ****   Copyright 2010  Dean Camera (dean [at] fourwalledcubicle [dot] com)
  11:LUFA-100807/LUFA/Drivers/USB/Class/Device/RNDIS.c **** 
  12:LUFA-100807/LUFA/Drivers/USB/Class/Device/RNDIS.c ****   Permission to use, copy, modify, distribute, and sell this 
  13:LUFA-100807/LUFA/Drivers/USB/Class/Device/RNDIS.c ****   software and its documentation for any purpose is hereby granted
  14:LUFA-100807/LUFA/Drivers/USB/Class/Device/RNDIS.c ****   without fee, provided that the above copyright notice appear in 
  15:LUFA-100807/LUFA/Drivers/USB/Class/Device/RNDIS.c ****   all copies and that both that the copyright notice and this
  16:LUFA-100807/LUFA/Drivers/USB/Class/Device/RNDIS.c ****   permission notice and warranty disclaimer appear in supporting 
  17:LUFA-100807/LUFA/Drivers/USB/Class/Device/RNDIS.c ****   documentation, and that the name of the author not be used in 
  18:LUFA-100807/LUFA/Drivers/USB/Class/Device/RNDIS.c ****   advertising or publicity pertaining to distribution of the 
  19:LUFA-100807/LUFA/Drivers/USB/Class/Device/RNDIS.c ****   software without specific, written prior permission.
  20:LUFA-100807/LUFA/Drivers/USB/Class/Device/RNDIS.c **** 
  21:LUFA-100807/LUFA/Drivers/USB/Class/Device/RNDIS.c ****   The author disclaim all warranties with regard to this
  22:LUFA-100807/LUFA/Drivers/USB/Class/Device/RNDIS.c ****   software, including all implied warranties of merchantability
  23:LUFA-100807/LUFA/Drivers/USB/Class/Device/RNDIS.c ****   and fitness.  In no event shall the author be liable for any
  24:LUFA-100807/LUFA/Drivers/USB/Class/Device/RNDIS.c ****   special, indirect or consequential damages or any damages
  25:LUFA-100807/LUFA/Drivers/USB/Class/Device/RNDIS.c ****   whatsoever resulting from loss of use, data or profits, whether
  26:LUFA-100807/LUFA/Drivers/USB/Class/Device/RNDIS.c ****   in an action of contract, negligence or other tortious action,
  27:LUFA-100807/LUFA/Drivers/USB/Class/Device/RNDIS.c ****   arising out of or in connection with the use or performance of
  28:LUFA-100807/LUFA/Drivers/USB/Class/Device/RNDIS.c ****   this software.
  29:LUFA-100807/LUFA/Drivers/USB/Class/Device/RNDIS.c **** */
  30:LUFA-100807/LUFA/Drivers/USB/Class/Device/RNDIS.c **** 
  31:LUFA-100807/LUFA/Drivers/USB/Class/Device/RNDIS.c **** #define  __INCLUDE_FROM_USB_DRIVER
  32:LUFA-100807/LUFA/Drivers/USB/Class/Device/RNDIS.c **** #include "../../HighLevel/USBMode.h"
  33:LUFA-100807/LUFA/Drivers/USB/Class/Device/RNDIS.c **** #if defined(USB_CAN_BE_DEVICE)
  34:LUFA-100807/LUFA/Drivers/USB/Class/Device/RNDIS.c **** 
  35:LUFA-100807/LUFA/Drivers/USB/Class/Device/RNDIS.c **** #define  __INCLUDE_FROM_RNDIS_CLASS_DEVICE_C
  36:LUFA-100807/LUFA/Drivers/USB/Class/Device/RNDIS.c **** #define  __INCLUDE_FROM_RNDIS_DRIVER
  37:LUFA-100807/LUFA/Drivers/USB/Class/Device/RNDIS.c **** #include "RNDIS.h"
  38:LUFA-100807/LUFA/Drivers/USB/Class/Device/RNDIS.c **** 
  39:LUFA-100807/LUFA/Drivers/USB/Class/Device/RNDIS.c **** static const uint32_t PROGMEM AdapterSupportedOIDList[]  =
  40:LUFA-100807/LUFA/Drivers/USB/Class/Device/RNDIS.c **** 	{
  41:LUFA-100807/LUFA/Drivers/USB/Class/Device/RNDIS.c **** 		OID_GEN_SUPPORTED_LIST,
  42:LUFA-100807/LUFA/Drivers/USB/Class/Device/RNDIS.c **** 		OID_GEN_PHYSICAL_MEDIUM,
  43:LUFA-100807/LUFA/Drivers/USB/Class/Device/RNDIS.c **** 		OID_GEN_HARDWARE_STATUS,
  44:LUFA-100807/LUFA/Drivers/USB/Class/Device/RNDIS.c **** 		OID_GEN_MEDIA_SUPPORTED,
  45:LUFA-100807/LUFA/Drivers/USB/Class/Device/RNDIS.c **** 		OID_GEN_MEDIA_IN_USE,
  46:LUFA-100807/LUFA/Drivers/USB/Class/Device/RNDIS.c **** 		OID_GEN_MAXIMUM_FRAME_SIZE,
  47:LUFA-100807/LUFA/Drivers/USB/Class/Device/RNDIS.c **** 		OID_GEN_MAXIMUM_TOTAL_SIZE,
  48:LUFA-100807/LUFA/Drivers/USB/Class/Device/RNDIS.c **** 		OID_GEN_LINK_SPEED,
  49:LUFA-100807/LUFA/Drivers/USB/Class/Device/RNDIS.c **** 		OID_GEN_TRANSMIT_BLOCK_SIZE,
  50:LUFA-100807/LUFA/Drivers/USB/Class/Device/RNDIS.c **** 		OID_GEN_RECEIVE_BLOCK_SIZE,
  51:LUFA-100807/LUFA/Drivers/USB/Class/Device/RNDIS.c **** 		OID_GEN_VENDOR_ID,
  52:LUFA-100807/LUFA/Drivers/USB/Class/Device/RNDIS.c **** 		OID_GEN_VENDOR_DESCRIPTION,
  53:LUFA-100807/LUFA/Drivers/USB/Class/Device/RNDIS.c **** 		OID_GEN_CURRENT_PACKET_FILTER,
  54:LUFA-100807/LUFA/Drivers/USB/Class/Device/RNDIS.c **** 		OID_GEN_MAXIMUM_TOTAL_SIZE,
  55:LUFA-100807/LUFA/Drivers/USB/Class/Device/RNDIS.c **** 		OID_GEN_MEDIA_CONNECT_STATUS,
  56:LUFA-100807/LUFA/Drivers/USB/Class/Device/RNDIS.c **** 		OID_GEN_XMIT_OK,
  57:LUFA-100807/LUFA/Drivers/USB/Class/Device/RNDIS.c **** 		OID_GEN_RCV_OK,
  58:LUFA-100807/LUFA/Drivers/USB/Class/Device/RNDIS.c **** 		OID_GEN_XMIT_ERROR,
  59:LUFA-100807/LUFA/Drivers/USB/Class/Device/RNDIS.c **** 		OID_GEN_RCV_ERROR,
  60:LUFA-100807/LUFA/Drivers/USB/Class/Device/RNDIS.c **** 		OID_GEN_RCV_NO_BUFFER,
  61:LUFA-100807/LUFA/Drivers/USB/Class/Device/RNDIS.c **** 		OID_802_3_PERMANENT_ADDRESS,
  62:LUFA-100807/LUFA/Drivers/USB/Class/Device/RNDIS.c **** 		OID_802_3_CURRENT_ADDRESS,
  63:LUFA-100807/LUFA/Drivers/USB/Class/Device/RNDIS.c **** 		OID_802_3_MULTICAST_LIST,
  64:LUFA-100807/LUFA/Drivers/USB/Class/Device/RNDIS.c **** 		OID_802_3_MAXIMUM_LIST_SIZE,
  65:LUFA-100807/LUFA/Drivers/USB/Class/Device/RNDIS.c **** 		OID_802_3_RCV_ERROR_ALIGNMENT,
  66:LUFA-100807/LUFA/Drivers/USB/Class/Device/RNDIS.c **** 		OID_802_3_XMIT_ONE_COLLISION,
  67:LUFA-100807/LUFA/Drivers/USB/Class/Device/RNDIS.c **** 		OID_802_3_XMIT_MORE_COLLISIONS,
  68:LUFA-100807/LUFA/Drivers/USB/Class/Device/RNDIS.c **** 	};
  69:LUFA-100807/LUFA/Drivers/USB/Class/Device/RNDIS.c **** 
  70:LUFA-100807/LUFA/Drivers/USB/Class/Device/RNDIS.c **** void RNDIS_Device_ProcessControlRequest(USB_ClassInfo_RNDIS_Device_t* const RNDISInterfaceInfo)
  71:LUFA-100807/LUFA/Drivers/USB/Class/Device/RNDIS.c **** {
  17               		.loc 1 71 1 view -0
  18               		.cfi_startproc
  19               		.loc 1 71 1 is_stmt 0 view .LVU1
  20 0000 0F93      		push r16
  21               	.LCFI0:
  22               		.cfi_def_cfa_offset 3
  23               		.cfi_offset 16, -2
  24 0002 1F93      		push r17
  25               	.LCFI1:
  26               		.cfi_def_cfa_offset 4
  27               		.cfi_offset 17, -3
  28 0004 CF93      		push r28
  29               	.LCFI2:
  30               		.cfi_def_cfa_offset 5
  31               		.cfi_offset 28, -4
  32 0006 DF93      		push r29
  33               	.LCFI3:
  34               		.cfi_def_cfa_offset 6
  35               		.cfi_offset 29, -5
  36               	/* prologue: function */
  37               	/* frame size = 0 */
  38               	/* stack size = 4 */
  39               	.L__stack_usage = 4
  40 0008 EC01      		movw r28,r24
  72:LUFA-100807/LUFA/Drivers/USB/Class/Device/RNDIS.c **** 	if (!(Endpoint_IsSETUPReceived()))
  41               		.loc 1 72 2 is_stmt 1 view .LVU2
  42               	.LBB55:
  43               	.LBI55:
  44               		.file 2 "LUFA-100807/LUFA/Drivers/USB/Class/Device/../../HighLevel/../LowLevel/Endpoint.h"
   1:LUFA-100807/LUFA/Drivers/USB/Class/Device/../../HighLevel/../LowLevel/Endpoint.h **** /*
   2:LUFA-100807/LUFA/Drivers/USB/Class/Device/../../HighLevel/../LowLevel/Endpoint.h ****              LUFA Library
   3:LUFA-100807/LUFA/Drivers/USB/Class/Device/../../HighLevel/../LowLevel/Endpoint.h ****      Copyright (C) Dean Camera, 2010.
   4:LUFA-100807/LUFA/Drivers/USB/Class/Device/../../HighLevel/../LowLevel/Endpoint.h ****               
   5:LUFA-100807/LUFA/Drivers/USB/Class/Device/../../HighLevel/../LowLevel/Endpoint.h ****   dean [at] fourwalledcubicle [dot] com
   6:LUFA-100807/LUFA/Drivers/USB/Class/Device/../../HighLevel/../LowLevel/Endpoint.h ****       www.fourwalledcubicle.com
   7:LUFA-100807/LUFA/Drivers/USB/Class/Device/../../HighLevel/../LowLevel/Endpoint.h **** */
   8:LUFA-100807/LUFA/Drivers/USB/Class/Device/../../HighLevel/../LowLevel/Endpoint.h **** 
   9:LUFA-100807/LUFA/Drivers/USB/Class/Device/../../HighLevel/../LowLevel/Endpoint.h **** /*
  10:LUFA-100807/LUFA/Drivers/USB/Class/Device/../../HighLevel/../LowLevel/Endpoint.h ****   Copyright 2010  Dean Camera (dean [at] fourwalledcubicle [dot] com)
  11:LUFA-100807/LUFA/Drivers/USB/Class/Device/../../HighLevel/../LowLevel/Endpoint.h **** 
  12:LUFA-100807/LUFA/Drivers/USB/Class/Device/../../HighLevel/../LowLevel/Endpoint.h ****   Permission to use, copy, modify, distribute, and sell this 
  13:LUFA-100807/LUFA/Drivers/USB/Class/Device/../../HighLevel/../LowLevel/Endpoint.h ****   software and its documentation for any purpose is hereby granted
  14:LUFA-100807/LUFA/Drivers/USB/Class/Device/../../HighLevel/../LowLevel/Endpoint.h ****   without fee, provided that the above copyright notice appear in 
  15:LUFA-100807/LUFA/Drivers/USB/Class/Device/../../HighLevel/../LowLevel/Endpoint.h ****   all copies and that both that the copyright notice and this
  16:LUFA-100807/LUFA/Drivers/USB/Class/Device/../../HighLevel/../LowLevel/Endpoint.h ****   permission notice and warranty disclaimer appear in supporting 
  17:LUFA-100807/LUFA/Drivers/USB/Class/Device/../../HighLevel/../LowLevel/Endpoint.h ****   documentation, and that the name of the author not be used in 
  18:LUFA-100807/LUFA/Drivers/USB/Class/Device/../../HighLevel/../LowLevel/Endpoint.h ****   advertising or publicity pertaining to distribution of the 
  19:LUFA-100807/LUFA/Drivers/USB/Class/Device/../../HighLevel/../LowLevel/Endpoint.h ****   software without specific, written prior permission.
  20:LUFA-100807/LUFA/Drivers/USB/Class/Device/../../HighLevel/../LowLevel/Endpoint.h **** 
  21:LUFA-100807/LUFA/Drivers/USB/Class/Device/../../HighLevel/../LowLevel/Endpoint.h ****   The author disclaim all warranties with regard to this
  22:LUFA-100807/LUFA/Drivers/USB/Class/Device/../../HighLevel/../LowLevel/Endpoint.h ****   software, including all implied warranties of merchantability
  23:LUFA-100807/LUFA/Drivers/USB/Class/Device/../../HighLevel/../LowLevel/Endpoint.h ****   and fitness.  In no event shall the author be liable for any
  24:LUFA-100807/LUFA/Drivers/USB/Class/Device/../../HighLevel/../LowLevel/Endpoint.h ****   special, indirect or consequential damages or any damages
  25:LUFA-100807/LUFA/Drivers/USB/Class/Device/../../HighLevel/../LowLevel/Endpoint.h ****   whatsoever resulting from loss of use, data or profits, whether
  26:LUFA-100807/LUFA/Drivers/USB/Class/Device/../../HighLevel/../LowLevel/Endpoint.h ****   in an action of contract, negligence or other tortious action,
  27:LUFA-100807/LUFA/Drivers/USB/Class/Device/../../HighLevel/../LowLevel/Endpoint.h ****   arising out of or in connection with the use or performance of
  28:LUFA-100807/LUFA/Drivers/USB/Class/Device/../../HighLevel/../LowLevel/Endpoint.h ****   this software.
  29:LUFA-100807/LUFA/Drivers/USB/Class/Device/../../HighLevel/../LowLevel/Endpoint.h **** */
  30:LUFA-100807/LUFA/Drivers/USB/Class/Device/../../HighLevel/../LowLevel/Endpoint.h **** 
  31:LUFA-100807/LUFA/Drivers/USB/Class/Device/../../HighLevel/../LowLevel/Endpoint.h **** /** \file
  32:LUFA-100807/LUFA/Drivers/USB/Class/Device/../../HighLevel/../LowLevel/Endpoint.h ****  *  \brief USB device endpoint management definitions.
  33:LUFA-100807/LUFA/Drivers/USB/Class/Device/../../HighLevel/../LowLevel/Endpoint.h ****  *
  34:LUFA-100807/LUFA/Drivers/USB/Class/Device/../../HighLevel/../LowLevel/Endpoint.h ****  *  This file contains structures, function prototypes and macros related to the management of the 
  35:LUFA-100807/LUFA/Drivers/USB/Class/Device/../../HighLevel/../LowLevel/Endpoint.h ****  *  data endpoints when the library is initialized in USB device mode.
  36:LUFA-100807/LUFA/Drivers/USB/Class/Device/../../HighLevel/../LowLevel/Endpoint.h ****  *
  37:LUFA-100807/LUFA/Drivers/USB/Class/Device/../../HighLevel/../LowLevel/Endpoint.h ****  *  \note This file should not be included directly. It is automatically included as needed by the 
  38:LUFA-100807/LUFA/Drivers/USB/Class/Device/../../HighLevel/../LowLevel/Endpoint.h ****  *        dispatch header located in LUFA/Drivers/USB/USB.h.
  39:LUFA-100807/LUFA/Drivers/USB/Class/Device/../../HighLevel/../LowLevel/Endpoint.h ****  */
  40:LUFA-100807/LUFA/Drivers/USB/Class/Device/../../HighLevel/../LowLevel/Endpoint.h **** 
  41:LUFA-100807/LUFA/Drivers/USB/Class/Device/../../HighLevel/../LowLevel/Endpoint.h **** /** \ingroup Group_USB
  42:LUFA-100807/LUFA/Drivers/USB/Class/Device/../../HighLevel/../LowLevel/Endpoint.h ****  *  @defgroup Group_EndpointManagement Endpoint Management
  43:LUFA-100807/LUFA/Drivers/USB/Class/Device/../../HighLevel/../LowLevel/Endpoint.h ****  *
  44:LUFA-100807/LUFA/Drivers/USB/Class/Device/../../HighLevel/../LowLevel/Endpoint.h ****  *  Functions, macros and enums related to endpoint management when in USB Device mode. This
  45:LUFA-100807/LUFA/Drivers/USB/Class/Device/../../HighLevel/../LowLevel/Endpoint.h ****  *  module contains the endpoint management macros, as well as endpoint interrupt and data
  46:LUFA-100807/LUFA/Drivers/USB/Class/Device/../../HighLevel/../LowLevel/Endpoint.h ****  *  send/receive functions for various data types.
  47:LUFA-100807/LUFA/Drivers/USB/Class/Device/../../HighLevel/../LowLevel/Endpoint.h ****  *
  48:LUFA-100807/LUFA/Drivers/USB/Class/Device/../../HighLevel/../LowLevel/Endpoint.h ****  *  @{
  49:LUFA-100807/LUFA/Drivers/USB/Class/Device/../../HighLevel/../LowLevel/Endpoint.h ****  */
  50:LUFA-100807/LUFA/Drivers/USB/Class/Device/../../HighLevel/../LowLevel/Endpoint.h **** 
  51:LUFA-100807/LUFA/Drivers/USB/Class/Device/../../HighLevel/../LowLevel/Endpoint.h **** /** @defgroup Group_EndpointRW Endpoint Data Reading and Writing
  52:LUFA-100807/LUFA/Drivers/USB/Class/Device/../../HighLevel/../LowLevel/Endpoint.h ****  *
  53:LUFA-100807/LUFA/Drivers/USB/Class/Device/../../HighLevel/../LowLevel/Endpoint.h ****  *  Functions, macros, variables, enums and types related to data reading and writing from and to e
  54:LUFA-100807/LUFA/Drivers/USB/Class/Device/../../HighLevel/../LowLevel/Endpoint.h ****  */
  55:LUFA-100807/LUFA/Drivers/USB/Class/Device/../../HighLevel/../LowLevel/Endpoint.h ****  
  56:LUFA-100807/LUFA/Drivers/USB/Class/Device/../../HighLevel/../LowLevel/Endpoint.h **** /** \ingroup Group_EndpointRW  
  57:LUFA-100807/LUFA/Drivers/USB/Class/Device/../../HighLevel/../LowLevel/Endpoint.h ****  *  @defgroup Group_EndpointPrimitiveRW Read/Write of Primitive Data Types
  58:LUFA-100807/LUFA/Drivers/USB/Class/Device/../../HighLevel/../LowLevel/Endpoint.h ****  *
  59:LUFA-100807/LUFA/Drivers/USB/Class/Device/../../HighLevel/../LowLevel/Endpoint.h ****  *  Functions, macros, variables, enums and types related to data reading and writing of primitive 
  60:LUFA-100807/LUFA/Drivers/USB/Class/Device/../../HighLevel/../LowLevel/Endpoint.h ****  *  from and to endpoints.
  61:LUFA-100807/LUFA/Drivers/USB/Class/Device/../../HighLevel/../LowLevel/Endpoint.h ****  */ 
  62:LUFA-100807/LUFA/Drivers/USB/Class/Device/../../HighLevel/../LowLevel/Endpoint.h **** 
  63:LUFA-100807/LUFA/Drivers/USB/Class/Device/../../HighLevel/../LowLevel/Endpoint.h **** /** \ingroup Group_EndpointRW  
  64:LUFA-100807/LUFA/Drivers/USB/Class/Device/../../HighLevel/../LowLevel/Endpoint.h ****  *  @defgroup Group_EndpointStreamRW Read/Write of Multi-Byte Streams
  65:LUFA-100807/LUFA/Drivers/USB/Class/Device/../../HighLevel/../LowLevel/Endpoint.h ****  *
  66:LUFA-100807/LUFA/Drivers/USB/Class/Device/../../HighLevel/../LowLevel/Endpoint.h ****  *  Functions, macros, variables, enums and types related to data reading and writing of data strea
  67:LUFA-100807/LUFA/Drivers/USB/Class/Device/../../HighLevel/../LowLevel/Endpoint.h ****  *  and to endpoints.
  68:LUFA-100807/LUFA/Drivers/USB/Class/Device/../../HighLevel/../LowLevel/Endpoint.h ****  */ 
  69:LUFA-100807/LUFA/Drivers/USB/Class/Device/../../HighLevel/../LowLevel/Endpoint.h **** 
  70:LUFA-100807/LUFA/Drivers/USB/Class/Device/../../HighLevel/../LowLevel/Endpoint.h **** /** @defgroup Group_EndpointPacketManagement Endpoint Packet Management
  71:LUFA-100807/LUFA/Drivers/USB/Class/Device/../../HighLevel/../LowLevel/Endpoint.h ****  *
  72:LUFA-100807/LUFA/Drivers/USB/Class/Device/../../HighLevel/../LowLevel/Endpoint.h ****  *  Functions, macros, variables, enums and types related to packet management of endpoints.
  73:LUFA-100807/LUFA/Drivers/USB/Class/Device/../../HighLevel/../LowLevel/Endpoint.h ****  */
  74:LUFA-100807/LUFA/Drivers/USB/Class/Device/../../HighLevel/../LowLevel/Endpoint.h **** 
  75:LUFA-100807/LUFA/Drivers/USB/Class/Device/../../HighLevel/../LowLevel/Endpoint.h **** #ifndef __ENDPOINT_H__
  76:LUFA-100807/LUFA/Drivers/USB/Class/Device/../../HighLevel/../LowLevel/Endpoint.h **** #define __ENDPOINT_H__
  77:LUFA-100807/LUFA/Drivers/USB/Class/Device/../../HighLevel/../LowLevel/Endpoint.h **** 
  78:LUFA-100807/LUFA/Drivers/USB/Class/Device/../../HighLevel/../LowLevel/Endpoint.h **** 	/* Includes: */
  79:LUFA-100807/LUFA/Drivers/USB/Class/Device/../../HighLevel/../LowLevel/Endpoint.h **** 		#include <avr/io.h>
  80:LUFA-100807/LUFA/Drivers/USB/Class/Device/../../HighLevel/../LowLevel/Endpoint.h **** 		#include <avr/pgmspace.h>
  81:LUFA-100807/LUFA/Drivers/USB/Class/Device/../../HighLevel/../LowLevel/Endpoint.h **** 		#include <avr/eeprom.h>
  82:LUFA-100807/LUFA/Drivers/USB/Class/Device/../../HighLevel/../LowLevel/Endpoint.h **** 		#include <stdbool.h>
  83:LUFA-100807/LUFA/Drivers/USB/Class/Device/../../HighLevel/../LowLevel/Endpoint.h **** 
  84:LUFA-100807/LUFA/Drivers/USB/Class/Device/../../HighLevel/../LowLevel/Endpoint.h **** 		#include "../../../Common/Common.h"
  85:LUFA-100807/LUFA/Drivers/USB/Class/Device/../../HighLevel/../LowLevel/Endpoint.h **** 		#include "../HighLevel/USBTask.h"
  86:LUFA-100807/LUFA/Drivers/USB/Class/Device/../../HighLevel/../LowLevel/Endpoint.h **** 		#include "USBInterrupt.h"
  87:LUFA-100807/LUFA/Drivers/USB/Class/Device/../../HighLevel/../LowLevel/Endpoint.h **** 
  88:LUFA-100807/LUFA/Drivers/USB/Class/Device/../../HighLevel/../LowLevel/Endpoint.h **** 		#if !defined(NO_STREAM_CALLBACKS) || defined(__DOXYGEN__)
  89:LUFA-100807/LUFA/Drivers/USB/Class/Device/../../HighLevel/../LowLevel/Endpoint.h **** 			#include "../HighLevel/StreamCallbacks.h"
  90:LUFA-100807/LUFA/Drivers/USB/Class/Device/../../HighLevel/../LowLevel/Endpoint.h **** 		#endif
  91:LUFA-100807/LUFA/Drivers/USB/Class/Device/../../HighLevel/../LowLevel/Endpoint.h **** 		
  92:LUFA-100807/LUFA/Drivers/USB/Class/Device/../../HighLevel/../LowLevel/Endpoint.h **** 	/* Enable C linkage for C++ Compilers: */
  93:LUFA-100807/LUFA/Drivers/USB/Class/Device/../../HighLevel/../LowLevel/Endpoint.h **** 		#if defined(__cplusplus)
  94:LUFA-100807/LUFA/Drivers/USB/Class/Device/../../HighLevel/../LowLevel/Endpoint.h **** 			extern "C" {
  95:LUFA-100807/LUFA/Drivers/USB/Class/Device/../../HighLevel/../LowLevel/Endpoint.h **** 		#endif
  96:LUFA-100807/LUFA/Drivers/USB/Class/Device/../../HighLevel/../LowLevel/Endpoint.h **** 
  97:LUFA-100807/LUFA/Drivers/USB/Class/Device/../../HighLevel/../LowLevel/Endpoint.h **** 	/* Preprocessor Checks: */
  98:LUFA-100807/LUFA/Drivers/USB/Class/Device/../../HighLevel/../LowLevel/Endpoint.h **** 		#if !defined(__INCLUDE_FROM_USB_DRIVER)
  99:LUFA-100807/LUFA/Drivers/USB/Class/Device/../../HighLevel/../LowLevel/Endpoint.h **** 			#error Do not include this file directly. Include LUFA/Drivers/USB/USB.h instead.
 100:LUFA-100807/LUFA/Drivers/USB/Class/Device/../../HighLevel/../LowLevel/Endpoint.h **** 		#endif
 101:LUFA-100807/LUFA/Drivers/USB/Class/Device/../../HighLevel/../LowLevel/Endpoint.h **** 		
 102:LUFA-100807/LUFA/Drivers/USB/Class/Device/../../HighLevel/../LowLevel/Endpoint.h **** 	/* Public Interface - May be used in end-application: */
 103:LUFA-100807/LUFA/Drivers/USB/Class/Device/../../HighLevel/../LowLevel/Endpoint.h **** 		/* Macros: */
 104:LUFA-100807/LUFA/Drivers/USB/Class/Device/../../HighLevel/../LowLevel/Endpoint.h **** 			/** Endpoint data direction mask for \ref Endpoint_ConfigureEndpoint(). This indicates that the 
 105:LUFA-100807/LUFA/Drivers/USB/Class/Device/../../HighLevel/../LowLevel/Endpoint.h **** 			 *  should be initialized in the OUT direction - i.e. data flows from host to device.
 106:LUFA-100807/LUFA/Drivers/USB/Class/Device/../../HighLevel/../LowLevel/Endpoint.h **** 			 */
 107:LUFA-100807/LUFA/Drivers/USB/Class/Device/../../HighLevel/../LowLevel/Endpoint.h **** 			#define ENDPOINT_DIR_OUT                      (0 << EPDIR)
 108:LUFA-100807/LUFA/Drivers/USB/Class/Device/../../HighLevel/../LowLevel/Endpoint.h **** 
 109:LUFA-100807/LUFA/Drivers/USB/Class/Device/../../HighLevel/../LowLevel/Endpoint.h **** 			/** Endpoint data direction mask for \ref Endpoint_ConfigureEndpoint(). This indicates that the 
 110:LUFA-100807/LUFA/Drivers/USB/Class/Device/../../HighLevel/../LowLevel/Endpoint.h **** 			 *  should be initialized in the IN direction - i.e. data flows from device to host.
 111:LUFA-100807/LUFA/Drivers/USB/Class/Device/../../HighLevel/../LowLevel/Endpoint.h **** 			 */
 112:LUFA-100807/LUFA/Drivers/USB/Class/Device/../../HighLevel/../LowLevel/Endpoint.h **** 			#define ENDPOINT_DIR_IN                       (1 << EPDIR)
 113:LUFA-100807/LUFA/Drivers/USB/Class/Device/../../HighLevel/../LowLevel/Endpoint.h **** 
 114:LUFA-100807/LUFA/Drivers/USB/Class/Device/../../HighLevel/../LowLevel/Endpoint.h **** 			/** Mask for the bank mode selection for the \ref Endpoint_ConfigureEndpoint() macro. This indic
 115:LUFA-100807/LUFA/Drivers/USB/Class/Device/../../HighLevel/../LowLevel/Endpoint.h **** 			 *  that the endpoint should have one single bank, which requires less USB FIFO memory but resul
 116:LUFA-100807/LUFA/Drivers/USB/Class/Device/../../HighLevel/../LowLevel/Endpoint.h **** 			 *  in slower transfers as only one USB device (the AVR or the host) can access the endpoint's
 117:LUFA-100807/LUFA/Drivers/USB/Class/Device/../../HighLevel/../LowLevel/Endpoint.h **** 			 *  bank at the one time.
 118:LUFA-100807/LUFA/Drivers/USB/Class/Device/../../HighLevel/../LowLevel/Endpoint.h **** 			 */
 119:LUFA-100807/LUFA/Drivers/USB/Class/Device/../../HighLevel/../LowLevel/Endpoint.h **** 			#define ENDPOINT_BANK_SINGLE                  (0 << EPBK0)
 120:LUFA-100807/LUFA/Drivers/USB/Class/Device/../../HighLevel/../LowLevel/Endpoint.h **** 
 121:LUFA-100807/LUFA/Drivers/USB/Class/Device/../../HighLevel/../LowLevel/Endpoint.h **** 			/** Mask for the bank mode selection for the \ref Endpoint_ConfigureEndpoint() macro. This indic
 122:LUFA-100807/LUFA/Drivers/USB/Class/Device/../../HighLevel/../LowLevel/Endpoint.h **** 			 *  that the endpoint should have two banks, which requires more USB FIFO memory but results
 123:LUFA-100807/LUFA/Drivers/USB/Class/Device/../../HighLevel/../LowLevel/Endpoint.h **** 			 *  in faster transfers as one USB device (the AVR or the host) can access one bank while the ot
 124:LUFA-100807/LUFA/Drivers/USB/Class/Device/../../HighLevel/../LowLevel/Endpoint.h **** 			 *  accesses the second bank.
 125:LUFA-100807/LUFA/Drivers/USB/Class/Device/../../HighLevel/../LowLevel/Endpoint.h **** 			 */
 126:LUFA-100807/LUFA/Drivers/USB/Class/Device/../../HighLevel/../LowLevel/Endpoint.h **** 			#define ENDPOINT_BANK_DOUBLE                  (1 << EPBK0)
 127:LUFA-100807/LUFA/Drivers/USB/Class/Device/../../HighLevel/../LowLevel/Endpoint.h **** 			
 128:LUFA-100807/LUFA/Drivers/USB/Class/Device/../../HighLevel/../LowLevel/Endpoint.h **** 			/** Endpoint address for the default control endpoint, which always resides in address 0. This i
 129:LUFA-100807/LUFA/Drivers/USB/Class/Device/../../HighLevel/../LowLevel/Endpoint.h **** 			 *  defined for convenience to give more readable code when used with the endpoint macros.
 130:LUFA-100807/LUFA/Drivers/USB/Class/Device/../../HighLevel/../LowLevel/Endpoint.h **** 			 */
 131:LUFA-100807/LUFA/Drivers/USB/Class/Device/../../HighLevel/../LowLevel/Endpoint.h **** 			#define ENDPOINT_CONTROLEP                    0
 132:LUFA-100807/LUFA/Drivers/USB/Class/Device/../../HighLevel/../LowLevel/Endpoint.h **** 
 133:LUFA-100807/LUFA/Drivers/USB/Class/Device/../../HighLevel/../LowLevel/Endpoint.h **** 			#if (!defined(FIXED_CONTROL_ENDPOINT_SIZE) || defined(__DOXYGEN__))
 134:LUFA-100807/LUFA/Drivers/USB/Class/Device/../../HighLevel/../LowLevel/Endpoint.h **** 				/** Default size of the default control endpoint's bank, until altered by the control endpoint 
 135:LUFA-100807/LUFA/Drivers/USB/Class/Device/../../HighLevel/../LowLevel/Endpoint.h **** 				 *  value in the device descriptor. Not available if the FIXED_CONTROL_ENDPOINT_SIZE token is d
 136:LUFA-100807/LUFA/Drivers/USB/Class/Device/../../HighLevel/../LowLevel/Endpoint.h **** 				 */
 137:LUFA-100807/LUFA/Drivers/USB/Class/Device/../../HighLevel/../LowLevel/Endpoint.h **** 				#define ENDPOINT_CONTROLEP_DEFAULT_SIZE   8
 138:LUFA-100807/LUFA/Drivers/USB/Class/Device/../../HighLevel/../LowLevel/Endpoint.h **** 			#endif
 139:LUFA-100807/LUFA/Drivers/USB/Class/Device/../../HighLevel/../LowLevel/Endpoint.h **** 			
 140:LUFA-100807/LUFA/Drivers/USB/Class/Device/../../HighLevel/../LowLevel/Endpoint.h **** 			/** Endpoint number mask, for masking against endpoint addresses to retrieve the endpoint's
 141:LUFA-100807/LUFA/Drivers/USB/Class/Device/../../HighLevel/../LowLevel/Endpoint.h **** 			 *  numerical address in the device.
 142:LUFA-100807/LUFA/Drivers/USB/Class/Device/../../HighLevel/../LowLevel/Endpoint.h **** 			 */
 143:LUFA-100807/LUFA/Drivers/USB/Class/Device/../../HighLevel/../LowLevel/Endpoint.h **** 			#define ENDPOINT_EPNUM_MASK                   0x07
 144:LUFA-100807/LUFA/Drivers/USB/Class/Device/../../HighLevel/../LowLevel/Endpoint.h **** 
 145:LUFA-100807/LUFA/Drivers/USB/Class/Device/../../HighLevel/../LowLevel/Endpoint.h **** 			/** Endpoint direction mask, for masking against endpoint addresses to retrieve the endpoint's
 146:LUFA-100807/LUFA/Drivers/USB/Class/Device/../../HighLevel/../LowLevel/Endpoint.h **** 			 *  direction for comparing with the ENDPOINT_DESCRIPTOR_DIR_* masks.
 147:LUFA-100807/LUFA/Drivers/USB/Class/Device/../../HighLevel/../LowLevel/Endpoint.h **** 			 */
 148:LUFA-100807/LUFA/Drivers/USB/Class/Device/../../HighLevel/../LowLevel/Endpoint.h **** 			#define ENDPOINT_EPDIR_MASK                   0x80
 149:LUFA-100807/LUFA/Drivers/USB/Class/Device/../../HighLevel/../LowLevel/Endpoint.h **** 
 150:LUFA-100807/LUFA/Drivers/USB/Class/Device/../../HighLevel/../LowLevel/Endpoint.h **** 			/** Endpoint bank size mask, for masking against endpoint addresses to retrieve the endpoint's
 151:LUFA-100807/LUFA/Drivers/USB/Class/Device/../../HighLevel/../LowLevel/Endpoint.h **** 			 *  bank size in the device.
 152:LUFA-100807/LUFA/Drivers/USB/Class/Device/../../HighLevel/../LowLevel/Endpoint.h **** 			 */
 153:LUFA-100807/LUFA/Drivers/USB/Class/Device/../../HighLevel/../LowLevel/Endpoint.h **** 			#define ENDPOINT_EPSIZE_MASK                  0x7F
 154:LUFA-100807/LUFA/Drivers/USB/Class/Device/../../HighLevel/../LowLevel/Endpoint.h **** 			
 155:LUFA-100807/LUFA/Drivers/USB/Class/Device/../../HighLevel/../LowLevel/Endpoint.h **** 			/** Maximum size in bytes of a given endpoint.
 156:LUFA-100807/LUFA/Drivers/USB/Class/Device/../../HighLevel/../LowLevel/Endpoint.h **** 			 *
 157:LUFA-100807/LUFA/Drivers/USB/Class/Device/../../HighLevel/../LowLevel/Endpoint.h **** 			 *  \param[in] n  Endpoint number, a value between 0 and (ENDPOINT_TOTAL_ENDPOINTS - 1)
 158:LUFA-100807/LUFA/Drivers/USB/Class/Device/../../HighLevel/../LowLevel/Endpoint.h **** 			 */				
 159:LUFA-100807/LUFA/Drivers/USB/Class/Device/../../HighLevel/../LowLevel/Endpoint.h **** 			#define ENDPOINT_MAX_SIZE(n)                  _ENDPOINT_GET_MAXSIZE(n)
 160:LUFA-100807/LUFA/Drivers/USB/Class/Device/../../HighLevel/../LowLevel/Endpoint.h **** 
 161:LUFA-100807/LUFA/Drivers/USB/Class/Device/../../HighLevel/../LowLevel/Endpoint.h **** 			/** Indicates if the given endpoint supports double banking.
 162:LUFA-100807/LUFA/Drivers/USB/Class/Device/../../HighLevel/../LowLevel/Endpoint.h **** 			 *
 163:LUFA-100807/LUFA/Drivers/USB/Class/Device/../../HighLevel/../LowLevel/Endpoint.h **** 			 *  \param[in] n  Endpoint number, a value between 0 and (ENDPOINT_TOTAL_ENDPOINTS - 1)
 164:LUFA-100807/LUFA/Drivers/USB/Class/Device/../../HighLevel/../LowLevel/Endpoint.h **** 			 */				
 165:LUFA-100807/LUFA/Drivers/USB/Class/Device/../../HighLevel/../LowLevel/Endpoint.h **** 			#define ENDPOINT_DOUBLEBANK_SUPPORTED(n)      _ENDPOINT_GET_DOUBLEBANK(n)
 166:LUFA-100807/LUFA/Drivers/USB/Class/Device/../../HighLevel/../LowLevel/Endpoint.h **** 
 167:LUFA-100807/LUFA/Drivers/USB/Class/Device/../../HighLevel/../LowLevel/Endpoint.h **** 			#if !defined(CONTROL_ONLY_DEVICE)
 168:LUFA-100807/LUFA/Drivers/USB/Class/Device/../../HighLevel/../LowLevel/Endpoint.h **** 				#if defined(USB_SERIES_4_AVR) || defined(USB_SERIES_6_AVR) || defined(USB_SERIES_7_AVR) || defi
 169:LUFA-100807/LUFA/Drivers/USB/Class/Device/../../HighLevel/../LowLevel/Endpoint.h **** 					/** Total number of endpoints (including the default control endpoint at address 0) which may
 170:LUFA-100807/LUFA/Drivers/USB/Class/Device/../../HighLevel/../LowLevel/Endpoint.h **** 					 *  be used in the device. Different USB AVR models support different amounts of endpoints,
 171:LUFA-100807/LUFA/Drivers/USB/Class/Device/../../HighLevel/../LowLevel/Endpoint.h **** 					 *  this value reflects the maximum number of endpoints for the currently selected AVR model.
 172:LUFA-100807/LUFA/Drivers/USB/Class/Device/../../HighLevel/../LowLevel/Endpoint.h **** 					 */
 173:LUFA-100807/LUFA/Drivers/USB/Class/Device/../../HighLevel/../LowLevel/Endpoint.h **** 					#define ENDPOINT_TOTAL_ENDPOINTS      7
 174:LUFA-100807/LUFA/Drivers/USB/Class/Device/../../HighLevel/../LowLevel/Endpoint.h **** 				#else
 175:LUFA-100807/LUFA/Drivers/USB/Class/Device/../../HighLevel/../LowLevel/Endpoint.h **** 					#define ENDPOINT_TOTAL_ENDPOINTS      5
 176:LUFA-100807/LUFA/Drivers/USB/Class/Device/../../HighLevel/../LowLevel/Endpoint.h **** 				#endif
 177:LUFA-100807/LUFA/Drivers/USB/Class/Device/../../HighLevel/../LowLevel/Endpoint.h **** 			#else
 178:LUFA-100807/LUFA/Drivers/USB/Class/Device/../../HighLevel/../LowLevel/Endpoint.h **** 				#define ENDPOINT_TOTAL_ENDPOINTS          1
 179:LUFA-100807/LUFA/Drivers/USB/Class/Device/../../HighLevel/../LowLevel/Endpoint.h **** 			#endif
 180:LUFA-100807/LUFA/Drivers/USB/Class/Device/../../HighLevel/../LowLevel/Endpoint.h **** 
 181:LUFA-100807/LUFA/Drivers/USB/Class/Device/../../HighLevel/../LowLevel/Endpoint.h **** 		/* Enums: */
 182:LUFA-100807/LUFA/Drivers/USB/Class/Device/../../HighLevel/../LowLevel/Endpoint.h **** 			/** Enum for the possible error return codes of the \ref Endpoint_WaitUntilReady() function.
 183:LUFA-100807/LUFA/Drivers/USB/Class/Device/../../HighLevel/../LowLevel/Endpoint.h **** 			 *
 184:LUFA-100807/LUFA/Drivers/USB/Class/Device/../../HighLevel/../LowLevel/Endpoint.h **** 			 *  \ingroup Group_EndpointRW
 185:LUFA-100807/LUFA/Drivers/USB/Class/Device/../../HighLevel/../LowLevel/Endpoint.h **** 			 */
 186:LUFA-100807/LUFA/Drivers/USB/Class/Device/../../HighLevel/../LowLevel/Endpoint.h **** 			enum Endpoint_WaitUntilReady_ErrorCodes_t
 187:LUFA-100807/LUFA/Drivers/USB/Class/Device/../../HighLevel/../LowLevel/Endpoint.h **** 			{
 188:LUFA-100807/LUFA/Drivers/USB/Class/Device/../../HighLevel/../LowLevel/Endpoint.h **** 				ENDPOINT_READYWAIT_NoError                 = 0, /**< Endpoint is ready for next packet, no erro
 189:LUFA-100807/LUFA/Drivers/USB/Class/Device/../../HighLevel/../LowLevel/Endpoint.h **** 				ENDPOINT_READYWAIT_EndpointStalled         = 1, /**< The endpoint was stalled during the stream
 190:LUFA-100807/LUFA/Drivers/USB/Class/Device/../../HighLevel/../LowLevel/Endpoint.h **** 				                                                 *   transfer by the host or device.
 191:LUFA-100807/LUFA/Drivers/USB/Class/Device/../../HighLevel/../LowLevel/Endpoint.h **** 				                                                 */
 192:LUFA-100807/LUFA/Drivers/USB/Class/Device/../../HighLevel/../LowLevel/Endpoint.h **** 				ENDPOINT_READYWAIT_DeviceDisconnected      = 2,	/**< Device was disconnected from the host whil
 193:LUFA-100807/LUFA/Drivers/USB/Class/Device/../../HighLevel/../LowLevel/Endpoint.h **** 				                                                 *   waiting for the endpoint to become ready.
 194:LUFA-100807/LUFA/Drivers/USB/Class/Device/../../HighLevel/../LowLevel/Endpoint.h **** 				                                                 */
 195:LUFA-100807/LUFA/Drivers/USB/Class/Device/../../HighLevel/../LowLevel/Endpoint.h **** 				ENDPOINT_READYWAIT_BusSuspended            = 3, /**< The USB bus has been suspended by the host
 196:LUFA-100807/LUFA/Drivers/USB/Class/Device/../../HighLevel/../LowLevel/Endpoint.h **** 				                                                 *   no USB endpoint traffic can occur until th
 197:LUFA-100807/LUFA/Drivers/USB/Class/Device/../../HighLevel/../LowLevel/Endpoint.h **** 				                                                 *   has resumed.
 198:LUFA-100807/LUFA/Drivers/USB/Class/Device/../../HighLevel/../LowLevel/Endpoint.h **** 				                                                 */
 199:LUFA-100807/LUFA/Drivers/USB/Class/Device/../../HighLevel/../LowLevel/Endpoint.h **** 				ENDPOINT_READYWAIT_Timeout                 = 4, /**< The host failed to accept or send the next
 200:LUFA-100807/LUFA/Drivers/USB/Class/Device/../../HighLevel/../LowLevel/Endpoint.h **** 				                                                 *   within the software timeout period set by 
 201:LUFA-100807/LUFA/Drivers/USB/Class/Device/../../HighLevel/../LowLevel/Endpoint.h **** 				                                                 *   \ref USB_STREAM_TIMEOUT_MS macro.
 202:LUFA-100807/LUFA/Drivers/USB/Class/Device/../../HighLevel/../LowLevel/Endpoint.h **** 				                                                 */
 203:LUFA-100807/LUFA/Drivers/USB/Class/Device/../../HighLevel/../LowLevel/Endpoint.h **** 			};
 204:LUFA-100807/LUFA/Drivers/USB/Class/Device/../../HighLevel/../LowLevel/Endpoint.h **** 		
 205:LUFA-100807/LUFA/Drivers/USB/Class/Device/../../HighLevel/../LowLevel/Endpoint.h **** 			/** Enum for the possible error return codes of the Endpoint_*_Stream_* functions.
 206:LUFA-100807/LUFA/Drivers/USB/Class/Device/../../HighLevel/../LowLevel/Endpoint.h **** 			 *
 207:LUFA-100807/LUFA/Drivers/USB/Class/Device/../../HighLevel/../LowLevel/Endpoint.h **** 			 *  \ingroup Group_EndpointStreamRW
 208:LUFA-100807/LUFA/Drivers/USB/Class/Device/../../HighLevel/../LowLevel/Endpoint.h **** 			 */
 209:LUFA-100807/LUFA/Drivers/USB/Class/Device/../../HighLevel/../LowLevel/Endpoint.h **** 			enum Endpoint_Stream_RW_ErrorCodes_t
 210:LUFA-100807/LUFA/Drivers/USB/Class/Device/../../HighLevel/../LowLevel/Endpoint.h **** 			{
 211:LUFA-100807/LUFA/Drivers/USB/Class/Device/../../HighLevel/../LowLevel/Endpoint.h **** 				ENDPOINT_RWSTREAM_NoError            = 0, /**< Command completed successfully, no error. */
 212:LUFA-100807/LUFA/Drivers/USB/Class/Device/../../HighLevel/../LowLevel/Endpoint.h **** 				ENDPOINT_RWSTREAM_EndpointStalled    = 1, /**< The endpoint was stalled during the stream
 213:LUFA-100807/LUFA/Drivers/USB/Class/Device/../../HighLevel/../LowLevel/Endpoint.h **** 				                                           *   transfer by the host or device.
 214:LUFA-100807/LUFA/Drivers/USB/Class/Device/../../HighLevel/../LowLevel/Endpoint.h **** 				                                           */
 215:LUFA-100807/LUFA/Drivers/USB/Class/Device/../../HighLevel/../LowLevel/Endpoint.h **** 				ENDPOINT_RWSTREAM_DeviceDisconnected = 2, /**< Device was disconnected from the host during
 216:LUFA-100807/LUFA/Drivers/USB/Class/Device/../../HighLevel/../LowLevel/Endpoint.h **** 				                                           *   the transfer.
 217:LUFA-100807/LUFA/Drivers/USB/Class/Device/../../HighLevel/../LowLevel/Endpoint.h **** 				                                           */
 218:LUFA-100807/LUFA/Drivers/USB/Class/Device/../../HighLevel/../LowLevel/Endpoint.h **** 				ENDPOINT_RWSTREAM_BusSuspended       = 3, /**< The USB bus has been suspended by the host and
 219:LUFA-100807/LUFA/Drivers/USB/Class/Device/../../HighLevel/../LowLevel/Endpoint.h **** 				                                           *   no USB endpoint traffic can occur until the bus
 220:LUFA-100807/LUFA/Drivers/USB/Class/Device/../../HighLevel/../LowLevel/Endpoint.h **** 				                                           *   has resumed.
 221:LUFA-100807/LUFA/Drivers/USB/Class/Device/../../HighLevel/../LowLevel/Endpoint.h **** 				                                           */
 222:LUFA-100807/LUFA/Drivers/USB/Class/Device/../../HighLevel/../LowLevel/Endpoint.h **** 				ENDPOINT_RWSTREAM_Timeout            = 4, /**< The host failed to accept or send the next packe
 223:LUFA-100807/LUFA/Drivers/USB/Class/Device/../../HighLevel/../LowLevel/Endpoint.h **** 				                                           *   within the software timeout period set by the
 224:LUFA-100807/LUFA/Drivers/USB/Class/Device/../../HighLevel/../LowLevel/Endpoint.h **** 				                                           *   \ref USB_STREAM_TIMEOUT_MS macro.
 225:LUFA-100807/LUFA/Drivers/USB/Class/Device/../../HighLevel/../LowLevel/Endpoint.h **** 				                                           */
 226:LUFA-100807/LUFA/Drivers/USB/Class/Device/../../HighLevel/../LowLevel/Endpoint.h **** 				ENDPOINT_RWSTREAM_CallbackAborted    = 5, /**< Indicates that the stream's callback function
 227:LUFA-100807/LUFA/Drivers/USB/Class/Device/../../HighLevel/../LowLevel/Endpoint.h **** 			                                               *   aborted the transfer early.
 228:LUFA-100807/LUFA/Drivers/USB/Class/Device/../../HighLevel/../LowLevel/Endpoint.h **** 				                                           */
 229:LUFA-100807/LUFA/Drivers/USB/Class/Device/../../HighLevel/../LowLevel/Endpoint.h **** 			};
 230:LUFA-100807/LUFA/Drivers/USB/Class/Device/../../HighLevel/../LowLevel/Endpoint.h **** 			
 231:LUFA-100807/LUFA/Drivers/USB/Class/Device/../../HighLevel/../LowLevel/Endpoint.h **** 			/** Enum for the possible error return codes of the Endpoint_*_Control_Stream_* functions..
 232:LUFA-100807/LUFA/Drivers/USB/Class/Device/../../HighLevel/../LowLevel/Endpoint.h **** 			 *
 233:LUFA-100807/LUFA/Drivers/USB/Class/Device/../../HighLevel/../LowLevel/Endpoint.h **** 			 *  \ingroup Group_EndpointStreamRW
 234:LUFA-100807/LUFA/Drivers/USB/Class/Device/../../HighLevel/../LowLevel/Endpoint.h **** 			 */
 235:LUFA-100807/LUFA/Drivers/USB/Class/Device/../../HighLevel/../LowLevel/Endpoint.h **** 			enum Endpoint_ControlStream_RW_ErrorCodes_t
 236:LUFA-100807/LUFA/Drivers/USB/Class/Device/../../HighLevel/../LowLevel/Endpoint.h **** 			{
 237:LUFA-100807/LUFA/Drivers/USB/Class/Device/../../HighLevel/../LowLevel/Endpoint.h **** 				ENDPOINT_RWCSTREAM_NoError            = 0, /**< Command completed successfully, no error. */
 238:LUFA-100807/LUFA/Drivers/USB/Class/Device/../../HighLevel/../LowLevel/Endpoint.h **** 				ENDPOINT_RWCSTREAM_HostAborted        = 1, /**< The aborted the transfer prematurely. */
 239:LUFA-100807/LUFA/Drivers/USB/Class/Device/../../HighLevel/../LowLevel/Endpoint.h **** 				ENDPOINT_RWCSTREAM_DeviceDisconnected = 2, /**< Device was disconnected from the host during
 240:LUFA-100807/LUFA/Drivers/USB/Class/Device/../../HighLevel/../LowLevel/Endpoint.h **** 				                                            *   the transfer.
 241:LUFA-100807/LUFA/Drivers/USB/Class/Device/../../HighLevel/../LowLevel/Endpoint.h **** 				                                            */
 242:LUFA-100807/LUFA/Drivers/USB/Class/Device/../../HighLevel/../LowLevel/Endpoint.h **** 				ENDPOINT_RWCSTREAM_BusSuspended       = 3, /**< The USB bus has been suspended by the host and
 243:LUFA-100807/LUFA/Drivers/USB/Class/Device/../../HighLevel/../LowLevel/Endpoint.h **** 				                                            *   no USB endpoint traffic can occur until the bus
 244:LUFA-100807/LUFA/Drivers/USB/Class/Device/../../HighLevel/../LowLevel/Endpoint.h **** 				                                            *   has resumed.
 245:LUFA-100807/LUFA/Drivers/USB/Class/Device/../../HighLevel/../LowLevel/Endpoint.h **** 				                                            */
 246:LUFA-100807/LUFA/Drivers/USB/Class/Device/../../HighLevel/../LowLevel/Endpoint.h **** 			};
 247:LUFA-100807/LUFA/Drivers/USB/Class/Device/../../HighLevel/../LowLevel/Endpoint.h **** 
 248:LUFA-100807/LUFA/Drivers/USB/Class/Device/../../HighLevel/../LowLevel/Endpoint.h **** 		/* Inline Functions: */
 249:LUFA-100807/LUFA/Drivers/USB/Class/Device/../../HighLevel/../LowLevel/Endpoint.h **** 			/** Indicates the number of bytes currently stored in the current endpoint's selected bank.
 250:LUFA-100807/LUFA/Drivers/USB/Class/Device/../../HighLevel/../LowLevel/Endpoint.h **** 			 *
 251:LUFA-100807/LUFA/Drivers/USB/Class/Device/../../HighLevel/../LowLevel/Endpoint.h **** 			 *  \note The return width of this function may differ, depending on the maximum endpoint bank s
 252:LUFA-100807/LUFA/Drivers/USB/Class/Device/../../HighLevel/../LowLevel/Endpoint.h **** 			 *        of the selected AVR model.
 253:LUFA-100807/LUFA/Drivers/USB/Class/Device/../../HighLevel/../LowLevel/Endpoint.h **** 			 *
 254:LUFA-100807/LUFA/Drivers/USB/Class/Device/../../HighLevel/../LowLevel/Endpoint.h **** 			 *  \ingroup Group_EndpointRW
 255:LUFA-100807/LUFA/Drivers/USB/Class/Device/../../HighLevel/../LowLevel/Endpoint.h **** 			 *
 256:LUFA-100807/LUFA/Drivers/USB/Class/Device/../../HighLevel/../LowLevel/Endpoint.h **** 			 *  \return Total number of bytes in the currently selected Endpoint's FIFO buffer.
 257:LUFA-100807/LUFA/Drivers/USB/Class/Device/../../HighLevel/../LowLevel/Endpoint.h **** 			 */
 258:LUFA-100807/LUFA/Drivers/USB/Class/Device/../../HighLevel/../LowLevel/Endpoint.h **** 			static inline uint16_t Endpoint_BytesInEndpoint(void) ATTR_WARN_UNUSED_RESULT ATTR_ALWAYS_INLINE
 259:LUFA-100807/LUFA/Drivers/USB/Class/Device/../../HighLevel/../LowLevel/Endpoint.h **** 			static inline uint16_t Endpoint_BytesInEndpoint(void)
 260:LUFA-100807/LUFA/Drivers/USB/Class/Device/../../HighLevel/../LowLevel/Endpoint.h **** 			{
 261:LUFA-100807/LUFA/Drivers/USB/Class/Device/../../HighLevel/../LowLevel/Endpoint.h **** 				#if defined(USB_SERIES_6_AVR) || defined(USB_SERIES_7_AVR)
 262:LUFA-100807/LUFA/Drivers/USB/Class/Device/../../HighLevel/../LowLevel/Endpoint.h **** 					return UEBCX;
 263:LUFA-100807/LUFA/Drivers/USB/Class/Device/../../HighLevel/../LowLevel/Endpoint.h **** 				#elif defined(USB_SERIES_4_AVR)
 264:LUFA-100807/LUFA/Drivers/USB/Class/Device/../../HighLevel/../LowLevel/Endpoint.h **** 					return (((uint16_t)UEBCHX << 8) | UEBCLX);
 265:LUFA-100807/LUFA/Drivers/USB/Class/Device/../../HighLevel/../LowLevel/Endpoint.h **** 				#elif defined(USB_SERIES_2_AVR)
 266:LUFA-100807/LUFA/Drivers/USB/Class/Device/../../HighLevel/../LowLevel/Endpoint.h **** 					return UEBCLX;
 267:LUFA-100807/LUFA/Drivers/USB/Class/Device/../../HighLevel/../LowLevel/Endpoint.h **** 				#endif
 268:LUFA-100807/LUFA/Drivers/USB/Class/Device/../../HighLevel/../LowLevel/Endpoint.h **** 			}
 269:LUFA-100807/LUFA/Drivers/USB/Class/Device/../../HighLevel/../LowLevel/Endpoint.h **** 		
 270:LUFA-100807/LUFA/Drivers/USB/Class/Device/../../HighLevel/../LowLevel/Endpoint.h **** 			/** Get the endpoint address of the currently selected endpoint. This is typically used to save
 271:LUFA-100807/LUFA/Drivers/USB/Class/Device/../../HighLevel/../LowLevel/Endpoint.h **** 			 *  the currently selected endpoint number so that it can be restored after another endpoint has
 272:LUFA-100807/LUFA/Drivers/USB/Class/Device/../../HighLevel/../LowLevel/Endpoint.h **** 			 *  been manipulated.
 273:LUFA-100807/LUFA/Drivers/USB/Class/Device/../../HighLevel/../LowLevel/Endpoint.h **** 			 *
 274:LUFA-100807/LUFA/Drivers/USB/Class/Device/../../HighLevel/../LowLevel/Endpoint.h **** 			 *  \return Index of the currently selected endpoint.
 275:LUFA-100807/LUFA/Drivers/USB/Class/Device/../../HighLevel/../LowLevel/Endpoint.h **** 			 */
 276:LUFA-100807/LUFA/Drivers/USB/Class/Device/../../HighLevel/../LowLevel/Endpoint.h **** 			static inline uint8_t Endpoint_GetCurrentEndpoint(void) ATTR_WARN_UNUSED_RESULT ATTR_ALWAYS_INLI
 277:LUFA-100807/LUFA/Drivers/USB/Class/Device/../../HighLevel/../LowLevel/Endpoint.h **** 			static inline uint8_t Endpoint_GetCurrentEndpoint(void)
 278:LUFA-100807/LUFA/Drivers/USB/Class/Device/../../HighLevel/../LowLevel/Endpoint.h **** 			{
 279:LUFA-100807/LUFA/Drivers/USB/Class/Device/../../HighLevel/../LowLevel/Endpoint.h **** 				#if !defined(CONTROL_ONLY_DEVICE)
 280:LUFA-100807/LUFA/Drivers/USB/Class/Device/../../HighLevel/../LowLevel/Endpoint.h **** 					return (UENUM & ENDPOINT_EPNUM_MASK);
 281:LUFA-100807/LUFA/Drivers/USB/Class/Device/../../HighLevel/../LowLevel/Endpoint.h **** 				#else
 282:LUFA-100807/LUFA/Drivers/USB/Class/Device/../../HighLevel/../LowLevel/Endpoint.h **** 					return ENDPOINT_CONTROLEP;
 283:LUFA-100807/LUFA/Drivers/USB/Class/Device/../../HighLevel/../LowLevel/Endpoint.h **** 				#endif
 284:LUFA-100807/LUFA/Drivers/USB/Class/Device/../../HighLevel/../LowLevel/Endpoint.h **** 			}
 285:LUFA-100807/LUFA/Drivers/USB/Class/Device/../../HighLevel/../LowLevel/Endpoint.h **** 			
 286:LUFA-100807/LUFA/Drivers/USB/Class/Device/../../HighLevel/../LowLevel/Endpoint.h **** 			/** Selects the given endpoint number. If the address from the device descriptors is used, the
 287:LUFA-100807/LUFA/Drivers/USB/Class/Device/../../HighLevel/../LowLevel/Endpoint.h **** 			 *  value should be masked with the \ref ENDPOINT_EPNUM_MASK constant to extract only the endpoi
 288:LUFA-100807/LUFA/Drivers/USB/Class/Device/../../HighLevel/../LowLevel/Endpoint.h **** 			 *  number (and discarding the endpoint direction bit).
 289:LUFA-100807/LUFA/Drivers/USB/Class/Device/../../HighLevel/../LowLevel/Endpoint.h **** 			 *
 290:LUFA-100807/LUFA/Drivers/USB/Class/Device/../../HighLevel/../LowLevel/Endpoint.h **** 			 *  Any endpoint operations which do not require the endpoint number to be indicated will operat
 291:LUFA-100807/LUFA/Drivers/USB/Class/Device/../../HighLevel/../LowLevel/Endpoint.h **** 			 *  the currently selected endpoint.
 292:LUFA-100807/LUFA/Drivers/USB/Class/Device/../../HighLevel/../LowLevel/Endpoint.h **** 			 *
 293:LUFA-100807/LUFA/Drivers/USB/Class/Device/../../HighLevel/../LowLevel/Endpoint.h **** 			 *  \param[in] EndpointNumber Endpoint number to select.
 294:LUFA-100807/LUFA/Drivers/USB/Class/Device/../../HighLevel/../LowLevel/Endpoint.h **** 			 */
 295:LUFA-100807/LUFA/Drivers/USB/Class/Device/../../HighLevel/../LowLevel/Endpoint.h **** 			static inline void Endpoint_SelectEndpoint(const uint8_t EndpointNumber) ATTR_ALWAYS_INLINE;
 296:LUFA-100807/LUFA/Drivers/USB/Class/Device/../../HighLevel/../LowLevel/Endpoint.h **** 			static inline void Endpoint_SelectEndpoint(const uint8_t EndpointNumber)
 297:LUFA-100807/LUFA/Drivers/USB/Class/Device/../../HighLevel/../LowLevel/Endpoint.h **** 			{
 298:LUFA-100807/LUFA/Drivers/USB/Class/Device/../../HighLevel/../LowLevel/Endpoint.h **** 				#if !defined(CONTROL_ONLY_DEVICE)
 299:LUFA-100807/LUFA/Drivers/USB/Class/Device/../../HighLevel/../LowLevel/Endpoint.h **** 					UENUM = EndpointNumber;
 300:LUFA-100807/LUFA/Drivers/USB/Class/Device/../../HighLevel/../LowLevel/Endpoint.h **** 				#endif			
 301:LUFA-100807/LUFA/Drivers/USB/Class/Device/../../HighLevel/../LowLevel/Endpoint.h **** 			}
 302:LUFA-100807/LUFA/Drivers/USB/Class/Device/../../HighLevel/../LowLevel/Endpoint.h **** 			
 303:LUFA-100807/LUFA/Drivers/USB/Class/Device/../../HighLevel/../LowLevel/Endpoint.h **** 			/** Resets the endpoint bank FIFO. This clears all the endpoint banks and resets the USB control
 304:LUFA-100807/LUFA/Drivers/USB/Class/Device/../../HighLevel/../LowLevel/Endpoint.h **** 			 *  In and Out pointers to the bank's contents.
 305:LUFA-100807/LUFA/Drivers/USB/Class/Device/../../HighLevel/../LowLevel/Endpoint.h **** 			 *
 306:LUFA-100807/LUFA/Drivers/USB/Class/Device/../../HighLevel/../LowLevel/Endpoint.h **** 			 *  \param[in] EndpointNumber Endpoint number whose FIFO buffers are to be reset.
 307:LUFA-100807/LUFA/Drivers/USB/Class/Device/../../HighLevel/../LowLevel/Endpoint.h **** 			 */
 308:LUFA-100807/LUFA/Drivers/USB/Class/Device/../../HighLevel/../LowLevel/Endpoint.h **** 			static inline void Endpoint_ResetFIFO(const uint8_t EndpointNumber) ATTR_ALWAYS_INLINE;
 309:LUFA-100807/LUFA/Drivers/USB/Class/Device/../../HighLevel/../LowLevel/Endpoint.h **** 			static inline void Endpoint_ResetFIFO(const uint8_t EndpointNumber)
 310:LUFA-100807/LUFA/Drivers/USB/Class/Device/../../HighLevel/../LowLevel/Endpoint.h **** 			{
 311:LUFA-100807/LUFA/Drivers/USB/Class/Device/../../HighLevel/../LowLevel/Endpoint.h **** 				UERST = (1 << EndpointNumber);
 312:LUFA-100807/LUFA/Drivers/USB/Class/Device/../../HighLevel/../LowLevel/Endpoint.h **** 				UERST = 0;
 313:LUFA-100807/LUFA/Drivers/USB/Class/Device/../../HighLevel/../LowLevel/Endpoint.h **** 			}
 314:LUFA-100807/LUFA/Drivers/USB/Class/Device/../../HighLevel/../LowLevel/Endpoint.h **** 			
 315:LUFA-100807/LUFA/Drivers/USB/Class/Device/../../HighLevel/../LowLevel/Endpoint.h **** 			/** Enables the currently selected endpoint so that data can be sent and received through it to
 316:LUFA-100807/LUFA/Drivers/USB/Class/Device/../../HighLevel/../LowLevel/Endpoint.h **** 			 *  and from a host.
 317:LUFA-100807/LUFA/Drivers/USB/Class/Device/../../HighLevel/../LowLevel/Endpoint.h **** 			 *
 318:LUFA-100807/LUFA/Drivers/USB/Class/Device/../../HighLevel/../LowLevel/Endpoint.h **** 			 *  \note Endpoints must first be configured properly via \ref Endpoint_ConfigureEndpoint().
 319:LUFA-100807/LUFA/Drivers/USB/Class/Device/../../HighLevel/../LowLevel/Endpoint.h **** 			 */
 320:LUFA-100807/LUFA/Drivers/USB/Class/Device/../../HighLevel/../LowLevel/Endpoint.h **** 			static inline void Endpoint_EnableEndpoint(void) ATTR_ALWAYS_INLINE;
 321:LUFA-100807/LUFA/Drivers/USB/Class/Device/../../HighLevel/../LowLevel/Endpoint.h **** 			static inline void Endpoint_EnableEndpoint(void)
 322:LUFA-100807/LUFA/Drivers/USB/Class/Device/../../HighLevel/../LowLevel/Endpoint.h **** 			{
 323:LUFA-100807/LUFA/Drivers/USB/Class/Device/../../HighLevel/../LowLevel/Endpoint.h **** 				UECONX |= (1 << EPEN);
 324:LUFA-100807/LUFA/Drivers/USB/Class/Device/../../HighLevel/../LowLevel/Endpoint.h **** 			}
 325:LUFA-100807/LUFA/Drivers/USB/Class/Device/../../HighLevel/../LowLevel/Endpoint.h **** 
 326:LUFA-100807/LUFA/Drivers/USB/Class/Device/../../HighLevel/../LowLevel/Endpoint.h **** 			/** Disables the currently selected endpoint so that data cannot be sent and received through it
 327:LUFA-100807/LUFA/Drivers/USB/Class/Device/../../HighLevel/../LowLevel/Endpoint.h **** 			 *  to and from a host.
 328:LUFA-100807/LUFA/Drivers/USB/Class/Device/../../HighLevel/../LowLevel/Endpoint.h **** 			 */
 329:LUFA-100807/LUFA/Drivers/USB/Class/Device/../../HighLevel/../LowLevel/Endpoint.h **** 			static inline void Endpoint_DisableEndpoint(void) ATTR_ALWAYS_INLINE;
 330:LUFA-100807/LUFA/Drivers/USB/Class/Device/../../HighLevel/../LowLevel/Endpoint.h **** 			static inline void Endpoint_DisableEndpoint(void)
 331:LUFA-100807/LUFA/Drivers/USB/Class/Device/../../HighLevel/../LowLevel/Endpoint.h **** 			{
 332:LUFA-100807/LUFA/Drivers/USB/Class/Device/../../HighLevel/../LowLevel/Endpoint.h **** 				UECONX &= ~(1 << EPEN);
 333:LUFA-100807/LUFA/Drivers/USB/Class/Device/../../HighLevel/../LowLevel/Endpoint.h **** 			}
 334:LUFA-100807/LUFA/Drivers/USB/Class/Device/../../HighLevel/../LowLevel/Endpoint.h **** 			
 335:LUFA-100807/LUFA/Drivers/USB/Class/Device/../../HighLevel/../LowLevel/Endpoint.h **** 			/** Determines if the currently selected endpoint is enabled, but not necessarily configured.
 336:LUFA-100807/LUFA/Drivers/USB/Class/Device/../../HighLevel/../LowLevel/Endpoint.h **** 			 *
 337:LUFA-100807/LUFA/Drivers/USB/Class/Device/../../HighLevel/../LowLevel/Endpoint.h **** 			 * \return Boolean True if the currently selected endpoint is enabled, false otherwise.
 338:LUFA-100807/LUFA/Drivers/USB/Class/Device/../../HighLevel/../LowLevel/Endpoint.h **** 			 */
 339:LUFA-100807/LUFA/Drivers/USB/Class/Device/../../HighLevel/../LowLevel/Endpoint.h **** 			static inline bool Endpoint_IsEnabled(void) ATTR_WARN_UNUSED_RESULT ATTR_ALWAYS_INLINE;
 340:LUFA-100807/LUFA/Drivers/USB/Class/Device/../../HighLevel/../LowLevel/Endpoint.h **** 			static inline bool Endpoint_IsEnabled(void)
 341:LUFA-100807/LUFA/Drivers/USB/Class/Device/../../HighLevel/../LowLevel/Endpoint.h **** 			{
 342:LUFA-100807/LUFA/Drivers/USB/Class/Device/../../HighLevel/../LowLevel/Endpoint.h **** 				return ((UECONX & (1 << EPEN)) ? true : false);
 343:LUFA-100807/LUFA/Drivers/USB/Class/Device/../../HighLevel/../LowLevel/Endpoint.h **** 			}
 344:LUFA-100807/LUFA/Drivers/USB/Class/Device/../../HighLevel/../LowLevel/Endpoint.h **** 			
 345:LUFA-100807/LUFA/Drivers/USB/Class/Device/../../HighLevel/../LowLevel/Endpoint.h **** 			/** Determines if the currently selected endpoint may be read from (if data is waiting in the en
 346:LUFA-100807/LUFA/Drivers/USB/Class/Device/../../HighLevel/../LowLevel/Endpoint.h **** 			 *  bank and the endpoint is an OUT direction, or if the bank is not yet full if the endpoint is
 347:LUFA-100807/LUFA/Drivers/USB/Class/Device/../../HighLevel/../LowLevel/Endpoint.h **** 			 *  direction). This function will return false if an error has occurred in the endpoint, if the
 348:LUFA-100807/LUFA/Drivers/USB/Class/Device/../../HighLevel/../LowLevel/Endpoint.h **** 			 *  is an OUT direction and no packet (or an empty packet) has been received, or if the endpoint
 349:LUFA-100807/LUFA/Drivers/USB/Class/Device/../../HighLevel/../LowLevel/Endpoint.h **** 			 *  direction and the endpoint bank is full.
 350:LUFA-100807/LUFA/Drivers/USB/Class/Device/../../HighLevel/../LowLevel/Endpoint.h **** 			 *
 351:LUFA-100807/LUFA/Drivers/USB/Class/Device/../../HighLevel/../LowLevel/Endpoint.h **** 			 *  \ingroup Group_EndpointPacketManagement
 352:LUFA-100807/LUFA/Drivers/USB/Class/Device/../../HighLevel/../LowLevel/Endpoint.h **** 			 *
 353:LUFA-100807/LUFA/Drivers/USB/Class/Device/../../HighLevel/../LowLevel/Endpoint.h **** 			 *  \return Boolean true if the currently selected endpoint may be read from or written to, depe
 354:LUFA-100807/LUFA/Drivers/USB/Class/Device/../../HighLevel/../LowLevel/Endpoint.h **** 			 */
 355:LUFA-100807/LUFA/Drivers/USB/Class/Device/../../HighLevel/../LowLevel/Endpoint.h **** 			static inline bool Endpoint_IsReadWriteAllowed(void) ATTR_WARN_UNUSED_RESULT ATTR_ALWAYS_INLINE;
 356:LUFA-100807/LUFA/Drivers/USB/Class/Device/../../HighLevel/../LowLevel/Endpoint.h **** 			static inline bool Endpoint_IsReadWriteAllowed(void)
 357:LUFA-100807/LUFA/Drivers/USB/Class/Device/../../HighLevel/../LowLevel/Endpoint.h **** 			{
 358:LUFA-100807/LUFA/Drivers/USB/Class/Device/../../HighLevel/../LowLevel/Endpoint.h **** 				return ((UEINTX & (1 << RWAL)) ? true : false);
 359:LUFA-100807/LUFA/Drivers/USB/Class/Device/../../HighLevel/../LowLevel/Endpoint.h **** 			}
 360:LUFA-100807/LUFA/Drivers/USB/Class/Device/../../HighLevel/../LowLevel/Endpoint.h **** 			
 361:LUFA-100807/LUFA/Drivers/USB/Class/Device/../../HighLevel/../LowLevel/Endpoint.h **** 			/** Determines if the currently selected endpoint is configured.
 362:LUFA-100807/LUFA/Drivers/USB/Class/Device/../../HighLevel/../LowLevel/Endpoint.h **** 			 *
 363:LUFA-100807/LUFA/Drivers/USB/Class/Device/../../HighLevel/../LowLevel/Endpoint.h **** 			 *  \return Boolean true if the currently selected endpoint has been configured, false otherwise
 364:LUFA-100807/LUFA/Drivers/USB/Class/Device/../../HighLevel/../LowLevel/Endpoint.h **** 			 */
 365:LUFA-100807/LUFA/Drivers/USB/Class/Device/../../HighLevel/../LowLevel/Endpoint.h **** 			static inline bool Endpoint_IsConfigured(void) ATTR_WARN_UNUSED_RESULT ATTR_ALWAYS_INLINE;
 366:LUFA-100807/LUFA/Drivers/USB/Class/Device/../../HighLevel/../LowLevel/Endpoint.h **** 			static inline bool Endpoint_IsConfigured(void)
 367:LUFA-100807/LUFA/Drivers/USB/Class/Device/../../HighLevel/../LowLevel/Endpoint.h **** 			{
 368:LUFA-100807/LUFA/Drivers/USB/Class/Device/../../HighLevel/../LowLevel/Endpoint.h **** 				return ((UESTA0X & (1 << CFGOK)) ? true : false);
 369:LUFA-100807/LUFA/Drivers/USB/Class/Device/../../HighLevel/../LowLevel/Endpoint.h **** 			}
 370:LUFA-100807/LUFA/Drivers/USB/Class/Device/../../HighLevel/../LowLevel/Endpoint.h **** 			
 371:LUFA-100807/LUFA/Drivers/USB/Class/Device/../../HighLevel/../LowLevel/Endpoint.h **** 			/** Returns a mask indicating which INTERRUPT type endpoints have interrupted - i.e. their
 372:LUFA-100807/LUFA/Drivers/USB/Class/Device/../../HighLevel/../LowLevel/Endpoint.h **** 			 *  interrupt duration has elapsed. Which endpoints have interrupted can be determined by
 373:LUFA-100807/LUFA/Drivers/USB/Class/Device/../../HighLevel/../LowLevel/Endpoint.h **** 			 *  masking the return value against (1 << {Endpoint Number}).
 374:LUFA-100807/LUFA/Drivers/USB/Class/Device/../../HighLevel/../LowLevel/Endpoint.h **** 			 *
 375:LUFA-100807/LUFA/Drivers/USB/Class/Device/../../HighLevel/../LowLevel/Endpoint.h **** 			 *  \return Mask whose bits indicate which endpoints have interrupted.
 376:LUFA-100807/LUFA/Drivers/USB/Class/Device/../../HighLevel/../LowLevel/Endpoint.h **** 			 */
 377:LUFA-100807/LUFA/Drivers/USB/Class/Device/../../HighLevel/../LowLevel/Endpoint.h **** 			static inline uint8_t Endpoint_GetEndpointInterrupts(void) ATTR_WARN_UNUSED_RESULT ATTR_ALWAYS_I
 378:LUFA-100807/LUFA/Drivers/USB/Class/Device/../../HighLevel/../LowLevel/Endpoint.h **** 			static inline uint8_t Endpoint_GetEndpointInterrupts(void)
 379:LUFA-100807/LUFA/Drivers/USB/Class/Device/../../HighLevel/../LowLevel/Endpoint.h **** 			{
 380:LUFA-100807/LUFA/Drivers/USB/Class/Device/../../HighLevel/../LowLevel/Endpoint.h **** 				return UEINT;
 381:LUFA-100807/LUFA/Drivers/USB/Class/Device/../../HighLevel/../LowLevel/Endpoint.h **** 			}
 382:LUFA-100807/LUFA/Drivers/USB/Class/Device/../../HighLevel/../LowLevel/Endpoint.h **** 			
 383:LUFA-100807/LUFA/Drivers/USB/Class/Device/../../HighLevel/../LowLevel/Endpoint.h **** 			/** Determines if the specified endpoint number has interrupted (valid only for INTERRUPT type
 384:LUFA-100807/LUFA/Drivers/USB/Class/Device/../../HighLevel/../LowLevel/Endpoint.h **** 			 *  endpoints).
 385:LUFA-100807/LUFA/Drivers/USB/Class/Device/../../HighLevel/../LowLevel/Endpoint.h **** 			 *
 386:LUFA-100807/LUFA/Drivers/USB/Class/Device/../../HighLevel/../LowLevel/Endpoint.h **** 			 *  \param[in] EndpointNumber  Index of the endpoint whose interrupt flag should be tested.
 387:LUFA-100807/LUFA/Drivers/USB/Class/Device/../../HighLevel/../LowLevel/Endpoint.h **** 			 *
 388:LUFA-100807/LUFA/Drivers/USB/Class/Device/../../HighLevel/../LowLevel/Endpoint.h **** 			 *  \return Boolean true if the specified endpoint has interrupted, false otherwise.
 389:LUFA-100807/LUFA/Drivers/USB/Class/Device/../../HighLevel/../LowLevel/Endpoint.h **** 			 */
 390:LUFA-100807/LUFA/Drivers/USB/Class/Device/../../HighLevel/../LowLevel/Endpoint.h **** 			static inline bool Endpoint_HasEndpointInterrupted(const uint8_t EndpointNumber) ATTR_WARN_UNUSE
 391:LUFA-100807/LUFA/Drivers/USB/Class/Device/../../HighLevel/../LowLevel/Endpoint.h **** 			static inline bool Endpoint_HasEndpointInterrupted(const uint8_t EndpointNumber)
 392:LUFA-100807/LUFA/Drivers/USB/Class/Device/../../HighLevel/../LowLevel/Endpoint.h **** 			{
 393:LUFA-100807/LUFA/Drivers/USB/Class/Device/../../HighLevel/../LowLevel/Endpoint.h **** 				return ((UEINT & (1 << EndpointNumber)) ? true : false);
 394:LUFA-100807/LUFA/Drivers/USB/Class/Device/../../HighLevel/../LowLevel/Endpoint.h **** 			}
 395:LUFA-100807/LUFA/Drivers/USB/Class/Device/../../HighLevel/../LowLevel/Endpoint.h **** 			
 396:LUFA-100807/LUFA/Drivers/USB/Class/Device/../../HighLevel/../LowLevel/Endpoint.h **** 			/** Determines if the selected IN endpoint is ready for a new packet.
 397:LUFA-100807/LUFA/Drivers/USB/Class/Device/../../HighLevel/../LowLevel/Endpoint.h **** 			 *
 398:LUFA-100807/LUFA/Drivers/USB/Class/Device/../../HighLevel/../LowLevel/Endpoint.h **** 			 *  \ingroup Group_EndpointPacketManagement
 399:LUFA-100807/LUFA/Drivers/USB/Class/Device/../../HighLevel/../LowLevel/Endpoint.h **** 			 *
 400:LUFA-100807/LUFA/Drivers/USB/Class/Device/../../HighLevel/../LowLevel/Endpoint.h **** 			 *  \return Boolean true if the current endpoint is ready for an IN packet, false otherwise.
 401:LUFA-100807/LUFA/Drivers/USB/Class/Device/../../HighLevel/../LowLevel/Endpoint.h **** 			 */
 402:LUFA-100807/LUFA/Drivers/USB/Class/Device/../../HighLevel/../LowLevel/Endpoint.h **** 			static inline bool Endpoint_IsINReady(void) ATTR_WARN_UNUSED_RESULT ATTR_ALWAYS_INLINE;
 403:LUFA-100807/LUFA/Drivers/USB/Class/Device/../../HighLevel/../LowLevel/Endpoint.h **** 			static inline bool Endpoint_IsINReady(void)
 404:LUFA-100807/LUFA/Drivers/USB/Class/Device/../../HighLevel/../LowLevel/Endpoint.h **** 			{
 405:LUFA-100807/LUFA/Drivers/USB/Class/Device/../../HighLevel/../LowLevel/Endpoint.h **** 				return ((UEINTX & (1 << TXINI))  ? true : false);
 406:LUFA-100807/LUFA/Drivers/USB/Class/Device/../../HighLevel/../LowLevel/Endpoint.h **** 			}
 407:LUFA-100807/LUFA/Drivers/USB/Class/Device/../../HighLevel/../LowLevel/Endpoint.h **** 			
 408:LUFA-100807/LUFA/Drivers/USB/Class/Device/../../HighLevel/../LowLevel/Endpoint.h **** 			/** Determines if the selected OUT endpoint has received new packet.
 409:LUFA-100807/LUFA/Drivers/USB/Class/Device/../../HighLevel/../LowLevel/Endpoint.h **** 			 *
 410:LUFA-100807/LUFA/Drivers/USB/Class/Device/../../HighLevel/../LowLevel/Endpoint.h **** 			 *  \ingroup Group_EndpointPacketManagement
 411:LUFA-100807/LUFA/Drivers/USB/Class/Device/../../HighLevel/../LowLevel/Endpoint.h **** 			 *
 412:LUFA-100807/LUFA/Drivers/USB/Class/Device/../../HighLevel/../LowLevel/Endpoint.h **** 			 *  \return Boolean true if current endpoint is has received an OUT packet, false otherwise.
 413:LUFA-100807/LUFA/Drivers/USB/Class/Device/../../HighLevel/../LowLevel/Endpoint.h **** 			 */
 414:LUFA-100807/LUFA/Drivers/USB/Class/Device/../../HighLevel/../LowLevel/Endpoint.h **** 			static inline bool Endpoint_IsOUTReceived(void) ATTR_WARN_UNUSED_RESULT ATTR_ALWAYS_INLINE;
 415:LUFA-100807/LUFA/Drivers/USB/Class/Device/../../HighLevel/../LowLevel/Endpoint.h **** 			static inline bool Endpoint_IsOUTReceived(void)
 416:LUFA-100807/LUFA/Drivers/USB/Class/Device/../../HighLevel/../LowLevel/Endpoint.h **** 			{
 417:LUFA-100807/LUFA/Drivers/USB/Class/Device/../../HighLevel/../LowLevel/Endpoint.h **** 				return ((UEINTX & (1 << RXOUTI)) ? true : false);
 418:LUFA-100807/LUFA/Drivers/USB/Class/Device/../../HighLevel/../LowLevel/Endpoint.h **** 			}
 419:LUFA-100807/LUFA/Drivers/USB/Class/Device/../../HighLevel/../LowLevel/Endpoint.h **** 			
 420:LUFA-100807/LUFA/Drivers/USB/Class/Device/../../HighLevel/../LowLevel/Endpoint.h **** 			/** Determines if the current CONTROL type endpoint has received a SETUP packet.
 421:LUFA-100807/LUFA/Drivers/USB/Class/Device/../../HighLevel/../LowLevel/Endpoint.h **** 			 *
 422:LUFA-100807/LUFA/Drivers/USB/Class/Device/../../HighLevel/../LowLevel/Endpoint.h **** 			 *  \ingroup Group_EndpointPacketManagement
 423:LUFA-100807/LUFA/Drivers/USB/Class/Device/../../HighLevel/../LowLevel/Endpoint.h **** 			 *
 424:LUFA-100807/LUFA/Drivers/USB/Class/Device/../../HighLevel/../LowLevel/Endpoint.h **** 			 *  \return Boolean true if the selected endpoint has received a SETUP packet, false otherwise.
 425:LUFA-100807/LUFA/Drivers/USB/Class/Device/../../HighLevel/../LowLevel/Endpoint.h **** 			 */
 426:LUFA-100807/LUFA/Drivers/USB/Class/Device/../../HighLevel/../LowLevel/Endpoint.h **** 			static inline bool Endpoint_IsSETUPReceived(void) ATTR_WARN_UNUSED_RESULT ATTR_ALWAYS_INLINE;
 427:LUFA-100807/LUFA/Drivers/USB/Class/Device/../../HighLevel/../LowLevel/Endpoint.h **** 			static inline bool Endpoint_IsSETUPReceived(void)
  45               		.loc 2 427 23 view .LVU3
  46               	.LBB56:
 428:LUFA-100807/LUFA/Drivers/USB/Class/Device/../../HighLevel/../LowLevel/Endpoint.h **** 			{
 429:LUFA-100807/LUFA/Drivers/USB/Class/Device/../../HighLevel/../LowLevel/Endpoint.h **** 				return ((UEINTX & (1 << RXSTPI)) ? true : false);
  47               		.loc 2 429 5 view .LVU4
  48               		.loc 2 429 14 is_stmt 0 view .LVU5
  49 000a 8091 E800 		lds r24,232
  50               	.LVL1:
  51               		.loc 2 429 14 view .LVU6
  52               	.LBE56:
  53               	.LBE55:
  54               		.loc 1 72 5 view .LVU7
  55 000e 83FF      		sbrs r24,3
  56 0010 00C0      		rjmp .L1
  73:LUFA-100807/LUFA/Drivers/USB/Class/Device/RNDIS.c **** 	  return;
  74:LUFA-100807/LUFA/Drivers/USB/Class/Device/RNDIS.c **** 	  
  75:LUFA-100807/LUFA/Drivers/USB/Class/Device/RNDIS.c **** 	if (USB_ControlRequest.wIndex != RNDISInterfaceInfo->Config.ControlInterfaceNumber)
  57               		.loc 1 75 2 is_stmt 1 view .LVU8
  58               		.loc 1 75 61 is_stmt 0 view .LVU9
  59 0012 2881      		ld r18,Y
  60               		.loc 1 75 5 view .LVU10
  61 0014 8091 0000 		lds r24,USB_ControlRequest+4
  62 0018 9091 0000 		lds r25,USB_ControlRequest+4+1
  63 001c 2817      		cp r18,r24
  64 001e 1906      		cpc __zero_reg__,r25
  65 0020 01F4      		brne .L1
  76:LUFA-100807/LUFA/Drivers/USB/Class/Device/RNDIS.c **** 	  return;
  77:LUFA-100807/LUFA/Drivers/USB/Class/Device/RNDIS.c **** 
  78:LUFA-100807/LUFA/Drivers/USB/Class/Device/RNDIS.c **** 	switch (USB_ControlRequest.bRequest)
  66               		.loc 1 78 2 is_stmt 1 view .LVU11
  67               		.loc 1 78 28 is_stmt 0 view .LVU12
  68 0022 8091 0000 		lds r24,USB_ControlRequest+1
  69               		.loc 1 78 2 view .LVU13
  70 0026 8823      		tst r24
  71 0028 01F0      		breq .L3
  72 002a 8130      		cpi r24,lo8(1)
  73 002c 01F4      		brne .+2
  74 002e 00C0      		rjmp .L4
  75               	.LVL2:
  76               	.L1:
  77               	/* epilogue start */
  79:LUFA-100807/LUFA/Drivers/USB/Class/Device/RNDIS.c **** 	{
  80:LUFA-100807/LUFA/Drivers/USB/Class/Device/RNDIS.c **** 		case REQ_SendEncapsulatedCommand:
  81:LUFA-100807/LUFA/Drivers/USB/Class/Device/RNDIS.c **** 			if (USB_ControlRequest.bmRequestType == (REQDIR_HOSTTODEVICE | REQTYPE_CLASS | REQREC_INTERFACE)
  82:LUFA-100807/LUFA/Drivers/USB/Class/Device/RNDIS.c **** 			{
  83:LUFA-100807/LUFA/Drivers/USB/Class/Device/RNDIS.c **** 				Endpoint_ClearSETUP();
  84:LUFA-100807/LUFA/Drivers/USB/Class/Device/RNDIS.c **** 
  85:LUFA-100807/LUFA/Drivers/USB/Class/Device/RNDIS.c **** 				Endpoint_Read_Control_Stream_LE(RNDISInterfaceInfo->State.RNDISMessageBuffer, USB_ControlReques
  86:LUFA-100807/LUFA/Drivers/USB/Class/Device/RNDIS.c **** 				RNDIS_Device_ProcessRNDISControlMessage(RNDISInterfaceInfo);
  87:LUFA-100807/LUFA/Drivers/USB/Class/Device/RNDIS.c **** 				Endpoint_ClearIN();
  88:LUFA-100807/LUFA/Drivers/USB/Class/Device/RNDIS.c **** 			}
  89:LUFA-100807/LUFA/Drivers/USB/Class/Device/RNDIS.c **** 			
  90:LUFA-100807/LUFA/Drivers/USB/Class/Device/RNDIS.c **** 			break;
  91:LUFA-100807/LUFA/Drivers/USB/Class/Device/RNDIS.c **** 		case REQ_GetEncapsulatedResponse:
  92:LUFA-100807/LUFA/Drivers/USB/Class/Device/RNDIS.c **** 			if (USB_ControlRequest.bmRequestType == (REQDIR_DEVICETOHOST | REQTYPE_CLASS | REQREC_INTERFACE)
  93:LUFA-100807/LUFA/Drivers/USB/Class/Device/RNDIS.c **** 			{
  94:LUFA-100807/LUFA/Drivers/USB/Class/Device/RNDIS.c **** 				Endpoint_ClearSETUP();
  95:LUFA-100807/LUFA/Drivers/USB/Class/Device/RNDIS.c **** 
  96:LUFA-100807/LUFA/Drivers/USB/Class/Device/RNDIS.c **** 				RNDIS_Message_Header_t* MessageHeader = (RNDIS_Message_Header_t*)&RNDISInterfaceInfo->State.RND
  97:LUFA-100807/LUFA/Drivers/USB/Class/Device/RNDIS.c **** 
  98:LUFA-100807/LUFA/Drivers/USB/Class/Device/RNDIS.c **** 				if (!(MessageHeader->MessageLength))
  99:LUFA-100807/LUFA/Drivers/USB/Class/Device/RNDIS.c **** 				{
 100:LUFA-100807/LUFA/Drivers/USB/Class/Device/RNDIS.c **** 					RNDISInterfaceInfo->State.RNDISMessageBuffer[0] = 0;
 101:LUFA-100807/LUFA/Drivers/USB/Class/Device/RNDIS.c **** 					MessageHeader->MessageLength = 1;
 102:LUFA-100807/LUFA/Drivers/USB/Class/Device/RNDIS.c **** 				}
 103:LUFA-100807/LUFA/Drivers/USB/Class/Device/RNDIS.c **** 
 104:LUFA-100807/LUFA/Drivers/USB/Class/Device/RNDIS.c **** 				Endpoint_Write_Control_Stream_LE(RNDISInterfaceInfo->State.RNDISMessageBuffer, MessageHeader->M
 105:LUFA-100807/LUFA/Drivers/USB/Class/Device/RNDIS.c **** 				Endpoint_ClearOUT();
 106:LUFA-100807/LUFA/Drivers/USB/Class/Device/RNDIS.c **** 
 107:LUFA-100807/LUFA/Drivers/USB/Class/Device/RNDIS.c **** 				MessageHeader->MessageLength = 0;
 108:LUFA-100807/LUFA/Drivers/USB/Class/Device/RNDIS.c **** 			}
 109:LUFA-100807/LUFA/Drivers/USB/Class/Device/RNDIS.c **** 	
 110:LUFA-100807/LUFA/Drivers/USB/Class/Device/RNDIS.c **** 			break;
 111:LUFA-100807/LUFA/Drivers/USB/Class/Device/RNDIS.c **** 	}
 112:LUFA-100807/LUFA/Drivers/USB/Class/Device/RNDIS.c **** }
  78               		.loc 1 112 1 view .LVU14
  79 0030 DF91      		pop r29
  80 0032 CF91      		pop r28
  81 0034 1F91      		pop r17
  82 0036 0F91      		pop r16
  83 0038 0895      		ret
  84               	.LVL3:
  85               	.L3:
  81:LUFA-100807/LUFA/Drivers/USB/Class/Device/RNDIS.c **** 			{
  86               		.loc 1 81 4 is_stmt 1 view .LVU15
  81:LUFA-100807/LUFA/Drivers/USB/Class/Device/RNDIS.c **** 			{
  87               		.loc 1 81 7 is_stmt 0 view .LVU16
  88 003a 8091 0000 		lds r24,USB_ControlRequest
  89 003e 8132      		cpi r24,lo8(33)
  90 0040 01F4      		brne .L1
  83:LUFA-100807/LUFA/Drivers/USB/Class/Device/RNDIS.c **** 
  91               		.loc 1 83 5 is_stmt 1 view .LVU17
  92               	.LBB57:
  93               	.LBI57:
 430:LUFA-100807/LUFA/Drivers/USB/Class/Device/../../HighLevel/../LowLevel/Endpoint.h **** 			}
 431:LUFA-100807/LUFA/Drivers/USB/Class/Device/../../HighLevel/../LowLevel/Endpoint.h **** 			
 432:LUFA-100807/LUFA/Drivers/USB/Class/Device/../../HighLevel/../LowLevel/Endpoint.h **** 			/** Clears a received SETUP packet on the currently selected CONTROL type endpoint, freeing up t
 433:LUFA-100807/LUFA/Drivers/USB/Class/Device/../../HighLevel/../LowLevel/Endpoint.h **** 			 *  endpoint for the next packet.
 434:LUFA-100807/LUFA/Drivers/USB/Class/Device/../../HighLevel/../LowLevel/Endpoint.h **** 			 *
 435:LUFA-100807/LUFA/Drivers/USB/Class/Device/../../HighLevel/../LowLevel/Endpoint.h **** 			 *  \ingroup Group_EndpointPacketManagement
 436:LUFA-100807/LUFA/Drivers/USB/Class/Device/../../HighLevel/../LowLevel/Endpoint.h **** 			 *
 437:LUFA-100807/LUFA/Drivers/USB/Class/Device/../../HighLevel/../LowLevel/Endpoint.h **** 			 *  \note This is not applicable for non CONTROL type endpoints. 
 438:LUFA-100807/LUFA/Drivers/USB/Class/Device/../../HighLevel/../LowLevel/Endpoint.h **** 			 */
 439:LUFA-100807/LUFA/Drivers/USB/Class/Device/../../HighLevel/../LowLevel/Endpoint.h **** 			static inline void Endpoint_ClearSETUP(void) ATTR_ALWAYS_INLINE;
 440:LUFA-100807/LUFA/Drivers/USB/Class/Device/../../HighLevel/../LowLevel/Endpoint.h **** 			static inline void Endpoint_ClearSETUP(void)
  94               		.loc 2 440 23 view .LVU18
  95               	.LBB58:
 441:LUFA-100807/LUFA/Drivers/USB/Class/Device/../../HighLevel/../LowLevel/Endpoint.h **** 			{
 442:LUFA-100807/LUFA/Drivers/USB/Class/Device/../../HighLevel/../LowLevel/Endpoint.h **** 				UEINTX &= ~(1 << RXSTPI);
  96               		.loc 2 442 5 view .LVU19
  97               		.loc 2 442 12 is_stmt 0 view .LVU20
  98 0042 8091 E800 		lds r24,232
  99 0046 877F      		andi r24,lo8(-9)
 100 0048 8093 E800 		sts 232,r24
 101               	.LBE58:
 102               	.LBE57:
  85:LUFA-100807/LUFA/Drivers/USB/Class/Device/RNDIS.c **** 				RNDIS_Device_ProcessRNDISControlMessage(RNDISInterfaceInfo);
 103               		.loc 1 85 5 is_stmt 1 view .LVU21
 104 004c 6091 0000 		lds r22,USB_ControlRequest+6
 105 0050 7091 0000 		lds r23,USB_ControlRequest+6+1
 106 0054 CE01      		movw r24,r28
 107 0056 4596      		adiw r24,21
 108 0058 0E94 0000 		call Endpoint_Read_Control_Stream_LE
 109               	.LVL4:
  86:LUFA-100807/LUFA/Drivers/USB/Class/Device/RNDIS.c **** 				Endpoint_ClearIN();
 110               		.loc 1 86 5 view .LVU22
 111               	.LBB59:
 112               	.LBI59:
 113:LUFA-100807/LUFA/Drivers/USB/Class/Device/RNDIS.c **** 
 114:LUFA-100807/LUFA/Drivers/USB/Class/Device/RNDIS.c **** bool RNDIS_Device_ConfigureEndpoints(USB_ClassInfo_RNDIS_Device_t* const RNDISInterfaceInfo)
 115:LUFA-100807/LUFA/Drivers/USB/Class/Device/RNDIS.c **** {
 116:LUFA-100807/LUFA/Drivers/USB/Class/Device/RNDIS.c **** 	memset(&RNDISInterfaceInfo->State, 0x00, sizeof(RNDISInterfaceInfo->State));
 117:LUFA-100807/LUFA/Drivers/USB/Class/Device/RNDIS.c **** 
 118:LUFA-100807/LUFA/Drivers/USB/Class/Device/RNDIS.c **** 	if (!(Endpoint_ConfigureEndpoint(RNDISInterfaceInfo->Config.DataINEndpointNumber, EP_TYPE_BULK,
 119:LUFA-100807/LUFA/Drivers/USB/Class/Device/RNDIS.c **** 							         ENDPOINT_DIR_IN, RNDISInterfaceInfo->Config.DataINEndpointSize,
 120:LUFA-100807/LUFA/Drivers/USB/Class/Device/RNDIS.c **** 							         RNDISInterfaceInfo->Config.DataINEndpointDoubleBank ? ENDPOINT_BANK_DOUBLE : ENDPOI
 121:LUFA-100807/LUFA/Drivers/USB/Class/Device/RNDIS.c **** 	{
 122:LUFA-100807/LUFA/Drivers/USB/Class/Device/RNDIS.c **** 		return false;
 123:LUFA-100807/LUFA/Drivers/USB/Class/Device/RNDIS.c **** 	}
 124:LUFA-100807/LUFA/Drivers/USB/Class/Device/RNDIS.c **** 
 125:LUFA-100807/LUFA/Drivers/USB/Class/Device/RNDIS.c **** 	if (!(Endpoint_ConfigureEndpoint(RNDISInterfaceInfo->Config.DataOUTEndpointNumber, EP_TYPE_BULK,
 126:LUFA-100807/LUFA/Drivers/USB/Class/Device/RNDIS.c **** 	                                 ENDPOINT_DIR_OUT, RNDISInterfaceInfo->Config.DataOUTEndpointSize,
 127:LUFA-100807/LUFA/Drivers/USB/Class/Device/RNDIS.c **** 	                                 RNDISInterfaceInfo->Config.DataOUTEndpointDoubleBank ? ENDPOINT_B
 128:LUFA-100807/LUFA/Drivers/USB/Class/Device/RNDIS.c **** 	{
 129:LUFA-100807/LUFA/Drivers/USB/Class/Device/RNDIS.c **** 		return false;
 130:LUFA-100807/LUFA/Drivers/USB/Class/Device/RNDIS.c **** 	}
 131:LUFA-100807/LUFA/Drivers/USB/Class/Device/RNDIS.c **** 
 132:LUFA-100807/LUFA/Drivers/USB/Class/Device/RNDIS.c **** 	if (!(Endpoint_ConfigureEndpoint(RNDISInterfaceInfo->Config.NotificationEndpointNumber, EP_TYPE_IN
 133:LUFA-100807/LUFA/Drivers/USB/Class/Device/RNDIS.c **** 	                                 ENDPOINT_DIR_IN, RNDISInterfaceInfo->Config.NotificationEndpointS
 134:LUFA-100807/LUFA/Drivers/USB/Class/Device/RNDIS.c **** 	                                 RNDISInterfaceInfo->Config.NotificationEndpointDoubleBank ? ENDPO
 135:LUFA-100807/LUFA/Drivers/USB/Class/Device/RNDIS.c **** 	{
 136:LUFA-100807/LUFA/Drivers/USB/Class/Device/RNDIS.c **** 		return false;
 137:LUFA-100807/LUFA/Drivers/USB/Class/Device/RNDIS.c **** 	}
 138:LUFA-100807/LUFA/Drivers/USB/Class/Device/RNDIS.c **** 
 139:LUFA-100807/LUFA/Drivers/USB/Class/Device/RNDIS.c **** 	return true;
 140:LUFA-100807/LUFA/Drivers/USB/Class/Device/RNDIS.c **** }
 141:LUFA-100807/LUFA/Drivers/USB/Class/Device/RNDIS.c **** 
 142:LUFA-100807/LUFA/Drivers/USB/Class/Device/RNDIS.c **** void RNDIS_Device_USBTask(USB_ClassInfo_RNDIS_Device_t* const RNDISInterfaceInfo)
 143:LUFA-100807/LUFA/Drivers/USB/Class/Device/RNDIS.c **** {
 144:LUFA-100807/LUFA/Drivers/USB/Class/Device/RNDIS.c **** 	if (USB_DeviceState != DEVICE_STATE_Configured)
 145:LUFA-100807/LUFA/Drivers/USB/Class/Device/RNDIS.c **** 	  return;
 146:LUFA-100807/LUFA/Drivers/USB/Class/Device/RNDIS.c **** 
 147:LUFA-100807/LUFA/Drivers/USB/Class/Device/RNDIS.c **** 	RNDIS_Message_Header_t* MessageHeader = (RNDIS_Message_Header_t*)&RNDISInterfaceInfo->State.RNDISM
 148:LUFA-100807/LUFA/Drivers/USB/Class/Device/RNDIS.c **** 
 149:LUFA-100807/LUFA/Drivers/USB/Class/Device/RNDIS.c **** 	Endpoint_SelectEndpoint(RNDISInterfaceInfo->Config.NotificationEndpointNumber);
 150:LUFA-100807/LUFA/Drivers/USB/Class/Device/RNDIS.c **** 
 151:LUFA-100807/LUFA/Drivers/USB/Class/Device/RNDIS.c **** 	if (Endpoint_IsINReady() && RNDISInterfaceInfo->State.ResponseReady)
 152:LUFA-100807/LUFA/Drivers/USB/Class/Device/RNDIS.c **** 	{
 153:LUFA-100807/LUFA/Drivers/USB/Class/Device/RNDIS.c **** 		USB_Request_Header_t Notification = (USB_Request_Header_t)
 154:LUFA-100807/LUFA/Drivers/USB/Class/Device/RNDIS.c **** 			{
 155:LUFA-100807/LUFA/Drivers/USB/Class/Device/RNDIS.c **** 				.bmRequestType = (REQDIR_DEVICETOHOST | REQTYPE_CLASS | REQREC_INTERFACE),
 156:LUFA-100807/LUFA/Drivers/USB/Class/Device/RNDIS.c **** 				.bRequest      = NOTIF_ResponseAvailable,
 157:LUFA-100807/LUFA/Drivers/USB/Class/Device/RNDIS.c **** 				.wValue        = 0,
 158:LUFA-100807/LUFA/Drivers/USB/Class/Device/RNDIS.c **** 				.wIndex        = 0,
 159:LUFA-100807/LUFA/Drivers/USB/Class/Device/RNDIS.c **** 				.wLength       = 0,
 160:LUFA-100807/LUFA/Drivers/USB/Class/Device/RNDIS.c **** 			};
 161:LUFA-100807/LUFA/Drivers/USB/Class/Device/RNDIS.c **** 		
 162:LUFA-100807/LUFA/Drivers/USB/Class/Device/RNDIS.c **** 		Endpoint_Write_Stream_LE(&Notification, sizeof(USB_Request_Header_t), NO_STREAM_CALLBACK);
 163:LUFA-100807/LUFA/Drivers/USB/Class/Device/RNDIS.c **** 
 164:LUFA-100807/LUFA/Drivers/USB/Class/Device/RNDIS.c **** 		Endpoint_ClearIN();
 165:LUFA-100807/LUFA/Drivers/USB/Class/Device/RNDIS.c **** 
 166:LUFA-100807/LUFA/Drivers/USB/Class/Device/RNDIS.c **** 		RNDISInterfaceInfo->State.ResponseReady = false;
 167:LUFA-100807/LUFA/Drivers/USB/Class/Device/RNDIS.c **** 	}
 168:LUFA-100807/LUFA/Drivers/USB/Class/Device/RNDIS.c **** 	
 169:LUFA-100807/LUFA/Drivers/USB/Class/Device/RNDIS.c **** 	if ((RNDISInterfaceInfo->State.CurrRNDISState == RNDIS_Data_Initialized) && !(MessageHeader->Messa
 170:LUFA-100807/LUFA/Drivers/USB/Class/Device/RNDIS.c **** 	{
 171:LUFA-100807/LUFA/Drivers/USB/Class/Device/RNDIS.c **** 		RNDIS_Packet_Message_t RNDISPacketHeader;
 172:LUFA-100807/LUFA/Drivers/USB/Class/Device/RNDIS.c **** 
 173:LUFA-100807/LUFA/Drivers/USB/Class/Device/RNDIS.c **** 		Endpoint_SelectEndpoint(RNDISInterfaceInfo->Config.DataOUTEndpointNumber);
 174:LUFA-100807/LUFA/Drivers/USB/Class/Device/RNDIS.c **** 
 175:LUFA-100807/LUFA/Drivers/USB/Class/Device/RNDIS.c **** 		if (Endpoint_IsOUTReceived() && !(RNDISInterfaceInfo->State.FrameIN.FrameInBuffer))
 176:LUFA-100807/LUFA/Drivers/USB/Class/Device/RNDIS.c **** 		{
 177:LUFA-100807/LUFA/Drivers/USB/Class/Device/RNDIS.c **** 			Endpoint_Read_Stream_LE(&RNDISPacketHeader, sizeof(RNDIS_Packet_Message_t), NO_STREAM_CALLBACK);
 178:LUFA-100807/LUFA/Drivers/USB/Class/Device/RNDIS.c **** 
 179:LUFA-100807/LUFA/Drivers/USB/Class/Device/RNDIS.c **** 			if (RNDISPacketHeader.DataLength > ETHERNET_FRAME_SIZE_MAX)
 180:LUFA-100807/LUFA/Drivers/USB/Class/Device/RNDIS.c **** 			{
 181:LUFA-100807/LUFA/Drivers/USB/Class/Device/RNDIS.c **** 				Endpoint_StallTransaction();
 182:LUFA-100807/LUFA/Drivers/USB/Class/Device/RNDIS.c **** 				return;
 183:LUFA-100807/LUFA/Drivers/USB/Class/Device/RNDIS.c **** 			}
 184:LUFA-100807/LUFA/Drivers/USB/Class/Device/RNDIS.c **** 			
 185:LUFA-100807/LUFA/Drivers/USB/Class/Device/RNDIS.c **** 			Endpoint_Read_Stream_LE(RNDISInterfaceInfo->State.FrameIN.FrameData, RNDISPacketHeader.DataLengt
 186:LUFA-100807/LUFA/Drivers/USB/Class/Device/RNDIS.c **** 
 187:LUFA-100807/LUFA/Drivers/USB/Class/Device/RNDIS.c **** 			Endpoint_ClearOUT();
 188:LUFA-100807/LUFA/Drivers/USB/Class/Device/RNDIS.c **** 			
 189:LUFA-100807/LUFA/Drivers/USB/Class/Device/RNDIS.c **** 			RNDISInterfaceInfo->State.FrameIN.FrameLength = RNDISPacketHeader.DataLength;
 190:LUFA-100807/LUFA/Drivers/USB/Class/Device/RNDIS.c **** 
 191:LUFA-100807/LUFA/Drivers/USB/Class/Device/RNDIS.c **** 			RNDISInterfaceInfo->State.FrameIN.FrameInBuffer = true;
 192:LUFA-100807/LUFA/Drivers/USB/Class/Device/RNDIS.c **** 		}
 193:LUFA-100807/LUFA/Drivers/USB/Class/Device/RNDIS.c **** 		
 194:LUFA-100807/LUFA/Drivers/USB/Class/Device/RNDIS.c **** 		Endpoint_SelectEndpoint(RNDISInterfaceInfo->Config.DataINEndpointNumber);
 195:LUFA-100807/LUFA/Drivers/USB/Class/Device/RNDIS.c **** 		
 196:LUFA-100807/LUFA/Drivers/USB/Class/Device/RNDIS.c **** 		if (Endpoint_IsINReady() && RNDISInterfaceInfo->State.FrameOUT.FrameInBuffer)
 197:LUFA-100807/LUFA/Drivers/USB/Class/Device/RNDIS.c **** 		{
 198:LUFA-100807/LUFA/Drivers/USB/Class/Device/RNDIS.c **** 			memset(&RNDISPacketHeader, 0, sizeof(RNDIS_Packet_Message_t));
 199:LUFA-100807/LUFA/Drivers/USB/Class/Device/RNDIS.c **** 
 200:LUFA-100807/LUFA/Drivers/USB/Class/Device/RNDIS.c **** 			RNDISPacketHeader.MessageType   = REMOTE_NDIS_PACKET_MSG;
 201:LUFA-100807/LUFA/Drivers/USB/Class/Device/RNDIS.c **** 			RNDISPacketHeader.MessageLength = (sizeof(RNDIS_Packet_Message_t) + RNDISInterfaceInfo->State.Fr
 202:LUFA-100807/LUFA/Drivers/USB/Class/Device/RNDIS.c **** 			RNDISPacketHeader.DataOffset    = (sizeof(RNDIS_Packet_Message_t) - sizeof(RNDIS_Message_Header_
 203:LUFA-100807/LUFA/Drivers/USB/Class/Device/RNDIS.c **** 			RNDISPacketHeader.DataLength    = RNDISInterfaceInfo->State.FrameOUT.FrameLength;
 204:LUFA-100807/LUFA/Drivers/USB/Class/Device/RNDIS.c **** 
 205:LUFA-100807/LUFA/Drivers/USB/Class/Device/RNDIS.c **** 			Endpoint_Write_Stream_LE(&RNDISPacketHeader, sizeof(RNDIS_Packet_Message_t), NO_STREAM_CALLBACK)
 206:LUFA-100807/LUFA/Drivers/USB/Class/Device/RNDIS.c **** 			Endpoint_Write_Stream_LE(RNDISInterfaceInfo->State.FrameOUT.FrameData, RNDISPacketHeader.DataLen
 207:LUFA-100807/LUFA/Drivers/USB/Class/Device/RNDIS.c **** 			Endpoint_ClearIN();
 208:LUFA-100807/LUFA/Drivers/USB/Class/Device/RNDIS.c **** 			
 209:LUFA-100807/LUFA/Drivers/USB/Class/Device/RNDIS.c **** 			RNDISInterfaceInfo->State.FrameOUT.FrameInBuffer = false;
 210:LUFA-100807/LUFA/Drivers/USB/Class/Device/RNDIS.c **** 		}
 211:LUFA-100807/LUFA/Drivers/USB/Class/Device/RNDIS.c **** 	}
 212:LUFA-100807/LUFA/Drivers/USB/Class/Device/RNDIS.c **** }							
 213:LUFA-100807/LUFA/Drivers/USB/Class/Device/RNDIS.c **** 
 214:LUFA-100807/LUFA/Drivers/USB/Class/Device/RNDIS.c **** void RNDIS_Device_ProcessRNDISControlMessage(USB_ClassInfo_RNDIS_Device_t* const RNDISInterfaceInfo
 113               		.loc 1 214 6 view .LVU23
 114               	.LBB60:
 215:LUFA-100807/LUFA/Drivers/USB/Class/Device/RNDIS.c **** {
 216:LUFA-100807/LUFA/Drivers/USB/Class/Device/RNDIS.c **** 	/* Note: Only a single buffer is used for both the received message and its response to save SRAM.
 217:LUFA-100807/LUFA/Drivers/USB/Class/Device/RNDIS.c **** 	         this, response bytes should be filled in order so that they do not clobber unread data in
 218:LUFA-100807/LUFA/Drivers/USB/Class/Device/RNDIS.c **** 
 219:LUFA-100807/LUFA/Drivers/USB/Class/Device/RNDIS.c **** 	RNDIS_Message_Header_t* MessageHeader = (RNDIS_Message_Header_t*)&RNDISInterfaceInfo->State.RNDISM
 115               		.loc 1 219 2 view .LVU24
 220:LUFA-100807/LUFA/Drivers/USB/Class/Device/RNDIS.c **** 
 221:LUFA-100807/LUFA/Drivers/USB/Class/Device/RNDIS.c **** 	switch (MessageHeader->MessageType)
 116               		.loc 1 221 2 view .LVU25
 117               		.loc 1 221 23 is_stmt 0 view .LVU26
 118 005c 8D89      		ldd r24,Y+21
 119 005e 9E89      		ldd r25,Y+22
 120 0060 AF89      		ldd r26,Y+23
 121 0062 B88D      		ldd r27,Y+24
 122               		.loc 1 221 2 view .LVU27
 123 0064 8530      		cpi r24,5
 124 0066 9105      		cpc r25,__zero_reg__
 125 0068 A105      		cpc r26,__zero_reg__
 126 006a B105      		cpc r27,__zero_reg__
 127 006c 01F4      		brne .+2
 128 006e 00C0      		rjmp .L5
 129 0070 00F4      		brsh .L6
 130 0072 8330      		cpi r24,3
 131 0074 9105      		cpc r25,__zero_reg__
 132 0076 A105      		cpc r26,__zero_reg__
 133 0078 B105      		cpc r27,__zero_reg__
 134 007a 01F4      		brne .+2
 135 007c 00C0      		rjmp .L7
 136 007e 8430      		cpi r24,4
 137 0080 9105      		cpc r25,__zero_reg__
 138 0082 A105      		cpc r26,__zero_reg__
 139 0084 B105      		cpc r27,__zero_reg__
 140 0086 01F4      		brne .+2
 141 0088 00C0      		rjmp .L8
 142 008a 0297      		sbiw r24,2
 143 008c A105      		cpc r26,__zero_reg__
 144 008e B105      		cpc r27,__zero_reg__
 145 0090 01F0      		breq .L9
 146               	.LVL5:
 147               	.L10:
 148               		.loc 1 221 2 view .LVU28
 149               	.LBE60:
 150               	.LBE59:
  87:LUFA-100807/LUFA/Drivers/USB/Class/Device/RNDIS.c **** 			}
 151               		.loc 1 87 5 is_stmt 1 view .LVU29
 152               	.LBB75:
 153               	.LBI75:
 443:LUFA-100807/LUFA/Drivers/USB/Class/Device/../../HighLevel/../LowLevel/Endpoint.h **** 			}
 444:LUFA-100807/LUFA/Drivers/USB/Class/Device/../../HighLevel/../LowLevel/Endpoint.h **** 			
 445:LUFA-100807/LUFA/Drivers/USB/Class/Device/../../HighLevel/../LowLevel/Endpoint.h **** 			/** Sends an IN packet to the host on the currently selected endpoint, freeing up the endpoint f
 446:LUFA-100807/LUFA/Drivers/USB/Class/Device/../../HighLevel/../LowLevel/Endpoint.h **** 			 *  next packet and switching to the alternative endpoint bank if double banked.
 447:LUFA-100807/LUFA/Drivers/USB/Class/Device/../../HighLevel/../LowLevel/Endpoint.h **** 			 *
 448:LUFA-100807/LUFA/Drivers/USB/Class/Device/../../HighLevel/../LowLevel/Endpoint.h **** 			 *  \ingroup Group_EndpointPacketManagement
 449:LUFA-100807/LUFA/Drivers/USB/Class/Device/../../HighLevel/../LowLevel/Endpoint.h **** 			 */
 450:LUFA-100807/LUFA/Drivers/USB/Class/Device/../../HighLevel/../LowLevel/Endpoint.h **** 			static inline void Endpoint_ClearIN(void) ATTR_ALWAYS_INLINE;
 451:LUFA-100807/LUFA/Drivers/USB/Class/Device/../../HighLevel/../LowLevel/Endpoint.h **** 			static inline void Endpoint_ClearIN(void)
 154               		.loc 2 451 23 view .LVU30
 155               	.LBB76:
 452:LUFA-100807/LUFA/Drivers/USB/Class/Device/../../HighLevel/../LowLevel/Endpoint.h **** 			{
 453:LUFA-100807/LUFA/Drivers/USB/Class/Device/../../HighLevel/../LowLevel/Endpoint.h **** 				#if !defined(CONTROL_ONLY_DEVICE)
 454:LUFA-100807/LUFA/Drivers/USB/Class/Device/../../HighLevel/../LowLevel/Endpoint.h **** 					UEINTX &= ~((1 << TXINI) | (1 << FIFOCON));
 156               		.loc 2 454 6 view .LVU31
 157               		.loc 2 454 13 is_stmt 0 view .LVU32
 158 0092 8091 E800 		lds r24,232
 159 0096 8E77      		andi r24,lo8(126)
 160 0098 8093 E800 		sts 232,r24
 455:LUFA-100807/LUFA/Drivers/USB/Class/Device/../../HighLevel/../LowLevel/Endpoint.h **** 				#else
 456:LUFA-100807/LUFA/Drivers/USB/Class/Device/../../HighLevel/../LowLevel/Endpoint.h **** 					UEINTX &= ~(1 << TXINI);
 457:LUFA-100807/LUFA/Drivers/USB/Class/Device/../../HighLevel/../LowLevel/Endpoint.h **** 				#endif
 458:LUFA-100807/LUFA/Drivers/USB/Class/Device/../../HighLevel/../LowLevel/Endpoint.h **** 			}
 161               		.loc 2 458 4 view .LVU33
 162 009c 00C0      		rjmp .L1
 163               	.LVL6:
 164               	.L6:
 165               		.loc 2 458 4 view .LVU34
 166               	.LBE76:
 167               	.LBE75:
 168               	.LBB77:
 169               	.LBB74:
 170               		.loc 1 221 2 view .LVU35
 171 009e 8630      		cpi r24,6
 172 00a0 9105      		cpc r25,__zero_reg__
 173 00a2 A105      		cpc r26,__zero_reg__
 174 00a4 B105      		cpc r27,__zero_reg__
 175 00a6 01F4      		brne .+2
 176 00a8 00C0      		rjmp .L11
 177 00aa 0897      		sbiw r24,8
 178 00ac A105      		cpc r26,__zero_reg__
 179 00ae B105      		cpc r27,__zero_reg__
 180 00b0 01F4      		brne .L10
 181               	.LBB61:
 222:LUFA-100807/LUFA/Drivers/USB/Class/Device/RNDIS.c **** 	{
 223:LUFA-100807/LUFA/Drivers/USB/Class/Device/RNDIS.c **** 		case REMOTE_NDIS_INITIALIZE_MSG:
 224:LUFA-100807/LUFA/Drivers/USB/Class/Device/RNDIS.c **** 			RNDISInterfaceInfo->State.ResponseReady = true;
 225:LUFA-100807/LUFA/Drivers/USB/Class/Device/RNDIS.c **** 			
 226:LUFA-100807/LUFA/Drivers/USB/Class/Device/RNDIS.c **** 			RNDIS_Initialize_Message_t*  INITIALIZE_Message  =
 227:LUFA-100807/LUFA/Drivers/USB/Class/Device/RNDIS.c **** 			               (RNDIS_Initialize_Message_t*)&RNDISInterfaceInfo->State.RNDISMessageBuffer;
 228:LUFA-100807/LUFA/Drivers/USB/Class/Device/RNDIS.c **** 			RNDIS_Initialize_Complete_t* INITIALIZE_Response =
 229:LUFA-100807/LUFA/Drivers/USB/Class/Device/RNDIS.c **** 			               (RNDIS_Initialize_Complete_t*)&RNDISInterfaceInfo->State.RNDISMessageBuffer;
 230:LUFA-100807/LUFA/Drivers/USB/Class/Device/RNDIS.c **** 			
 231:LUFA-100807/LUFA/Drivers/USB/Class/Device/RNDIS.c **** 			INITIALIZE_Response->MessageType           = REMOTE_NDIS_INITIALIZE_CMPLT;
 232:LUFA-100807/LUFA/Drivers/USB/Class/Device/RNDIS.c **** 			INITIALIZE_Response->MessageLength         = sizeof(RNDIS_Initialize_Complete_t);
 233:LUFA-100807/LUFA/Drivers/USB/Class/Device/RNDIS.c **** 			INITIALIZE_Response->RequestId             = INITIALIZE_Message->RequestId;
 234:LUFA-100807/LUFA/Drivers/USB/Class/Device/RNDIS.c **** 			INITIALIZE_Response->Status                = REMOTE_NDIS_STATUS_SUCCESS;
 235:LUFA-100807/LUFA/Drivers/USB/Class/Device/RNDIS.c **** 			
 236:LUFA-100807/LUFA/Drivers/USB/Class/Device/RNDIS.c **** 			INITIALIZE_Response->MajorVersion          = REMOTE_NDIS_VERSION_MAJOR;
 237:LUFA-100807/LUFA/Drivers/USB/Class/Device/RNDIS.c **** 			INITIALIZE_Response->MinorVersion          = REMOTE_NDIS_VERSION_MINOR;			
 238:LUFA-100807/LUFA/Drivers/USB/Class/Device/RNDIS.c **** 			INITIALIZE_Response->DeviceFlags           = REMOTE_NDIS_DF_CONNECTIONLESS;
 239:LUFA-100807/LUFA/Drivers/USB/Class/Device/RNDIS.c **** 			INITIALIZE_Response->Medium                = REMOTE_NDIS_MEDIUM_802_3;
 240:LUFA-100807/LUFA/Drivers/USB/Class/Device/RNDIS.c **** 			INITIALIZE_Response->MaxPacketsPerTransfer = 1;
 241:LUFA-100807/LUFA/Drivers/USB/Class/Device/RNDIS.c **** 			INITIALIZE_Response->MaxTransferSize       = (sizeof(RNDIS_Packet_Message_t) + ETHERNET_FRAME_SI
 242:LUFA-100807/LUFA/Drivers/USB/Class/Device/RNDIS.c **** 			INITIALIZE_Response->PacketAlignmentFactor = 0;
 243:LUFA-100807/LUFA/Drivers/USB/Class/Device/RNDIS.c **** 			INITIALIZE_Response->AFListOffset          = 0;
 244:LUFA-100807/LUFA/Drivers/USB/Class/Device/RNDIS.c **** 			INITIALIZE_Response->AFListSize            = 0;
 245:LUFA-100807/LUFA/Drivers/USB/Class/Device/RNDIS.c **** 			
 246:LUFA-100807/LUFA/Drivers/USB/Class/Device/RNDIS.c **** 			RNDISInterfaceInfo->State.CurrRNDISState = RNDIS_Initialized;
 247:LUFA-100807/LUFA/Drivers/USB/Class/Device/RNDIS.c **** 		
 248:LUFA-100807/LUFA/Drivers/USB/Class/Device/RNDIS.c **** 			break;
 249:LUFA-100807/LUFA/Drivers/USB/Class/Device/RNDIS.c **** 		case REMOTE_NDIS_HALT_MSG:
 250:LUFA-100807/LUFA/Drivers/USB/Class/Device/RNDIS.c **** 			RNDISInterfaceInfo->State.ResponseReady = false;
 251:LUFA-100807/LUFA/Drivers/USB/Class/Device/RNDIS.c **** 			MessageHeader->MessageLength = 0;
 252:LUFA-100807/LUFA/Drivers/USB/Class/Device/RNDIS.c **** 
 253:LUFA-100807/LUFA/Drivers/USB/Class/Device/RNDIS.c **** 			RNDISInterfaceInfo->State.CurrRNDISState = RNDIS_Uninitialized;
 254:LUFA-100807/LUFA/Drivers/USB/Class/Device/RNDIS.c **** 
 255:LUFA-100807/LUFA/Drivers/USB/Class/Device/RNDIS.c **** 			break;
 256:LUFA-100807/LUFA/Drivers/USB/Class/Device/RNDIS.c **** 		case REMOTE_NDIS_QUERY_MSG:
 257:LUFA-100807/LUFA/Drivers/USB/Class/Device/RNDIS.c **** 			RNDISInterfaceInfo->State.ResponseReady = true;
 258:LUFA-100807/LUFA/Drivers/USB/Class/Device/RNDIS.c **** 						
 259:LUFA-100807/LUFA/Drivers/USB/Class/Device/RNDIS.c **** 			RNDIS_Query_Message_t*  QUERY_Message  = (RNDIS_Query_Message_t*)&RNDISInterfaceInfo->State.RNDI
 260:LUFA-100807/LUFA/Drivers/USB/Class/Device/RNDIS.c **** 			RNDIS_Query_Complete_t* QUERY_Response = (RNDIS_Query_Complete_t*)&RNDISInterfaceInfo->State.RND
 261:LUFA-100807/LUFA/Drivers/USB/Class/Device/RNDIS.c **** 			uint32_t                Query_Oid      = QUERY_Message->Oid;
 262:LUFA-100807/LUFA/Drivers/USB/Class/Device/RNDIS.c **** 						
 263:LUFA-100807/LUFA/Drivers/USB/Class/Device/RNDIS.c **** 			void*     QueryData = &RNDISInterfaceInfo->State.RNDISMessageBuffer[sizeof(RNDIS_Message_Header_
 264:LUFA-100807/LUFA/Drivers/USB/Class/Device/RNDIS.c **** 			                                                                    QUERY_Message->InformationBu
 265:LUFA-100807/LUFA/Drivers/USB/Class/Device/RNDIS.c **** 			void*     ResponseData = &RNDISInterfaceInfo->State.RNDISMessageBuffer[sizeof(RNDIS_Query_Comple
 266:LUFA-100807/LUFA/Drivers/USB/Class/Device/RNDIS.c **** 			uint16_t  ResponseSize;
 267:LUFA-100807/LUFA/Drivers/USB/Class/Device/RNDIS.c **** 
 268:LUFA-100807/LUFA/Drivers/USB/Class/Device/RNDIS.c **** 			QUERY_Response->MessageType   = REMOTE_NDIS_QUERY_CMPLT;
 269:LUFA-100807/LUFA/Drivers/USB/Class/Device/RNDIS.c **** 			QUERY_Response->MessageLength = sizeof(RNDIS_Query_Complete_t);
 270:LUFA-100807/LUFA/Drivers/USB/Class/Device/RNDIS.c **** 						
 271:LUFA-100807/LUFA/Drivers/USB/Class/Device/RNDIS.c **** 			if (RNDIS_Device_ProcessNDISQuery(RNDISInterfaceInfo, Query_Oid, QueryData, QUERY_Message->Infor
 272:LUFA-100807/LUFA/Drivers/USB/Class/Device/RNDIS.c **** 			                                  ResponseData, &ResponseSize))
 273:LUFA-100807/LUFA/Drivers/USB/Class/Device/RNDIS.c **** 			{
 274:LUFA-100807/LUFA/Drivers/USB/Class/Device/RNDIS.c **** 				QUERY_Response->Status                  = REMOTE_NDIS_STATUS_SUCCESS;
 275:LUFA-100807/LUFA/Drivers/USB/Class/Device/RNDIS.c **** 				QUERY_Response->MessageLength          += ResponseSize;
 276:LUFA-100807/LUFA/Drivers/USB/Class/Device/RNDIS.c **** 							
 277:LUFA-100807/LUFA/Drivers/USB/Class/Device/RNDIS.c **** 				QUERY_Response->InformationBufferLength = ResponseSize;
 278:LUFA-100807/LUFA/Drivers/USB/Class/Device/RNDIS.c **** 				QUERY_Response->InformationBufferOffset = (sizeof(RNDIS_Query_Complete_t) - sizeof(RNDIS_Messag
 279:LUFA-100807/LUFA/Drivers/USB/Class/Device/RNDIS.c **** 			}
 280:LUFA-100807/LUFA/Drivers/USB/Class/Device/RNDIS.c **** 			else
 281:LUFA-100807/LUFA/Drivers/USB/Class/Device/RNDIS.c **** 			{				
 282:LUFA-100807/LUFA/Drivers/USB/Class/Device/RNDIS.c **** 				QUERY_Response->Status                  = REMOTE_NDIS_STATUS_NOT_SUPPORTED;
 283:LUFA-100807/LUFA/Drivers/USB/Class/Device/RNDIS.c **** 
 284:LUFA-100807/LUFA/Drivers/USB/Class/Device/RNDIS.c **** 				QUERY_Response->InformationBufferLength = 0;
 285:LUFA-100807/LUFA/Drivers/USB/Class/Device/RNDIS.c **** 				QUERY_Response->InformationBufferOffset = 0;
 286:LUFA-100807/LUFA/Drivers/USB/Class/Device/RNDIS.c **** 			}
 287:LUFA-100807/LUFA/Drivers/USB/Class/Device/RNDIS.c **** 			
 288:LUFA-100807/LUFA/Drivers/USB/Class/Device/RNDIS.c **** 			break;
 289:LUFA-100807/LUFA/Drivers/USB/Class/Device/RNDIS.c **** 		case REMOTE_NDIS_SET_MSG:
 290:LUFA-100807/LUFA/Drivers/USB/Class/Device/RNDIS.c **** 			RNDISInterfaceInfo->State.ResponseReady = true;
 291:LUFA-100807/LUFA/Drivers/USB/Class/Device/RNDIS.c **** 			
 292:LUFA-100807/LUFA/Drivers/USB/Class/Device/RNDIS.c **** 			RNDIS_Set_Message_t*  SET_Message  = (RNDIS_Set_Message_t*)&RNDISInterfaceInfo->State.RNDISMessa
 293:LUFA-100807/LUFA/Drivers/USB/Class/Device/RNDIS.c **** 			RNDIS_Set_Complete_t* SET_Response = (RNDIS_Set_Complete_t*)&RNDISInterfaceInfo->State.RNDISMess
 294:LUFA-100807/LUFA/Drivers/USB/Class/Device/RNDIS.c **** 			uint32_t              SET_Oid      = SET_Message->Oid;
 295:LUFA-100807/LUFA/Drivers/USB/Class/Device/RNDIS.c **** 
 296:LUFA-100807/LUFA/Drivers/USB/Class/Device/RNDIS.c **** 			SET_Response->MessageType   = REMOTE_NDIS_SET_CMPLT;
 297:LUFA-100807/LUFA/Drivers/USB/Class/Device/RNDIS.c **** 			SET_Response->MessageLength = sizeof(RNDIS_Set_Complete_t);
 298:LUFA-100807/LUFA/Drivers/USB/Class/Device/RNDIS.c **** 			SET_Response->RequestId     = SET_Message->RequestId;
 299:LUFA-100807/LUFA/Drivers/USB/Class/Device/RNDIS.c **** 
 300:LUFA-100807/LUFA/Drivers/USB/Class/Device/RNDIS.c **** 			void* SetData = &RNDISInterfaceInfo->State.RNDISMessageBuffer[sizeof(RNDIS_Message_Header_t) +
 301:LUFA-100807/LUFA/Drivers/USB/Class/Device/RNDIS.c **** 			                                                              SET_Message->InformationBufferOffs
 302:LUFA-100807/LUFA/Drivers/USB/Class/Device/RNDIS.c **** 						
 303:LUFA-100807/LUFA/Drivers/USB/Class/Device/RNDIS.c **** 			SET_Response->Status = RNDIS_Device_ProcessNDISSet(RNDISInterfaceInfo, SET_Oid, SetData,
 304:LUFA-100807/LUFA/Drivers/USB/Class/Device/RNDIS.c **** 			                                                   SET_Message->InformationBufferLength) ?
 305:LUFA-100807/LUFA/Drivers/USB/Class/Device/RNDIS.c **** 			                                                   REMOTE_NDIS_STATUS_SUCCESS : REMOTE_NDIS_STAT
 306:LUFA-100807/LUFA/Drivers/USB/Class/Device/RNDIS.c **** 			break;
 307:LUFA-100807/LUFA/Drivers/USB/Class/Device/RNDIS.c **** 		case REMOTE_NDIS_RESET_MSG:
 308:LUFA-100807/LUFA/Drivers/USB/Class/Device/RNDIS.c **** 			RNDISInterfaceInfo->State.ResponseReady = true;
 309:LUFA-100807/LUFA/Drivers/USB/Class/Device/RNDIS.c **** 			
 310:LUFA-100807/LUFA/Drivers/USB/Class/Device/RNDIS.c **** 			RNDIS_Reset_Complete_t* RESET_Response = (RNDIS_Reset_Complete_t*)&RNDISInterfaceInfo->State.RND
 311:LUFA-100807/LUFA/Drivers/USB/Class/Device/RNDIS.c **** 
 312:LUFA-100807/LUFA/Drivers/USB/Class/Device/RNDIS.c **** 			RESET_Response->MessageType     = REMOTE_NDIS_RESET_CMPLT;
 313:LUFA-100807/LUFA/Drivers/USB/Class/Device/RNDIS.c **** 			RESET_Response->MessageLength   = sizeof(RNDIS_Reset_Complete_t);
 314:LUFA-100807/LUFA/Drivers/USB/Class/Device/RNDIS.c **** 			RESET_Response->Status          = REMOTE_NDIS_STATUS_SUCCESS;
 315:LUFA-100807/LUFA/Drivers/USB/Class/Device/RNDIS.c **** 			RESET_Response->AddressingReset = 0;
 316:LUFA-100807/LUFA/Drivers/USB/Class/Device/RNDIS.c **** 
 317:LUFA-100807/LUFA/Drivers/USB/Class/Device/RNDIS.c **** 			break;
 318:LUFA-100807/LUFA/Drivers/USB/Class/Device/RNDIS.c **** 		case REMOTE_NDIS_KEEPALIVE_MSG:
 319:LUFA-100807/LUFA/Drivers/USB/Class/Device/RNDIS.c **** 			RNDISInterfaceInfo->State.ResponseReady = true;
 182               		.loc 1 319 4 is_stmt 1 view .LVU36
 183               		.loc 1 319 44 is_stmt 0 view .LVU37
 184 00b2 FE01      		movw r30,r28
 185 00b4 EB56      		subi r30,107
 186 00b6 FF4F      		sbci r31,-1
 187 00b8 81E0      		ldi r24,lo8(1)
 188 00ba 8083      		st Z,r24
 320:LUFA-100807/LUFA/Drivers/USB/Class/Device/RNDIS.c **** 			
 321:LUFA-100807/LUFA/Drivers/USB/Class/Device/RNDIS.c **** 			RNDIS_KeepAlive_Message_t*  KEEPALIVE_Message  =
 189               		.loc 1 321 4 is_stmt 1 view .LVU38
 190               	.LVL7:
 322:LUFA-100807/LUFA/Drivers/USB/Class/Device/RNDIS.c **** 			                (RNDIS_KeepAlive_Message_t*)&RNDISInterfaceInfo->State.RNDISMessageBuffer;
 323:LUFA-100807/LUFA/Drivers/USB/Class/Device/RNDIS.c **** 			RNDIS_KeepAlive_Complete_t* KEEPALIVE_Response =
 191               		.loc 1 323 4 view .LVU39
 324:LUFA-100807/LUFA/Drivers/USB/Class/Device/RNDIS.c **** 			                (RNDIS_KeepAlive_Complete_t*)&RNDISInterfaceInfo->State.RNDISMessageBuffer;
 325:LUFA-100807/LUFA/Drivers/USB/Class/Device/RNDIS.c **** 
 326:LUFA-100807/LUFA/Drivers/USB/Class/Device/RNDIS.c **** 			KEEPALIVE_Response->MessageType   = REMOTE_NDIS_KEEPALIVE_CMPLT;
 192               		.loc 1 326 4 view .LVU40
 193               		.loc 1 326 38 is_stmt 0 view .LVU41
 194 00bc 88E0      		ldi r24,lo8(8)
 195 00be 90E0      		ldi r25,0
 196 00c0 A0E0      		ldi r26,0
 197 00c2 B0E8      		ldi r27,lo8(-128)
 198 00c4 8D8B      		std Y+21,r24
 199 00c6 9E8B      		std Y+22,r25
 200 00c8 AF8B      		std Y+23,r26
 201 00ca B88F      		std Y+24,r27
 327:LUFA-100807/LUFA/Drivers/USB/Class/Device/RNDIS.c **** 			KEEPALIVE_Response->MessageLength = sizeof(RNDIS_KeepAlive_Complete_t);
 202               		.loc 1 327 4 is_stmt 1 view .LVU42
 203               		.loc 1 327 38 is_stmt 0 view .LVU43
 204 00cc 80E1      		ldi r24,lo8(16)
 205 00ce 90E0      		ldi r25,0
 206 00d0 A0E0      		ldi r26,0
 207 00d2 B0E0      		ldi r27,0
 208 00d4 898F      		std Y+25,r24
 209 00d6 9A8F      		std Y+26,r25
 210 00d8 AB8F      		std Y+27,r26
 211 00da BC8F      		std Y+28,r27
 212 00dc 00C0      		rjmp .L41
 213               	.LVL8:
 214               	.L9:
 224:LUFA-100807/LUFA/Drivers/USB/Class/Device/RNDIS.c **** 			
 215               		.loc 1 224 4 is_stmt 1 view .LVU44
 224:LUFA-100807/LUFA/Drivers/USB/Class/Device/RNDIS.c **** 			
 216               		.loc 1 224 44 is_stmt 0 view .LVU45
 217 00de FE01      		movw r30,r28
 218 00e0 EB56      		subi r30,107
 219 00e2 FF4F      		sbci r31,-1
 220 00e4 21E0      		ldi r18,lo8(1)
 221 00e6 2083      		st Z,r18
 226:LUFA-100807/LUFA/Drivers/USB/Class/Device/RNDIS.c **** 			               (RNDIS_Initialize_Message_t*)&RNDISInterfaceInfo->State.RNDISMessageBuffer;
 222               		.loc 1 226 4 is_stmt 1 view .LVU46
 223               	.LVL9:
 228:LUFA-100807/LUFA/Drivers/USB/Class/Device/RNDIS.c **** 			               (RNDIS_Initialize_Complete_t*)&RNDISInterfaceInfo->State.RNDISMessageBuffer;
 224               		.loc 1 228 4 view .LVU47
 231:LUFA-100807/LUFA/Drivers/USB/Class/Device/RNDIS.c **** 			INITIALIZE_Response->MessageLength         = sizeof(RNDIS_Initialize_Complete_t);
 225               		.loc 1 231 4 view .LVU48
 231:LUFA-100807/LUFA/Drivers/USB/Class/Device/RNDIS.c **** 			INITIALIZE_Response->MessageLength         = sizeof(RNDIS_Initialize_Complete_t);
 226               		.loc 1 231 47 is_stmt 0 view .LVU49
 227 00e8 82E0      		ldi r24,lo8(2)
 228 00ea 90E0      		ldi r25,0
 229 00ec A0E0      		ldi r26,0
 230 00ee B0E8      		ldi r27,lo8(-128)
 231 00f0 8D8B      		std Y+21,r24
 232 00f2 9E8B      		std Y+22,r25
 233 00f4 AF8B      		std Y+23,r26
 234 00f6 B88F      		std Y+24,r27
 232:LUFA-100807/LUFA/Drivers/USB/Class/Device/RNDIS.c **** 			INITIALIZE_Response->RequestId             = INITIALIZE_Message->RequestId;
 235               		.loc 1 232 4 is_stmt 1 view .LVU50
 232:LUFA-100807/LUFA/Drivers/USB/Class/Device/RNDIS.c **** 			INITIALIZE_Response->RequestId             = INITIALIZE_Message->RequestId;
 236               		.loc 1 232 47 is_stmt 0 view .LVU51
 237 00f8 84E3      		ldi r24,lo8(52)
 238 00fa 90E0      		ldi r25,0
 239 00fc A0E0      		ldi r26,0
 240 00fe B0E0      		ldi r27,0
 241 0100 898F      		std Y+25,r24
 242 0102 9A8F      		std Y+26,r25
 243 0104 AB8F      		std Y+27,r26
 244 0106 BC8F      		std Y+28,r27
 233:LUFA-100807/LUFA/Drivers/USB/Class/Device/RNDIS.c **** 			INITIALIZE_Response->Status                = REMOTE_NDIS_STATUS_SUCCESS;
 245               		.loc 1 233 4 is_stmt 1 view .LVU52
 234:LUFA-100807/LUFA/Drivers/USB/Class/Device/RNDIS.c **** 			
 246               		.loc 1 234 4 view .LVU53
 234:LUFA-100807/LUFA/Drivers/USB/Class/Device/RNDIS.c **** 			
 247               		.loc 1 234 47 is_stmt 0 view .LVU54
 248 0108 19A2      		std Y+33,__zero_reg__
 249 010a 1AA2      		std Y+34,__zero_reg__
 250 010c 1BA2      		std Y+35,__zero_reg__
 251 010e 1CA2      		std Y+36,__zero_reg__
 236:LUFA-100807/LUFA/Drivers/USB/Class/Device/RNDIS.c **** 			INITIALIZE_Response->MinorVersion          = REMOTE_NDIS_VERSION_MINOR;			
 252               		.loc 1 236 4 is_stmt 1 view .LVU55
 236:LUFA-100807/LUFA/Drivers/USB/Class/Device/RNDIS.c **** 			INITIALIZE_Response->MinorVersion          = REMOTE_NDIS_VERSION_MINOR;			
 253               		.loc 1 236 47 is_stmt 0 view .LVU56
 254 0110 81E0      		ldi r24,lo8(1)
 255 0112 90E0      		ldi r25,0
 256 0114 A0E0      		ldi r26,0
 257 0116 B0E0      		ldi r27,0
 258 0118 8DA3      		std Y+37,r24
 259 011a 9EA3      		std Y+38,r25
 260 011c AFA3      		std Y+39,r26
 261 011e B8A7      		std Y+40,r27
 237:LUFA-100807/LUFA/Drivers/USB/Class/Device/RNDIS.c **** 			INITIALIZE_Response->DeviceFlags           = REMOTE_NDIS_DF_CONNECTIONLESS;
 262               		.loc 1 237 4 is_stmt 1 view .LVU57
 237:LUFA-100807/LUFA/Drivers/USB/Class/Device/RNDIS.c **** 			INITIALIZE_Response->DeviceFlags           = REMOTE_NDIS_DF_CONNECTIONLESS;
 263               		.loc 1 237 47 is_stmt 0 view .LVU58
 264 0120 19A6      		std Y+41,__zero_reg__
 265 0122 1AA6      		std Y+42,__zero_reg__
 266 0124 1BA6      		std Y+43,__zero_reg__
 267 0126 1CA6      		std Y+44,__zero_reg__
 238:LUFA-100807/LUFA/Drivers/USB/Class/Device/RNDIS.c **** 			INITIALIZE_Response->Medium                = REMOTE_NDIS_MEDIUM_802_3;
 268               		.loc 1 238 4 is_stmt 1 view .LVU59
 238:LUFA-100807/LUFA/Drivers/USB/Class/Device/RNDIS.c **** 			INITIALIZE_Response->Medium                = REMOTE_NDIS_MEDIUM_802_3;
 269               		.loc 1 238 47 is_stmt 0 view .LVU60
 270 0128 8DA7      		std Y+45,r24
 271 012a 9EA7      		std Y+46,r25
 272 012c AFA7      		std Y+47,r26
 273 012e B8AB      		std Y+48,r27
 239:LUFA-100807/LUFA/Drivers/USB/Class/Device/RNDIS.c **** 			INITIALIZE_Response->MaxPacketsPerTransfer = 1;
 274               		.loc 1 239 4 is_stmt 1 view .LVU61
 239:LUFA-100807/LUFA/Drivers/USB/Class/Device/RNDIS.c **** 			INITIALIZE_Response->MaxPacketsPerTransfer = 1;
 275               		.loc 1 239 47 is_stmt 0 view .LVU62
 276 0130 19AA      		std Y+49,__zero_reg__
 277 0132 1AAA      		std Y+50,__zero_reg__
 278 0134 1BAA      		std Y+51,__zero_reg__
 279 0136 1CAA      		std Y+52,__zero_reg__
 240:LUFA-100807/LUFA/Drivers/USB/Class/Device/RNDIS.c **** 			INITIALIZE_Response->MaxTransferSize       = (sizeof(RNDIS_Packet_Message_t) + ETHERNET_FRAME_SI
 280               		.loc 1 240 4 is_stmt 1 view .LVU63
 240:LUFA-100807/LUFA/Drivers/USB/Class/Device/RNDIS.c **** 			INITIALIZE_Response->MaxTransferSize       = (sizeof(RNDIS_Packet_Message_t) + ETHERNET_FRAME_SI
 281               		.loc 1 240 47 is_stmt 0 view .LVU64
 282 0138 8DAB      		std Y+53,r24
 283 013a 9EAB      		std Y+54,r25
 284 013c AFAB      		std Y+55,r26
 285 013e B8AF      		std Y+56,r27
 241:LUFA-100807/LUFA/Drivers/USB/Class/Device/RNDIS.c **** 			INITIALIZE_Response->PacketAlignmentFactor = 0;
 286               		.loc 1 241 4 is_stmt 1 view .LVU65
 241:LUFA-100807/LUFA/Drivers/USB/Class/Device/RNDIS.c **** 			INITIALIZE_Response->PacketAlignmentFactor = 0;
 287               		.loc 1 241 47 is_stmt 0 view .LVU66
 288 0140 88E0      		ldi r24,lo8(8)
 289 0142 96E0      		ldi r25,lo8(6)
 290 0144 A0E0      		ldi r26,0
 291 0146 B0E0      		ldi r27,0
 292 0148 89AF      		std Y+57,r24
 293 014a 9AAF      		std Y+58,r25
 294 014c ABAF      		std Y+59,r26
 295 014e BCAF      		std Y+60,r27
 242:LUFA-100807/LUFA/Drivers/USB/Class/Device/RNDIS.c **** 			INITIALIZE_Response->AFListOffset          = 0;
 296               		.loc 1 242 4 is_stmt 1 view .LVU67
 242:LUFA-100807/LUFA/Drivers/USB/Class/Device/RNDIS.c **** 			INITIALIZE_Response->AFListOffset          = 0;
 297               		.loc 1 242 47 is_stmt 0 view .LVU68
 298 0150 E855      		subi r30,88
 299 0152 F109      		sbc r31,__zero_reg__
 300 0154 1082      		st Z,__zero_reg__
 301 0156 1182      		std Z+1,__zero_reg__
 302 0158 1282      		std Z+2,__zero_reg__
 303 015a 1382      		std Z+3,__zero_reg__
 243:LUFA-100807/LUFA/Drivers/USB/Class/Device/RNDIS.c **** 			INITIALIZE_Response->AFListSize            = 0;
 304               		.loc 1 243 4 is_stmt 1 view .LVU69
 243:LUFA-100807/LUFA/Drivers/USB/Class/Device/RNDIS.c **** 			INITIALIZE_Response->AFListSize            = 0;
 305               		.loc 1 243 47 is_stmt 0 view .LVU70
 306 015c 3496      		adiw r30,4
 307 015e 1082      		st Z,__zero_reg__
 308 0160 1182      		std Z+1,__zero_reg__
 309 0162 1282      		std Z+2,__zero_reg__
 310 0164 1382      		std Z+3,__zero_reg__
 244:LUFA-100807/LUFA/Drivers/USB/Class/Device/RNDIS.c **** 			
 311               		.loc 1 244 4 is_stmt 1 view .LVU71
 244:LUFA-100807/LUFA/Drivers/USB/Class/Device/RNDIS.c **** 			
 312               		.loc 1 244 47 is_stmt 0 view .LVU72
 313 0166 3496      		adiw r30,4
 314 0168 1082      		st Z,__zero_reg__
 315 016a 1182      		std Z+1,__zero_reg__
 316 016c 1282      		std Z+2,__zero_reg__
 317 016e 1382      		std Z+3,__zero_reg__
 246:LUFA-100807/LUFA/Drivers/USB/Class/Device/RNDIS.c **** 		
 318               		.loc 1 246 4 is_stmt 1 view .LVU73
 246:LUFA-100807/LUFA/Drivers/USB/Class/Device/RNDIS.c **** 		
 319               		.loc 1 246 45 is_stmt 0 view .LVU74
 320 0170 CA56      		subi r28,106
 321 0172 DF4F      		sbci r29,-1
 322               	.LVL10:
 246:LUFA-100807/LUFA/Drivers/USB/Class/Device/RNDIS.c **** 		
 323               		.loc 1 246 45 view .LVU75
 324 0174 2883      		st Y,r18
 248:LUFA-100807/LUFA/Drivers/USB/Class/Device/RNDIS.c **** 		case REMOTE_NDIS_HALT_MSG:
 325               		.loc 1 248 4 is_stmt 1 view .LVU76
 326 0176 00C0      		rjmp .L10
 327               	.LVL11:
 328               	.L7:
 250:LUFA-100807/LUFA/Drivers/USB/Class/Device/RNDIS.c **** 			MessageHeader->MessageLength = 0;
 329               		.loc 1 250 4 view .LVU77
 250:LUFA-100807/LUFA/Drivers/USB/Class/Device/RNDIS.c **** 			MessageHeader->MessageLength = 0;
 330               		.loc 1 250 44 is_stmt 0 view .LVU78
 331 0178 FE01      		movw r30,r28
 332 017a EB56      		subi r30,107
 333 017c FF4F      		sbci r31,-1
 334 017e 1082      		st Z,__zero_reg__
 251:LUFA-100807/LUFA/Drivers/USB/Class/Device/RNDIS.c **** 
 335               		.loc 1 251 4 is_stmt 1 view .LVU79
 251:LUFA-100807/LUFA/Drivers/USB/Class/Device/RNDIS.c **** 
 336               		.loc 1 251 33 is_stmt 0 view .LVU80
 337 0180 198E      		std Y+25,__zero_reg__
 338 0182 1A8E      		std Y+26,__zero_reg__
 339 0184 1B8E      		std Y+27,__zero_reg__
 340 0186 1C8E      		std Y+28,__zero_reg__
 253:LUFA-100807/LUFA/Drivers/USB/Class/Device/RNDIS.c **** 
 341               		.loc 1 253 4 is_stmt 1 view .LVU81
 253:LUFA-100807/LUFA/Drivers/USB/Class/Device/RNDIS.c **** 
 342               		.loc 1 253 45 is_stmt 0 view .LVU82
 343 0188 CA56      		subi r28,106
 344 018a DF4F      		sbci r29,-1
 345               	.LVL12:
 253:LUFA-100807/LUFA/Drivers/USB/Class/Device/RNDIS.c **** 
 346               		.loc 1 253 45 view .LVU83
 347 018c 1882      		st Y,__zero_reg__
 255:LUFA-100807/LUFA/Drivers/USB/Class/Device/RNDIS.c **** 		case REMOTE_NDIS_QUERY_MSG:
 348               		.loc 1 255 4 is_stmt 1 view .LVU84
 349 018e 00C0      		rjmp .L10
 350               	.LVL13:
 351               	.L8:
 257:LUFA-100807/LUFA/Drivers/USB/Class/Device/RNDIS.c **** 						
 352               		.loc 1 257 4 view .LVU85
 257:LUFA-100807/LUFA/Drivers/USB/Class/Device/RNDIS.c **** 						
 353               		.loc 1 257 44 is_stmt 0 view .LVU86
 354 0190 81E0      		ldi r24,lo8(1)
 355 0192 FE01      		movw r30,r28
 356 0194 EB56      		subi r30,107
 357 0196 FF4F      		sbci r31,-1
 358 0198 8083      		st Z,r24
 259:LUFA-100807/LUFA/Drivers/USB/Class/Device/RNDIS.c **** 			RNDIS_Query_Complete_t* QUERY_Response = (RNDIS_Query_Complete_t*)&RNDISInterfaceInfo->State.RND
 359               		.loc 1 259 4 is_stmt 1 view .LVU87
 360               	.LVL14:
 260:LUFA-100807/LUFA/Drivers/USB/Class/Device/RNDIS.c **** 			uint32_t                Query_Oid      = QUERY_Message->Oid;
 361               		.loc 1 260 4 view .LVU88
 261:LUFA-100807/LUFA/Drivers/USB/Class/Device/RNDIS.c **** 						
 362               		.loc 1 261 4 view .LVU89
 261:LUFA-100807/LUFA/Drivers/USB/Class/Device/RNDIS.c **** 						
 363               		.loc 1 261 28 is_stmt 0 view .LVU90
 364 019a 49A1      		ldd r20,Y+33
 365 019c 5AA1      		ldd r21,Y+34
 366 019e 6BA1      		ldd r22,Y+35
 367 01a0 7CA1      		ldd r23,Y+36
 368               	.LVL15:
 263:LUFA-100807/LUFA/Drivers/USB/Class/Device/RNDIS.c **** 			                                                                    QUERY_Message->InformationBu
 369               		.loc 1 263 4 is_stmt 1 view .LVU91
 265:LUFA-100807/LUFA/Drivers/USB/Class/Device/RNDIS.c **** 			uint16_t  ResponseSize;
 370               		.loc 1 265 4 view .LVU92
 265:LUFA-100807/LUFA/Drivers/USB/Class/Device/RNDIS.c **** 			uint16_t  ResponseSize;
 371               		.loc 1 265 14 is_stmt 0 view .LVU93
 372 01a2 CE01      		movw r24,r28
 373 01a4 8D96      		adiw r24,45
 374               	.LVL16:
 266:LUFA-100807/LUFA/Drivers/USB/Class/Device/RNDIS.c **** 
 375               		.loc 1 266 4 is_stmt 1 view .LVU94
 268:LUFA-100807/LUFA/Drivers/USB/Class/Device/RNDIS.c **** 			QUERY_Response->MessageLength = sizeof(RNDIS_Query_Complete_t);
 376               		.loc 1 268 4 view .LVU95
 268:LUFA-100807/LUFA/Drivers/USB/Class/Device/RNDIS.c **** 			QUERY_Response->MessageLength = sizeof(RNDIS_Query_Complete_t);
 377               		.loc 1 268 34 is_stmt 0 view .LVU96
 378 01a6 04E0      		ldi r16,lo8(4)
 379 01a8 10E0      		ldi r17,0
 380 01aa 20E0      		ldi r18,0
 381 01ac 30E8      		ldi r19,lo8(-128)
 382 01ae 0D8B      		std Y+21,r16
 383 01b0 1E8B      		std Y+22,r17
 384 01b2 2F8B      		std Y+23,r18
 385 01b4 388F      		std Y+24,r19
 269:LUFA-100807/LUFA/Drivers/USB/Class/Device/RNDIS.c **** 						
 386               		.loc 1 269 4 is_stmt 1 view .LVU97
 269:LUFA-100807/LUFA/Drivers/USB/Class/Device/RNDIS.c **** 						
 387               		.loc 1 269 34 is_stmt 0 view .LVU98
 388 01b6 08E1      		ldi r16,lo8(24)
 389 01b8 10E0      		ldi r17,0
 390 01ba 20E0      		ldi r18,0
 391 01bc 30E0      		ldi r19,0
 392 01be 098F      		std Y+25,r16
 393 01c0 1A8F      		std Y+26,r17
 394 01c2 2B8F      		std Y+27,r18
 395 01c4 3C8F      		std Y+28,r19
 271:LUFA-100807/LUFA/Drivers/USB/Class/Device/RNDIS.c **** 			                                  ResponseData, &ResponseSize))
 396               		.loc 1 271 4 is_stmt 1 view .LVU99
 397               	.LVL17:
 398               	.LBB62:
 399               	.LBI62:
 328:LUFA-100807/LUFA/Drivers/USB/Class/Device/RNDIS.c **** 			KEEPALIVE_Response->RequestId     = KEEPALIVE_Message->RequestId;
 329:LUFA-100807/LUFA/Drivers/USB/Class/Device/RNDIS.c **** 			KEEPALIVE_Response->Status        = REMOTE_NDIS_STATUS_SUCCESS;
 330:LUFA-100807/LUFA/Drivers/USB/Class/Device/RNDIS.c **** 			
 331:LUFA-100807/LUFA/Drivers/USB/Class/Device/RNDIS.c **** 			break;
 332:LUFA-100807/LUFA/Drivers/USB/Class/Device/RNDIS.c **** 	}
 333:LUFA-100807/LUFA/Drivers/USB/Class/Device/RNDIS.c **** }
 334:LUFA-100807/LUFA/Drivers/USB/Class/Device/RNDIS.c **** 
 335:LUFA-100807/LUFA/Drivers/USB/Class/Device/RNDIS.c **** static bool RNDIS_Device_ProcessNDISQuery(USB_ClassInfo_RNDIS_Device_t* const RNDISInterfaceInfo,
 400               		.loc 1 335 13 view .LVU100
 401               	.LBB63:
 336:LUFA-100807/LUFA/Drivers/USB/Class/Device/RNDIS.c ****                                           const uint32_t OId,
 337:LUFA-100807/LUFA/Drivers/USB/Class/Device/RNDIS.c ****                                           void* const QueryData,
 338:LUFA-100807/LUFA/Drivers/USB/Class/Device/RNDIS.c ****                                           const uint16_t QuerySize,
 339:LUFA-100807/LUFA/Drivers/USB/Class/Device/RNDIS.c ****                                           void* ResponseData,
 340:LUFA-100807/LUFA/Drivers/USB/Class/Device/RNDIS.c ****                                           uint16_t* const ResponseSize)
 341:LUFA-100807/LUFA/Drivers/USB/Class/Device/RNDIS.c **** {
 342:LUFA-100807/LUFA/Drivers/USB/Class/Device/RNDIS.c **** 	(void)QueryData;
 402               		.loc 1 342 2 view .LVU101
 343:LUFA-100807/LUFA/Drivers/USB/Class/Device/RNDIS.c **** 	(void)QuerySize;
 403               		.loc 1 343 2 view .LVU102
 344:LUFA-100807/LUFA/Drivers/USB/Class/Device/RNDIS.c **** 
 345:LUFA-100807/LUFA/Drivers/USB/Class/Device/RNDIS.c **** 	switch (OId)
 404               		.loc 1 345 2 view .LVU103
 405 01c6 4531      		cpi r20,21
 406 01c8 21E0      		ldi r18,1
 407 01ca 5207      		cpc r21,r18
 408 01cc 6207      		cpc r22,r18
 409 01ce 7105      		cpc r23,__zero_reg__
 410 01d0 00F4      		brsh .L13
 411 01d2 4130      		cpi r20,1
 412 01d4 E1E0      		ldi r30,1
 413 01d6 5E07      		cpc r21,r30
 414 01d8 6E07      		cpc r22,r30
 415 01da 7105      		cpc r23,__zero_reg__
 416 01dc 00F4      		brsh .+2
 417 01de 00C0      		rjmp .L14
 418 01e0 4150      		subi r20,1
 419 01e2 5140      		sbci r21,1
 420 01e4 6140      		sbci r22,1
 421 01e6 7109      		sbc r23,__zero_reg__
 422               	.LVL18:
 423               		.loc 1 345 2 is_stmt 0 view .LVU104
 424 01e8 4431      		cpi r20,20
 425 01ea 5105      		cpc r21,__zero_reg__
 426 01ec 6105      		cpc r22,__zero_reg__
 427 01ee 7105      		cpc r23,__zero_reg__
 428 01f0 00F4      		brsh .L14
 429 01f2 FA01      		movw r30,r20
 430 01f4 E050      		subi r30,lo8(-(gs(.L16)))
 431 01f6 F040      		sbci r31,hi8(-(gs(.L16)))
 432 01f8 0C94 0000 		jmp __tablejump2__
 433               		.section	.jumptables.gcc.RNDIS_Device_ProcessControlRequest,"a",@progbits
 434               		.p2align	1
 435               	.L16:
 436 0000 0000      		.word gs(.L23)
 437 0002 0000      		.word gs(.L15)
 438 0004 0000      		.word gs(.L15)
 439 0006 0000      		.word gs(.L15)
 440 0008 0000      		.word gs(.L14)
 441 000a 0000      		.word gs(.L21)
 442 000c 0000      		.word gs(.L22)
 443 000e 0000      		.word gs(.L14)
 444 0010 0000      		.word gs(.L14)
 445 0012 0000      		.word gs(.L21)
 446 0014 0000      		.word gs(.L21)
 447 0016 0000      		.word gs(.L20)
 448 0018 0000      		.word gs(.L19)
 449 001a 0000      		.word gs(.L18)
 450 001c 0000      		.word gs(.L14)
 451 001e 0000      		.word gs(.L14)
 452 0020 0000      		.word gs(.L17)
 453 0022 0000      		.word gs(.L14)
 454 0024 0000      		.word gs(.L14)
 455 0026 0000      		.word gs(.L15)
 456               		.section	.text.RNDIS_Device_ProcessControlRequest
 457               	.LVL19:
 458               	.L13:
 459               		.loc 1 345 2 view .LVU105
 460 01fc 4330      		cpi r20,3
 461 01fe F1E0      		ldi r31,1
 462 0200 5F07      		cpc r21,r31
 463 0202 6F07      		cpc r22,r31
 464 0204 7F07      		cpc r23,r31
 465 0206 00F4      		brsh .L24
 466 0208 4130      		cpi r20,1
 467 020a 21E0      		ldi r18,1
 468 020c 5207      		cpc r21,r18
 469 020e 6207      		cpc r22,r18
 470 0210 7207      		cpc r23,r18
 471 0212 00F0      		brlo .+2
 472 0214 00C0      		rjmp .L25
 473 0216 4230      		cpi r20,2
 474 0218 82E0      		ldi r24,2
 475 021a 5807      		cpc r21,r24
 476 021c 81E0      		ldi r24,1
 477 021e 6807      		cpc r22,r24
 478 0220 7105      		cpc r23,__zero_reg__
 479               	.LVL20:
 480               		.loc 1 345 2 view .LVU106
 481 0222 01F0      		breq .L15
 482 0224 4150      		subi r20,1
 483 0226 5140      		sbci r21,1
 484 0228 6240      		sbci r22,2
 485 022a 7109      		sbc r23,__zero_reg__
 486               	.LVL21:
 487               		.loc 1 345 2 view .LVU107
 488 022c 4530      		cpi r20,5
 489 022e 5105      		cpc r21,__zero_reg__
 490 0230 6105      		cpc r22,__zero_reg__
 491 0232 7105      		cpc r23,__zero_reg__
 492 0234 00F4      		brsh .L14
 493               	.L15:
 346:LUFA-100807/LUFA/Drivers/USB/Class/Device/RNDIS.c **** 	{
 347:LUFA-100807/LUFA/Drivers/USB/Class/Device/RNDIS.c **** 		case OID_GEN_SUPPORTED_LIST:
 348:LUFA-100807/LUFA/Drivers/USB/Class/Device/RNDIS.c **** 			*ResponseSize = sizeof(AdapterSupportedOIDList);
 349:LUFA-100807/LUFA/Drivers/USB/Class/Device/RNDIS.c **** 			
 350:LUFA-100807/LUFA/Drivers/USB/Class/Device/RNDIS.c **** 			memcpy_P(ResponseData, AdapterSupportedOIDList, sizeof(AdapterSupportedOIDList));
 351:LUFA-100807/LUFA/Drivers/USB/Class/Device/RNDIS.c **** 			
 352:LUFA-100807/LUFA/Drivers/USB/Class/Device/RNDIS.c **** 			return true;
 353:LUFA-100807/LUFA/Drivers/USB/Class/Device/RNDIS.c **** 		case OID_GEN_PHYSICAL_MEDIUM:
 354:LUFA-100807/LUFA/Drivers/USB/Class/Device/RNDIS.c **** 			*ResponseSize = sizeof(uint32_t);
 494               		.loc 1 354 4 is_stmt 1 view .LVU108
 495               	.LVL22:
 355:LUFA-100807/LUFA/Drivers/USB/Class/Device/RNDIS.c **** 			
 356:LUFA-100807/LUFA/Drivers/USB/Class/Device/RNDIS.c **** 			/* Indicate that the device is a true ethernet link */
 357:LUFA-100807/LUFA/Drivers/USB/Class/Device/RNDIS.c **** 			*((uint32_t*)ResponseData) = 0;
 496               		.loc 1 357 4 view .LVU109
 497               		.loc 1 357 31 is_stmt 0 view .LVU110
 498 0236 1DA6      		std Y+45,__zero_reg__
 499 0238 1EA6      		std Y+46,__zero_reg__
 500 023a 1FA6      		std Y+47,__zero_reg__
 501 023c 18AA      		std Y+48,__zero_reg__
 358:LUFA-100807/LUFA/Drivers/USB/Class/Device/RNDIS.c **** 			
 359:LUFA-100807/LUFA/Drivers/USB/Class/Device/RNDIS.c **** 			return true;
 502               		.loc 1 359 4 is_stmt 1 view .LVU111
 503               	.LVL23:
 504               	.L39:
 360:LUFA-100807/LUFA/Drivers/USB/Class/Device/RNDIS.c **** 		case OID_GEN_HARDWARE_STATUS:
 361:LUFA-100807/LUFA/Drivers/USB/Class/Device/RNDIS.c **** 			*ResponseSize = sizeof(uint32_t);
 362:LUFA-100807/LUFA/Drivers/USB/Class/Device/RNDIS.c **** 			
 363:LUFA-100807/LUFA/Drivers/USB/Class/Device/RNDIS.c **** 			*((uint32_t*)ResponseData) = NDIS_HardwareStatus_Ready;
 364:LUFA-100807/LUFA/Drivers/USB/Class/Device/RNDIS.c **** 			
 365:LUFA-100807/LUFA/Drivers/USB/Class/Device/RNDIS.c **** 			return true;
 366:LUFA-100807/LUFA/Drivers/USB/Class/Device/RNDIS.c **** 		case OID_GEN_MEDIA_SUPPORTED:
 367:LUFA-100807/LUFA/Drivers/USB/Class/Device/RNDIS.c **** 		case OID_GEN_MEDIA_IN_USE:
 368:LUFA-100807/LUFA/Drivers/USB/Class/Device/RNDIS.c **** 			*ResponseSize = sizeof(uint32_t);
 369:LUFA-100807/LUFA/Drivers/USB/Class/Device/RNDIS.c **** 			
 370:LUFA-100807/LUFA/Drivers/USB/Class/Device/RNDIS.c **** 			*((uint32_t*)ResponseData) = REMOTE_NDIS_MEDIUM_802_3;
 371:LUFA-100807/LUFA/Drivers/USB/Class/Device/RNDIS.c **** 			
 372:LUFA-100807/LUFA/Drivers/USB/Class/Device/RNDIS.c **** 			return true;
 373:LUFA-100807/LUFA/Drivers/USB/Class/Device/RNDIS.c **** 		case OID_GEN_VENDOR_ID:
 374:LUFA-100807/LUFA/Drivers/USB/Class/Device/RNDIS.c **** 			*ResponseSize = sizeof(uint32_t);
 375:LUFA-100807/LUFA/Drivers/USB/Class/Device/RNDIS.c **** 			
 376:LUFA-100807/LUFA/Drivers/USB/Class/Device/RNDIS.c **** 			/* Vendor ID 0x0xFFFFFF is reserved for vendors who have not purchased a NDIS VID */
 377:LUFA-100807/LUFA/Drivers/USB/Class/Device/RNDIS.c **** 			*((uint32_t*)ResponseData) = 0x00FFFFFF;
 378:LUFA-100807/LUFA/Drivers/USB/Class/Device/RNDIS.c **** 			
 379:LUFA-100807/LUFA/Drivers/USB/Class/Device/RNDIS.c **** 			return true;
 380:LUFA-100807/LUFA/Drivers/USB/Class/Device/RNDIS.c **** 		case OID_GEN_MAXIMUM_FRAME_SIZE:
 381:LUFA-100807/LUFA/Drivers/USB/Class/Device/RNDIS.c **** 		case OID_GEN_TRANSMIT_BLOCK_SIZE:
 382:LUFA-100807/LUFA/Drivers/USB/Class/Device/RNDIS.c **** 		case OID_GEN_RECEIVE_BLOCK_SIZE:
 383:LUFA-100807/LUFA/Drivers/USB/Class/Device/RNDIS.c **** 			*ResponseSize = sizeof(uint32_t);
 384:LUFA-100807/LUFA/Drivers/USB/Class/Device/RNDIS.c **** 			
 385:LUFA-100807/LUFA/Drivers/USB/Class/Device/RNDIS.c **** 			*((uint32_t*)ResponseData) = ETHERNET_FRAME_SIZE_MAX;
 386:LUFA-100807/LUFA/Drivers/USB/Class/Device/RNDIS.c **** 			
 387:LUFA-100807/LUFA/Drivers/USB/Class/Device/RNDIS.c **** 			return true;
 388:LUFA-100807/LUFA/Drivers/USB/Class/Device/RNDIS.c **** 		case OID_GEN_VENDOR_DESCRIPTION:
 389:LUFA-100807/LUFA/Drivers/USB/Class/Device/RNDIS.c **** 			*ResponseSize = (strlen(RNDISInterfaceInfo->Config.AdapterVendorDescription) + 1);
 390:LUFA-100807/LUFA/Drivers/USB/Class/Device/RNDIS.c **** 			
 391:LUFA-100807/LUFA/Drivers/USB/Class/Device/RNDIS.c **** 			memcpy(ResponseData, RNDISInterfaceInfo->Config.AdapterVendorDescription, *ResponseSize);
 392:LUFA-100807/LUFA/Drivers/USB/Class/Device/RNDIS.c **** 			
 393:LUFA-100807/LUFA/Drivers/USB/Class/Device/RNDIS.c **** 			return true;
 394:LUFA-100807/LUFA/Drivers/USB/Class/Device/RNDIS.c **** 		case OID_GEN_MEDIA_CONNECT_STATUS:
 395:LUFA-100807/LUFA/Drivers/USB/Class/Device/RNDIS.c **** 			*ResponseSize = sizeof(uint32_t);
 396:LUFA-100807/LUFA/Drivers/USB/Class/Device/RNDIS.c **** 			
 397:LUFA-100807/LUFA/Drivers/USB/Class/Device/RNDIS.c **** 			*((uint32_t*)ResponseData) = REMOTE_NDIS_MEDIA_STATE_CONNECTED;
 398:LUFA-100807/LUFA/Drivers/USB/Class/Device/RNDIS.c **** 			
 399:LUFA-100807/LUFA/Drivers/USB/Class/Device/RNDIS.c **** 			return true;
 400:LUFA-100807/LUFA/Drivers/USB/Class/Device/RNDIS.c **** 		case OID_GEN_LINK_SPEED:
 401:LUFA-100807/LUFA/Drivers/USB/Class/Device/RNDIS.c **** 			*ResponseSize = sizeof(uint32_t);
 402:LUFA-100807/LUFA/Drivers/USB/Class/Device/RNDIS.c **** 			
 403:LUFA-100807/LUFA/Drivers/USB/Class/Device/RNDIS.c **** 			/* Indicate 10Mb/s link speed */
 404:LUFA-100807/LUFA/Drivers/USB/Class/Device/RNDIS.c **** 			*((uint32_t*)ResponseData) = 100000;
 405:LUFA-100807/LUFA/Drivers/USB/Class/Device/RNDIS.c **** 
 406:LUFA-100807/LUFA/Drivers/USB/Class/Device/RNDIS.c **** 			return true;
 407:LUFA-100807/LUFA/Drivers/USB/Class/Device/RNDIS.c **** 		case OID_802_3_PERMANENT_ADDRESS:
 408:LUFA-100807/LUFA/Drivers/USB/Class/Device/RNDIS.c **** 		case OID_802_3_CURRENT_ADDRESS:
 409:LUFA-100807/LUFA/Drivers/USB/Class/Device/RNDIS.c **** 			*ResponseSize = sizeof(MAC_Address_t);
 410:LUFA-100807/LUFA/Drivers/USB/Class/Device/RNDIS.c **** 			
 411:LUFA-100807/LUFA/Drivers/USB/Class/Device/RNDIS.c **** 			memcpy(ResponseData, &RNDISInterfaceInfo->Config.AdapterMACAddress, sizeof(MAC_Address_t));
 412:LUFA-100807/LUFA/Drivers/USB/Class/Device/RNDIS.c **** 
 413:LUFA-100807/LUFA/Drivers/USB/Class/Device/RNDIS.c **** 			return true;
 414:LUFA-100807/LUFA/Drivers/USB/Class/Device/RNDIS.c **** 		case OID_802_3_MAXIMUM_LIST_SIZE:
 415:LUFA-100807/LUFA/Drivers/USB/Class/Device/RNDIS.c **** 			*ResponseSize = sizeof(uint32_t);
 416:LUFA-100807/LUFA/Drivers/USB/Class/Device/RNDIS.c **** 			
 417:LUFA-100807/LUFA/Drivers/USB/Class/Device/RNDIS.c **** 			/* Indicate only one multicast address supported */
 418:LUFA-100807/LUFA/Drivers/USB/Class/Device/RNDIS.c **** 			*((uint32_t*)ResponseData) = 1;
 419:LUFA-100807/LUFA/Drivers/USB/Class/Device/RNDIS.c **** 		
 420:LUFA-100807/LUFA/Drivers/USB/Class/Device/RNDIS.c **** 			return true;
 421:LUFA-100807/LUFA/Drivers/USB/Class/Device/RNDIS.c **** 		case OID_GEN_CURRENT_PACKET_FILTER:
 422:LUFA-100807/LUFA/Drivers/USB/Class/Device/RNDIS.c **** 			*ResponseSize = sizeof(uint32_t);
 423:LUFA-100807/LUFA/Drivers/USB/Class/Device/RNDIS.c **** 			
 424:LUFA-100807/LUFA/Drivers/USB/Class/Device/RNDIS.c **** 			*((uint32_t*)ResponseData) = RNDISInterfaceInfo->State.CurrPacketFilter;
 425:LUFA-100807/LUFA/Drivers/USB/Class/Device/RNDIS.c **** 		
 426:LUFA-100807/LUFA/Drivers/USB/Class/Device/RNDIS.c **** 			return true;			
 427:LUFA-100807/LUFA/Drivers/USB/Class/Device/RNDIS.c **** 		case OID_GEN_XMIT_OK:
 428:LUFA-100807/LUFA/Drivers/USB/Class/Device/RNDIS.c **** 		case OID_GEN_RCV_OK:
 429:LUFA-100807/LUFA/Drivers/USB/Class/Device/RNDIS.c **** 		case OID_GEN_XMIT_ERROR:
 430:LUFA-100807/LUFA/Drivers/USB/Class/Device/RNDIS.c **** 		case OID_GEN_RCV_ERROR:
 431:LUFA-100807/LUFA/Drivers/USB/Class/Device/RNDIS.c **** 		case OID_GEN_RCV_NO_BUFFER:
 432:LUFA-100807/LUFA/Drivers/USB/Class/Device/RNDIS.c **** 		case OID_802_3_RCV_ERROR_ALIGNMENT:
 433:LUFA-100807/LUFA/Drivers/USB/Class/Device/RNDIS.c **** 		case OID_802_3_XMIT_ONE_COLLISION:
 434:LUFA-100807/LUFA/Drivers/USB/Class/Device/RNDIS.c **** 		case OID_802_3_XMIT_MORE_COLLISIONS:
 435:LUFA-100807/LUFA/Drivers/USB/Class/Device/RNDIS.c **** 			*ResponseSize = sizeof(uint32_t);
 436:LUFA-100807/LUFA/Drivers/USB/Class/Device/RNDIS.c **** 			
 437:LUFA-100807/LUFA/Drivers/USB/Class/Device/RNDIS.c **** 			/* Unused statistic OIDs - always return 0 for each */
 438:LUFA-100807/LUFA/Drivers/USB/Class/Device/RNDIS.c **** 			*((uint32_t*)ResponseData) = 0;
 439:LUFA-100807/LUFA/Drivers/USB/Class/Device/RNDIS.c **** 		
 440:LUFA-100807/LUFA/Drivers/USB/Class/Device/RNDIS.c **** 			return true;
 441:LUFA-100807/LUFA/Drivers/USB/Class/Device/RNDIS.c **** 		case OID_GEN_MAXIMUM_TOTAL_SIZE:
 442:LUFA-100807/LUFA/Drivers/USB/Class/Device/RNDIS.c **** 			*ResponseSize = sizeof(uint32_t);
 443:LUFA-100807/LUFA/Drivers/USB/Class/Device/RNDIS.c **** 			
 444:LUFA-100807/LUFA/Drivers/USB/Class/Device/RNDIS.c **** 			/* Indicate maximum overall buffer (Ethernet frame and RNDIS header) the adapter can handle */
 445:LUFA-100807/LUFA/Drivers/USB/Class/Device/RNDIS.c **** 			*((uint32_t*)ResponseData) = (RNDIS_MESSAGE_BUFFER_SIZE + ETHERNET_FRAME_SIZE_MAX);
 446:LUFA-100807/LUFA/Drivers/USB/Class/Device/RNDIS.c **** 		
 447:LUFA-100807/LUFA/Drivers/USB/Class/Device/RNDIS.c **** 			return true;
 505               		.loc 1 447 4 view .LVU112
 442:LUFA-100807/LUFA/Drivers/USB/Class/Device/RNDIS.c **** 			
 506               		.loc 1 442 18 is_stmt 0 view .LVU113
 507 023e 04E0      		ldi r16,lo8(4)
 508 0240 10E0      		ldi r17,0
 509 0242 00C0      		rjmp .L27
 510               	.LVL24:
 511               	.L24:
 345:LUFA-100807/LUFA/Drivers/USB/Class/Device/RNDIS.c **** 	{
 512               		.loc 1 345 2 view .LVU114
 513 0244 4430      		cpi r20,4
 514 0246 E1E0      		ldi r30,1
 515 0248 5E07      		cpc r21,r30
 516 024a 6E07      		cpc r22,r30
 517 024c 7E07      		cpc r23,r30
 518 024e 01F4      		brne .+2
 519 0250 00C0      		rjmp .L26
 520 0252 4150      		subi r20,1
 521 0254 5140      		sbci r21,1
 522 0256 6240      		sbci r22,2
 523 0258 7140      		sbci r23,1
 524               	.LVL25:
 345:LUFA-100807/LUFA/Drivers/USB/Class/Device/RNDIS.c **** 	{
 525               		.loc 1 345 2 view .LVU115
 526 025a 4330      		cpi r20,3
 527 025c 5105      		cpc r21,__zero_reg__
 528 025e 6105      		cpc r22,__zero_reg__
 529 0260 7105      		cpc r23,__zero_reg__
 530 0262 00F0      		brlo .L15
 531               	.LVL26:
 532               	.L14:
 345:LUFA-100807/LUFA/Drivers/USB/Class/Device/RNDIS.c **** 	{
 533               		.loc 1 345 2 view .LVU116
 534               	.LBE63:
 535               	.LBE62:
 282:LUFA-100807/LUFA/Drivers/USB/Class/Device/RNDIS.c **** 
 536               		.loc 1 282 5 is_stmt 1 view .LVU117
 282:LUFA-100807/LUFA/Drivers/USB/Class/Device/RNDIS.c **** 
 537               		.loc 1 282 45 is_stmt 0 view .LVU118
 538 0264 8BEB      		ldi r24,lo8(-69)
 539 0266 90E0      		ldi r25,0
 540 0268 A0E0      		ldi r26,0
 541 026a B0EC      		ldi r27,lo8(-64)
 542 026c 89A3      		std Y+33,r24
 543 026e 9AA3      		std Y+34,r25
 544 0270 ABA3      		std Y+35,r26
 545 0272 BCA3      		std Y+36,r27
 546               	.LVL27:
 284:LUFA-100807/LUFA/Drivers/USB/Class/Device/RNDIS.c **** 				QUERY_Response->InformationBufferOffset = 0;
 547               		.loc 1 284 5 is_stmt 1 view .LVU119
 284:LUFA-100807/LUFA/Drivers/USB/Class/Device/RNDIS.c **** 				QUERY_Response->InformationBufferOffset = 0;
 548               		.loc 1 284 45 is_stmt 0 view .LVU120
 549 0274 1DA2      		std Y+37,__zero_reg__
 550 0276 1EA2      		std Y+38,__zero_reg__
 551 0278 1FA2      		std Y+39,__zero_reg__
 552 027a 18A6      		std Y+40,__zero_reg__
 285:LUFA-100807/LUFA/Drivers/USB/Class/Device/RNDIS.c **** 			}
 553               		.loc 1 285 5 is_stmt 1 view .LVU121
 285:LUFA-100807/LUFA/Drivers/USB/Class/Device/RNDIS.c **** 			}
 554               		.loc 1 285 45 is_stmt 0 view .LVU122
 555 027c 19A6      		std Y+41,__zero_reg__
 556 027e 1AA6      		std Y+42,__zero_reg__
 557 0280 1BA6      		std Y+43,__zero_reg__
 558 0282 1CA6      		std Y+44,__zero_reg__
 559               	.LVL28:
 285:LUFA-100807/LUFA/Drivers/USB/Class/Device/RNDIS.c **** 			}
 560               		.loc 1 285 45 view .LVU123
 561 0284 00C0      		rjmp .L10
 562               	.LVL29:
 563               	.L23:
 564               	.LBB66:
 565               	.LBB64:
 348:LUFA-100807/LUFA/Drivers/USB/Class/Device/RNDIS.c **** 			
 566               		.loc 1 348 4 is_stmt 1 view .LVU124
 350:LUFA-100807/LUFA/Drivers/USB/Class/Device/RNDIS.c **** 			
 567               		.loc 1 350 4 view .LVU125
 568 0286 4CE6      		ldi r20,lo8(108)
 569 0288 50E0      		ldi r21,0
 570 028a 60E0      		ldi r22,lo8(AdapterSupportedOIDList)
 571 028c 70E0      		ldi r23,hi8(AdapterSupportedOIDList)
 572 028e 0E94 0000 		call memcpy_P
 573               	.LVL30:
 352:LUFA-100807/LUFA/Drivers/USB/Class/Device/RNDIS.c **** 		case OID_GEN_PHYSICAL_MEDIUM:
 574               		.loc 1 352 4 view .LVU126
 348:LUFA-100807/LUFA/Drivers/USB/Class/Device/RNDIS.c **** 			
 575               		.loc 1 348 18 is_stmt 0 view .LVU127
 576 0292 0CE6      		ldi r16,lo8(108)
 577 0294 10E0      		ldi r17,0
 578               	.LVL31:
 579               	.L27:
 348:LUFA-100807/LUFA/Drivers/USB/Class/Device/RNDIS.c **** 			
 580               		.loc 1 348 18 view .LVU128
 581               	.LBE64:
 582               	.LBE66:
 274:LUFA-100807/LUFA/Drivers/USB/Class/Device/RNDIS.c **** 				QUERY_Response->MessageLength          += ResponseSize;
 583               		.loc 1 274 5 is_stmt 1 view .LVU129
 274:LUFA-100807/LUFA/Drivers/USB/Class/Device/RNDIS.c **** 				QUERY_Response->MessageLength          += ResponseSize;
 584               		.loc 1 274 45 is_stmt 0 view .LVU130
 585 0296 19A2      		std Y+33,__zero_reg__
 586 0298 1AA2      		std Y+34,__zero_reg__
 587 029a 1BA2      		std Y+35,__zero_reg__
 588 029c 1CA2      		std Y+36,__zero_reg__
 275:LUFA-100807/LUFA/Drivers/USB/Class/Device/RNDIS.c **** 							
 589               		.loc 1 275 5 is_stmt 1 view .LVU131
 275:LUFA-100807/LUFA/Drivers/USB/Class/Device/RNDIS.c **** 							
 590               		.loc 1 275 44 is_stmt 0 view .LVU132
 591 029e 30E0      		ldi r19,0
 592 02a0 20E0      		ldi r18,0
 593 02a2 898D      		ldd r24,Y+25
 594 02a4 9A8D      		ldd r25,Y+26
 595 02a6 AB8D      		ldd r26,Y+27
 596 02a8 BC8D      		ldd r27,Y+28
 597 02aa 800F      		add r24,r16
 598 02ac 911F      		adc r25,r17
 599 02ae A21F      		adc r26,r18
 600 02b0 B31F      		adc r27,r19
 601 02b2 898F      		std Y+25,r24
 602 02b4 9A8F      		std Y+26,r25
 603 02b6 AB8F      		std Y+27,r26
 604 02b8 BC8F      		std Y+28,r27
 277:LUFA-100807/LUFA/Drivers/USB/Class/Device/RNDIS.c **** 				QUERY_Response->InformationBufferOffset = (sizeof(RNDIS_Query_Complete_t) - sizeof(RNDIS_Messag
 605               		.loc 1 277 5 is_stmt 1 view .LVU133
 277:LUFA-100807/LUFA/Drivers/USB/Class/Device/RNDIS.c **** 				QUERY_Response->InformationBufferOffset = (sizeof(RNDIS_Query_Complete_t) - sizeof(RNDIS_Messag
 606               		.loc 1 277 45 is_stmt 0 view .LVU134
 607 02ba 0DA3      		std Y+37,r16
 608 02bc 1EA3      		std Y+38,r17
 609 02be 2FA3      		std Y+39,r18
 610 02c0 38A7      		std Y+40,r19
 278:LUFA-100807/LUFA/Drivers/USB/Class/Device/RNDIS.c **** 			}
 611               		.loc 1 278 5 is_stmt 1 view .LVU135
 278:LUFA-100807/LUFA/Drivers/USB/Class/Device/RNDIS.c **** 			}
 612               		.loc 1 278 45 is_stmt 0 view .LVU136
 613 02c2 80E1      		ldi r24,lo8(16)
 614 02c4 90E0      		ldi r25,0
 615 02c6 A0E0      		ldi r26,0
 616 02c8 B0E0      		ldi r27,0
 617 02ca 89A7      		std Y+41,r24
 618 02cc 9AA7      		std Y+42,r25
 619 02ce ABA7      		std Y+43,r26
 620 02d0 BCA7      		std Y+44,r27
 621 02d2 00C0      		rjmp .L10
 622               	.LVL32:
 623               	.L20:
 624               	.LBB67:
 625               	.LBB65:
 374:LUFA-100807/LUFA/Drivers/USB/Class/Device/RNDIS.c **** 			
 626               		.loc 1 374 4 is_stmt 1 view .LVU137
 377:LUFA-100807/LUFA/Drivers/USB/Class/Device/RNDIS.c **** 			
 627               		.loc 1 377 4 view .LVU138
 377:LUFA-100807/LUFA/Drivers/USB/Class/Device/RNDIS.c **** 			
 628               		.loc 1 377 31 is_stmt 0 view .LVU139
 629 02d4 8FEF      		ldi r24,lo8(-1)
 630 02d6 9FEF      		ldi r25,lo8(-1)
 631 02d8 AFEF      		ldi r26,lo8(-1)
 632 02da B0E0      		ldi r27,0
 633               	.LVL33:
 634               	.L38:
 445:LUFA-100807/LUFA/Drivers/USB/Class/Device/RNDIS.c **** 		
 635               		.loc 1 445 31 view .LVU140
 636 02dc 8DA7      		std Y+45,r24
 637 02de 9EA7      		std Y+46,r25
 638 02e0 AFA7      		std Y+47,r26
 639 02e2 B8AB      		std Y+48,r27
 640 02e4 00C0      		rjmp .L39
 641               	.LVL34:
 642               	.L21:
 383:LUFA-100807/LUFA/Drivers/USB/Class/Device/RNDIS.c **** 			
 643               		.loc 1 383 4 is_stmt 1 view .LVU141
 385:LUFA-100807/LUFA/Drivers/USB/Class/Device/RNDIS.c **** 			
 644               		.loc 1 385 4 view .LVU142
 385:LUFA-100807/LUFA/Drivers/USB/Class/Device/RNDIS.c **** 			
 645               		.loc 1 385 31 is_stmt 0 view .LVU143
 646 02e6 8CED      		ldi r24,lo8(-36)
 647 02e8 95E0      		ldi r25,lo8(5)
 648 02ea A0E0      		ldi r26,0
 649 02ec B0E0      		ldi r27,0
 650               	.LVL35:
 385:LUFA-100807/LUFA/Drivers/USB/Class/Device/RNDIS.c **** 			
 651               		.loc 1 385 31 view .LVU144
 652 02ee 00C0      		rjmp .L38
 653               	.LVL36:
 654               	.L19:
 389:LUFA-100807/LUFA/Drivers/USB/Class/Device/RNDIS.c **** 			
 655               		.loc 1 389 4 is_stmt 1 view .LVU145
 389:LUFA-100807/LUFA/Drivers/USB/Class/Device/RNDIS.c **** 			
 656               		.loc 1 389 54 is_stmt 0 view .LVU146
 657 02f0 6D85      		ldd r22,Y+13
 658 02f2 7E85      		ldd r23,Y+14
 389:LUFA-100807/LUFA/Drivers/USB/Class/Device/RNDIS.c **** 			
 659               		.loc 1 389 21 view .LVU147
 660 02f4 FB01      		movw r30,r22
 661               		0:
 662 02f6 0190      		ld __tmp_reg__,Z+
 663 02f8 0020      		tst __tmp_reg__
 664 02fa 01F4      		brne 0b
 389:LUFA-100807/LUFA/Drivers/USB/Class/Device/RNDIS.c **** 			
 665               		.loc 1 389 81 view .LVU148
 666 02fc 8F01      		movw r16,r30
 667 02fe 061B      		sub r16,r22
 668 0300 170B      		sbc r17,r23
 669               	.LVL37:
 391:LUFA-100807/LUFA/Drivers/USB/Class/Device/RNDIS.c **** 			
 670               		.loc 1 391 4 is_stmt 1 view .LVU149
 671 0302 A801      		movw r20,r16
 672 0304 0E94 0000 		call memcpy
 673               	.LVL38:
 393:LUFA-100807/LUFA/Drivers/USB/Class/Device/RNDIS.c **** 		case OID_GEN_MEDIA_CONNECT_STATUS:
 674               		.loc 1 393 4 view .LVU150
 393:LUFA-100807/LUFA/Drivers/USB/Class/Device/RNDIS.c **** 		case OID_GEN_MEDIA_CONNECT_STATUS:
 675               		.loc 1 393 4 is_stmt 0 view .LVU151
 676 0308 00C0      		rjmp .L27
 677               	.LVL39:
 678               	.L22:
 401:LUFA-100807/LUFA/Drivers/USB/Class/Device/RNDIS.c **** 			
 679               		.loc 1 401 4 is_stmt 1 view .LVU152
 404:LUFA-100807/LUFA/Drivers/USB/Class/Device/RNDIS.c **** 
 680               		.loc 1 404 4 view .LVU153
 404:LUFA-100807/LUFA/Drivers/USB/Class/Device/RNDIS.c **** 
 681               		.loc 1 404 31 is_stmt 0 view .LVU154
 682 030a 80EA      		ldi r24,lo8(-96)
 683 030c 96E8      		ldi r25,lo8(-122)
 684 030e A1E0      		ldi r26,lo8(1)
 685 0310 B0E0      		ldi r27,0
 686               	.LVL40:
 404:LUFA-100807/LUFA/Drivers/USB/Class/Device/RNDIS.c **** 
 687               		.loc 1 404 31 view .LVU155
 688 0312 00C0      		rjmp .L38
 689               	.LVL41:
 690               	.L25:
 409:LUFA-100807/LUFA/Drivers/USB/Class/Device/RNDIS.c **** 			
 691               		.loc 1 409 4 is_stmt 1 view .LVU156
 411:LUFA-100807/LUFA/Drivers/USB/Class/Device/RNDIS.c **** 
 692               		.loc 1 411 4 view .LVU157
 693 0314 26E0      		ldi r18,lo8(6)
 694 0316 FE01      		movw r30,r28
 695 0318 3F96      		adiw r30,15
 696 031a DC01      		movw r26,r24
 697               		0:
 698 031c 0190      		ld r0,Z+
 699 031e 0D92      		st X+,r0
 700 0320 2A95      		dec r18
 701 0322 01F4      		brne 0b
 413:LUFA-100807/LUFA/Drivers/USB/Class/Device/RNDIS.c **** 		case OID_802_3_MAXIMUM_LIST_SIZE:
 702               		.loc 1 413 4 view .LVU158
 703               	.LVL42:
 409:LUFA-100807/LUFA/Drivers/USB/Class/Device/RNDIS.c **** 			
 704               		.loc 1 409 18 is_stmt 0 view .LVU159
 705 0324 06E0      		ldi r16,lo8(6)
 706 0326 10E0      		ldi r17,0
 707 0328 00C0      		rjmp .L27
 708               	.LVL43:
 709               	.L26:
 415:LUFA-100807/LUFA/Drivers/USB/Class/Device/RNDIS.c **** 			
 710               		.loc 1 415 4 is_stmt 1 view .LVU160
 418:LUFA-100807/LUFA/Drivers/USB/Class/Device/RNDIS.c **** 		
 711               		.loc 1 418 4 view .LVU161
 418:LUFA-100807/LUFA/Drivers/USB/Class/Device/RNDIS.c **** 		
 712               		.loc 1 418 31 is_stmt 0 view .LVU162
 713 032a 81E0      		ldi r24,lo8(1)
 714 032c 90E0      		ldi r25,0
 715 032e A0E0      		ldi r26,0
 716 0330 B0E0      		ldi r27,0
 717               	.LVL44:
 418:LUFA-100807/LUFA/Drivers/USB/Class/Device/RNDIS.c **** 		
 718               		.loc 1 418 31 view .LVU163
 719 0332 00C0      		rjmp .L38
 720               	.LVL45:
 721               	.L18:
 422:LUFA-100807/LUFA/Drivers/USB/Class/Device/RNDIS.c **** 			
 722               		.loc 1 422 4 is_stmt 1 view .LVU164
 424:LUFA-100807/LUFA/Drivers/USB/Class/Device/RNDIS.c **** 		
 723               		.loc 1 424 4 view .LVU165
 424:LUFA-100807/LUFA/Drivers/USB/Class/Device/RNDIS.c **** 		
 724               		.loc 1 424 58 is_stmt 0 view .LVU166
 725 0334 FE01      		movw r30,r28
 726 0336 E956      		subi r30,105
 727 0338 FF4F      		sbci r31,-1
 424:LUFA-100807/LUFA/Drivers/USB/Class/Device/RNDIS.c **** 		
 728               		.loc 1 424 31 view .LVU167
 729 033a 8081      		ld r24,Z
 730 033c 9181      		ldd r25,Z+1
 731 033e A281      		ldd r26,Z+2
 732 0340 B381      		ldd r27,Z+3
 733               	.LVL46:
 424:LUFA-100807/LUFA/Drivers/USB/Class/Device/RNDIS.c **** 		
 734               		.loc 1 424 31 view .LVU168
 735 0342 00C0      		rjmp .L38
 736               	.LVL47:
 737               	.L17:
 442:LUFA-100807/LUFA/Drivers/USB/Class/Device/RNDIS.c **** 			
 738               		.loc 1 442 4 is_stmt 1 view .LVU169
 445:LUFA-100807/LUFA/Drivers/USB/Class/Device/RNDIS.c **** 		
 739               		.loc 1 445 4 view .LVU170
 445:LUFA-100807/LUFA/Drivers/USB/Class/Device/RNDIS.c **** 		
 740               		.loc 1 445 31 is_stmt 0 view .LVU171
 741 0344 8CE5      		ldi r24,lo8(92)
 742 0346 96E0      		ldi r25,lo8(6)
 743 0348 A0E0      		ldi r26,0
 744 034a B0E0      		ldi r27,0
 745               	.LVL48:
 445:LUFA-100807/LUFA/Drivers/USB/Class/Device/RNDIS.c **** 		
 746               		.loc 1 445 31 view .LVU172
 747 034c 00C0      		rjmp .L38
 748               	.LVL49:
 749               	.L5:
 445:LUFA-100807/LUFA/Drivers/USB/Class/Device/RNDIS.c **** 		
 750               		.loc 1 445 31 view .LVU173
 751               	.LBE65:
 752               	.LBE67:
 290:LUFA-100807/LUFA/Drivers/USB/Class/Device/RNDIS.c **** 			
 753               		.loc 1 290 4 is_stmt 1 view .LVU174
 290:LUFA-100807/LUFA/Drivers/USB/Class/Device/RNDIS.c **** 			
 754               		.loc 1 290 44 is_stmt 0 view .LVU175
 755 034e 81E0      		ldi r24,lo8(1)
 756 0350 FE01      		movw r30,r28
 757 0352 EB56      		subi r30,107
 758 0354 FF4F      		sbci r31,-1
 759 0356 8083      		st Z,r24
 292:LUFA-100807/LUFA/Drivers/USB/Class/Device/RNDIS.c **** 			RNDIS_Set_Complete_t* SET_Response = (RNDIS_Set_Complete_t*)&RNDISInterfaceInfo->State.RNDISMess
 760               		.loc 1 292 4 is_stmt 1 view .LVU176
 761               	.LVL50:
 293:LUFA-100807/LUFA/Drivers/USB/Class/Device/RNDIS.c **** 			uint32_t              SET_Oid      = SET_Message->Oid;
 762               		.loc 1 293 4 view .LVU177
 294:LUFA-100807/LUFA/Drivers/USB/Class/Device/RNDIS.c **** 
 763               		.loc 1 294 4 view .LVU178
 294:LUFA-100807/LUFA/Drivers/USB/Class/Device/RNDIS.c **** 
 764               		.loc 1 294 26 is_stmt 0 view .LVU179
 765 0358 89A1      		ldd r24,Y+33
 766 035a 9AA1      		ldd r25,Y+34
 767 035c ABA1      		ldd r26,Y+35
 768 035e BCA1      		ldd r27,Y+36
 769               	.LVL51:
 296:LUFA-100807/LUFA/Drivers/USB/Class/Device/RNDIS.c **** 			SET_Response->MessageLength = sizeof(RNDIS_Set_Complete_t);
 770               		.loc 1 296 4 is_stmt 1 view .LVU180
 296:LUFA-100807/LUFA/Drivers/USB/Class/Device/RNDIS.c **** 			SET_Response->MessageLength = sizeof(RNDIS_Set_Complete_t);
 771               		.loc 1 296 32 is_stmt 0 view .LVU181
 772 0360 45E0      		ldi r20,lo8(5)
 773 0362 50E0      		ldi r21,0
 774 0364 60E0      		ldi r22,0
 775 0366 70E8      		ldi r23,lo8(-128)
 776 0368 4D8B      		std Y+21,r20
 777 036a 5E8B      		std Y+22,r21
 778 036c 6F8B      		std Y+23,r22
 779 036e 788F      		std Y+24,r23
 297:LUFA-100807/LUFA/Drivers/USB/Class/Device/RNDIS.c **** 			SET_Response->RequestId     = SET_Message->RequestId;
 780               		.loc 1 297 4 is_stmt 1 view .LVU182
 297:LUFA-100807/LUFA/Drivers/USB/Class/Device/RNDIS.c **** 			SET_Response->RequestId     = SET_Message->RequestId;
 781               		.loc 1 297 32 is_stmt 0 view .LVU183
 782 0370 40E1      		ldi r20,lo8(16)
 783 0372 50E0      		ldi r21,0
 784 0374 60E0      		ldi r22,0
 785 0376 70E0      		ldi r23,0
 786 0378 498F      		std Y+25,r20
 787 037a 5A8F      		std Y+26,r21
 788 037c 6B8F      		std Y+27,r22
 789 037e 7C8F      		std Y+28,r23
 298:LUFA-100807/LUFA/Drivers/USB/Class/Device/RNDIS.c **** 
 790               		.loc 1 298 4 is_stmt 1 view .LVU184
 300:LUFA-100807/LUFA/Drivers/USB/Class/Device/RNDIS.c **** 			                                                              SET_Message->InformationBufferOffs
 791               		.loc 1 300 4 view .LVU185
 792               	.LVL52:
 303:LUFA-100807/LUFA/Drivers/USB/Class/Device/RNDIS.c **** 			                                                   SET_Message->InformationBufferLength) ?
 793               		.loc 1 303 4 view .LVU186
 794               	.LBB68:
 795               	.LBI68:
 448:LUFA-100807/LUFA/Drivers/USB/Class/Device/RNDIS.c **** 		default:
 449:LUFA-100807/LUFA/Drivers/USB/Class/Device/RNDIS.c **** 			return false;
 450:LUFA-100807/LUFA/Drivers/USB/Class/Device/RNDIS.c **** 	}
 451:LUFA-100807/LUFA/Drivers/USB/Class/Device/RNDIS.c **** }
 452:LUFA-100807/LUFA/Drivers/USB/Class/Device/RNDIS.c **** 
 453:LUFA-100807/LUFA/Drivers/USB/Class/Device/RNDIS.c **** static bool RNDIS_Device_ProcessNDISSet(USB_ClassInfo_RNDIS_Device_t* const RNDISInterfaceInfo,
 796               		.loc 1 453 13 view .LVU187
 797               	.LBB69:
 454:LUFA-100807/LUFA/Drivers/USB/Class/Device/RNDIS.c ****                                         const uint32_t OId,
 455:LUFA-100807/LUFA/Drivers/USB/Class/Device/RNDIS.c ****                                         const void* SetData,
 456:LUFA-100807/LUFA/Drivers/USB/Class/Device/RNDIS.c ****                                         const uint16_t SetSize)
 457:LUFA-100807/LUFA/Drivers/USB/Class/Device/RNDIS.c **** {
 458:LUFA-100807/LUFA/Drivers/USB/Class/Device/RNDIS.c **** 	(void)SetSize;
 798               		.loc 1 458 2 view .LVU188
 459:LUFA-100807/LUFA/Drivers/USB/Class/Device/RNDIS.c **** 
 460:LUFA-100807/LUFA/Drivers/USB/Class/Device/RNDIS.c **** 	switch (OId)
 799               		.loc 1 460 2 view .LVU189
 800 0380 8E30      		cpi r24,14
 801 0382 F1E0      		ldi r31,1
 802 0384 9F07      		cpc r25,r31
 803 0386 AF07      		cpc r26,r31
 804 0388 B105      		cpc r27,__zero_reg__
 805 038a 01F0      		breq .L28
 806 038c 8330      		cpi r24,3
 807 038e 9140      		sbci r25,1
 808 0390 A140      		sbci r26,1
 809 0392 B140      		sbci r27,1
 810 0394 01F4      		brne .L31
 811               	.LVL53:
 812               	.L40:
 461:LUFA-100807/LUFA/Drivers/USB/Class/Device/RNDIS.c **** 	{
 462:LUFA-100807/LUFA/Drivers/USB/Class/Device/RNDIS.c **** 		case OID_GEN_CURRENT_PACKET_FILTER:
 463:LUFA-100807/LUFA/Drivers/USB/Class/Device/RNDIS.c **** 			RNDISInterfaceInfo->State.CurrPacketFilter = *((uint32_t*)SetData);
 464:LUFA-100807/LUFA/Drivers/USB/Class/Device/RNDIS.c **** 			RNDISInterfaceInfo->State.CurrRNDISState = ((RNDISInterfaceInfo->State.CurrPacketFilter) ?
 465:LUFA-100807/LUFA/Drivers/USB/Class/Device/RNDIS.c **** 			                                      RNDIS_Data_Initialized : RNDIS_Data_Initialized);
 466:LUFA-100807/LUFA/Drivers/USB/Class/Device/RNDIS.c **** 			
 467:LUFA-100807/LUFA/Drivers/USB/Class/Device/RNDIS.c **** 			return true;
 813               		.loc 1 467 4 view .LVU190
 814               		.loc 1 467 4 is_stmt 0 view .LVU191
 815               	.LBE69:
 816               	.LBE68:
 305:LUFA-100807/LUFA/Drivers/USB/Class/Device/RNDIS.c **** 			break;
 817               		.loc 1 305 82 view .LVU192
 818 0396 80E0      		ldi r24,0
 819 0398 90E0      		ldi r25,0
 820 039a DC01      		movw r26,r24
 821               	.L29:
 303:LUFA-100807/LUFA/Drivers/USB/Class/Device/RNDIS.c **** 			                                                   SET_Message->InformationBufferLength) ?
 822               		.loc 1 303 25 view .LVU193
 823 039c 89A3      		std Y+33,r24
 824 039e 9AA3      		std Y+34,r25
 825 03a0 ABA3      		std Y+35,r26
 826 03a2 BCA3      		std Y+36,r27
 827               	.LVL54:
 306:LUFA-100807/LUFA/Drivers/USB/Class/Device/RNDIS.c **** 		case REMOTE_NDIS_RESET_MSG:
 828               		.loc 1 306 4 is_stmt 1 view .LVU194
 829 03a4 00C0      		rjmp .L10
 830               	.LVL55:
 831               	.L28:
 832               	.LBB72:
 833               	.LBB70:
 463:LUFA-100807/LUFA/Drivers/USB/Class/Device/RNDIS.c **** 			RNDISInterfaceInfo->State.CurrRNDISState = ((RNDISInterfaceInfo->State.CurrPacketFilter) ?
 834               		.loc 1 463 4 view .LVU195
 835               	.LBE70:
 836               	.LBE72:
 300:LUFA-100807/LUFA/Drivers/USB/Class/Device/RNDIS.c **** 			                                                              SET_Message->InformationBufferOffs
 837               		.loc 1 300 97 is_stmt 0 view .LVU196
 838 03a6 89A5      		ldd r24,Y+41
 839 03a8 9AA5      		ldd r25,Y+42
 840 03aa ABA5      		ldd r26,Y+43
 841 03ac BCA5      		ldd r27,Y+44
 842               	.LVL56:
 300:LUFA-100807/LUFA/Drivers/USB/Class/Device/RNDIS.c **** 			                                                              SET_Message->InformationBufferOffs
 843               		.loc 1 300 97 view .LVU197
 844 03ae 0896      		adiw r24,8
 845 03b0 A11D      		adc r26,__zero_reg__
 846 03b2 B11D      		adc r27,__zero_reg__
 847               	.LBB73:
 848               	.LBB71:
 463:LUFA-100807/LUFA/Drivers/USB/Class/Device/RNDIS.c **** 			RNDISInterfaceInfo->State.CurrRNDISState = ((RNDISInterfaceInfo->State.CurrPacketFilter) ?
 849               		.loc 1 463 49 view .LVU198
 850 03b4 8C0F      		add r24,r28
 851 03b6 9D1F      		adc r25,r29
 852 03b8 FC01      		movw r30,r24
 853 03ba 8589      		ldd r24,Z+21
 854 03bc 9689      		ldd r25,Z+22
 855 03be A789      		ldd r26,Z+23
 856 03c0 B08D      		ldd r27,Z+24
 463:LUFA-100807/LUFA/Drivers/USB/Class/Device/RNDIS.c **** 			RNDISInterfaceInfo->State.CurrRNDISState = ((RNDISInterfaceInfo->State.CurrPacketFilter) ?
 857               		.loc 1 463 47 view .LVU199
 858 03c2 FE01      		movw r30,r28
 859 03c4 E956      		subi r30,105
 860 03c6 FF4F      		sbci r31,-1
 861 03c8 8083      		st Z,r24
 862 03ca 9183      		std Z+1,r25
 863 03cc A283      		std Z+2,r26
 864 03ce B383      		std Z+3,r27
 464:LUFA-100807/LUFA/Drivers/USB/Class/Device/RNDIS.c **** 			                                      RNDIS_Data_Initialized : RNDIS_Data_Initialized);
 865               		.loc 1 464 4 is_stmt 1 view .LVU200
 464:LUFA-100807/LUFA/Drivers/USB/Class/Device/RNDIS.c **** 			                                      RNDIS_Data_Initialized : RNDIS_Data_Initialized);
 866               		.loc 1 464 45 is_stmt 0 view .LVU201
 867 03d0 82E0      		ldi r24,lo8(2)
 868 03d2 3197      		sbiw r30,1
 869 03d4 8083      		st Z,r24
 870 03d6 00C0      		rjmp .L40
 871               	.LVL57:
 872               	.L31:
 464:LUFA-100807/LUFA/Drivers/USB/Class/Device/RNDIS.c **** 			                                      RNDIS_Data_Initialized : RNDIS_Data_Initialized);
 873               		.loc 1 464 45 view .LVU202
 874               	.LBE71:
 875               	.LBE73:
 305:LUFA-100807/LUFA/Drivers/USB/Class/Device/RNDIS.c **** 			break;
 876               		.loc 1 305 82 view .LVU203
 877 03d8 8BEB      		ldi r24,lo8(-69)
 878 03da 90E0      		ldi r25,0
 879 03dc A0E0      		ldi r26,0
 880 03de B0EC      		ldi r27,lo8(-64)
 881               	.LVL58:
 305:LUFA-100807/LUFA/Drivers/USB/Class/Device/RNDIS.c **** 			break;
 882               		.loc 1 305 82 view .LVU204
 883 03e0 00C0      		rjmp .L29
 884               	.LVL59:
 885               	.L11:
 308:LUFA-100807/LUFA/Drivers/USB/Class/Device/RNDIS.c **** 			
 886               		.loc 1 308 4 is_stmt 1 view .LVU205
 308:LUFA-100807/LUFA/Drivers/USB/Class/Device/RNDIS.c **** 			
 887               		.loc 1 308 44 is_stmt 0 view .LVU206
 888 03e2 FE01      		movw r30,r28
 889 03e4 EB56      		subi r30,107
 890 03e6 FF4F      		sbci r31,-1
 891 03e8 81E0      		ldi r24,lo8(1)
 892 03ea 8083      		st Z,r24
 310:LUFA-100807/LUFA/Drivers/USB/Class/Device/RNDIS.c **** 
 893               		.loc 1 310 4 is_stmt 1 view .LVU207
 894               	.LVL60:
 312:LUFA-100807/LUFA/Drivers/USB/Class/Device/RNDIS.c **** 			RESET_Response->MessageLength   = sizeof(RNDIS_Reset_Complete_t);
 895               		.loc 1 312 4 view .LVU208
 312:LUFA-100807/LUFA/Drivers/USB/Class/Device/RNDIS.c **** 			RESET_Response->MessageLength   = sizeof(RNDIS_Reset_Complete_t);
 896               		.loc 1 312 36 is_stmt 0 view .LVU209
 897 03ec 86E0      		ldi r24,lo8(6)
 898 03ee 90E0      		ldi r25,0
 899 03f0 A0E0      		ldi r26,0
 900 03f2 B0E8      		ldi r27,lo8(-128)
 901 03f4 8D8B      		std Y+21,r24
 902 03f6 9E8B      		std Y+22,r25
 903 03f8 AF8B      		std Y+23,r26
 904 03fa B88F      		std Y+24,r27
 313:LUFA-100807/LUFA/Drivers/USB/Class/Device/RNDIS.c **** 			RESET_Response->Status          = REMOTE_NDIS_STATUS_SUCCESS;
 905               		.loc 1 313 4 is_stmt 1 view .LVU210
 313:LUFA-100807/LUFA/Drivers/USB/Class/Device/RNDIS.c **** 			RESET_Response->Status          = REMOTE_NDIS_STATUS_SUCCESS;
 906               		.loc 1 313 36 is_stmt 0 view .LVU211
 907 03fc 80E1      		ldi r24,lo8(16)
 908 03fe 90E0      		ldi r25,0
 909 0400 A0E0      		ldi r26,0
 910 0402 B0E0      		ldi r27,0
 911 0404 898F      		std Y+25,r24
 912 0406 9A8F      		std Y+26,r25
 913 0408 AB8F      		std Y+27,r26
 914 040a BC8F      		std Y+28,r27
 314:LUFA-100807/LUFA/Drivers/USB/Class/Device/RNDIS.c **** 			RESET_Response->AddressingReset = 0;
 915               		.loc 1 314 4 is_stmt 1 view .LVU212
 314:LUFA-100807/LUFA/Drivers/USB/Class/Device/RNDIS.c **** 			RESET_Response->AddressingReset = 0;
 916               		.loc 1 314 36 is_stmt 0 view .LVU213
 917 040c 1D8E      		std Y+29,__zero_reg__
 918 040e 1E8E      		std Y+30,__zero_reg__
 919 0410 1F8E      		std Y+31,__zero_reg__
 920 0412 18A2      		std Y+32,__zero_reg__
 315:LUFA-100807/LUFA/Drivers/USB/Class/Device/RNDIS.c **** 
 921               		.loc 1 315 4 is_stmt 1 view .LVU214
 922               	.LVL61:
 923               	.L41:
 328:LUFA-100807/LUFA/Drivers/USB/Class/Device/RNDIS.c **** 			KEEPALIVE_Response->Status        = REMOTE_NDIS_STATUS_SUCCESS;
 924               		.loc 1 328 4 view .LVU215
 329:LUFA-100807/LUFA/Drivers/USB/Class/Device/RNDIS.c **** 			
 925               		.loc 1 329 4 view .LVU216
 329:LUFA-100807/LUFA/Drivers/USB/Class/Device/RNDIS.c **** 			
 926               		.loc 1 329 38 is_stmt 0 view .LVU217
 927 0414 19A2      		std Y+33,__zero_reg__
 928 0416 1AA2      		std Y+34,__zero_reg__
 929 0418 1BA2      		std Y+35,__zero_reg__
 930 041a 1CA2      		std Y+36,__zero_reg__
 331:LUFA-100807/LUFA/Drivers/USB/Class/Device/RNDIS.c **** 	}
 931               		.loc 1 331 4 is_stmt 1 view .LVU218
 932 041c 00C0      		rjmp .L10
 933               	.LVL62:
 934               	.L4:
 331:LUFA-100807/LUFA/Drivers/USB/Class/Device/RNDIS.c **** 	}
 935               		.loc 1 331 4 is_stmt 0 view .LVU219
 936               	.LBE61:
 937               	.LBE74:
 938               	.LBE77:
  92:LUFA-100807/LUFA/Drivers/USB/Class/Device/RNDIS.c **** 			{
 939               		.loc 1 92 4 is_stmt 1 view .LVU220
  92:LUFA-100807/LUFA/Drivers/USB/Class/Device/RNDIS.c **** 			{
 940               		.loc 1 92 7 is_stmt 0 view .LVU221
 941 041e 8091 0000 		lds r24,USB_ControlRequest
 942 0422 813A      		cpi r24,lo8(-95)
 943 0424 01F0      		breq .+2
 944 0426 00C0      		rjmp .L1
 945               	.LBB78:
  94:LUFA-100807/LUFA/Drivers/USB/Class/Device/RNDIS.c **** 
 946               		.loc 1 94 5 is_stmt 1 view .LVU222
 947               	.LBB79:
 948               	.LBI79:
 440:LUFA-100807/LUFA/Drivers/USB/Class/Device/../../HighLevel/../LowLevel/Endpoint.h **** 			{
 949               		.loc 2 440 23 view .LVU223
 950               	.LBB80:
 442:LUFA-100807/LUFA/Drivers/USB/Class/Device/../../HighLevel/../LowLevel/Endpoint.h **** 			}
 951               		.loc 2 442 5 view .LVU224
 442:LUFA-100807/LUFA/Drivers/USB/Class/Device/../../HighLevel/../LowLevel/Endpoint.h **** 			}
 952               		.loc 2 442 12 is_stmt 0 view .LVU225
 953 0428 8091 E800 		lds r24,232
 954 042c 877F      		andi r24,lo8(-9)
 955 042e 8093 E800 		sts 232,r24
 956               	.LBE80:
 957               	.LBE79:
  96:LUFA-100807/LUFA/Drivers/USB/Class/Device/RNDIS.c **** 
 958               		.loc 1 96 5 is_stmt 1 view .LVU226
  96:LUFA-100807/LUFA/Drivers/USB/Class/Device/RNDIS.c **** 
 959               		.loc 1 96 29 is_stmt 0 view .LVU227
 960 0432 CE01      		movw r24,r28
 961 0434 4596      		adiw r24,21
 962               	.LVL63:
  98:LUFA-100807/LUFA/Drivers/USB/Class/Device/RNDIS.c **** 				{
 963               		.loc 1 98 5 is_stmt 1 view .LVU228
  98:LUFA-100807/LUFA/Drivers/USB/Class/Device/RNDIS.c **** 				{
 964               		.loc 1 98 8 is_stmt 0 view .LVU229
 965 0436 498D      		ldd r20,Y+25
 966 0438 5A8D      		ldd r21,Y+26
 967 043a 6B8D      		ldd r22,Y+27
 968 043c 7C8D      		ldd r23,Y+28
 969 043e 452B      		or r20,r21
 970 0440 462B      		or r20,r22
 971 0442 472B      		or r20,r23
 972 0444 01F4      		brne .L30
 100:LUFA-100807/LUFA/Drivers/USB/Class/Device/RNDIS.c **** 					MessageHeader->MessageLength = 1;
 973               		.loc 1 100 6 is_stmt 1 view .LVU230
 100:LUFA-100807/LUFA/Drivers/USB/Class/Device/RNDIS.c **** 					MessageHeader->MessageLength = 1;
 974               		.loc 1 100 54 is_stmt 0 view .LVU231
 975 0446 1D8A      		std Y+21,__zero_reg__
 101:LUFA-100807/LUFA/Drivers/USB/Class/Device/RNDIS.c **** 				}
 976               		.loc 1 101 6 is_stmt 1 view .LVU232
 101:LUFA-100807/LUFA/Drivers/USB/Class/Device/RNDIS.c **** 				}
 977               		.loc 1 101 35 is_stmt 0 view .LVU233
 978 0448 41E0      		ldi r20,lo8(1)
 979 044a 50E0      		ldi r21,0
 980 044c 60E0      		ldi r22,0
 981 044e 70E0      		ldi r23,0
 982 0450 498F      		std Y+25,r20
 983 0452 5A8F      		std Y+26,r21
 984 0454 6B8F      		std Y+27,r22
 985 0456 7C8F      		std Y+28,r23
 986               	.L30:
 104:LUFA-100807/LUFA/Drivers/USB/Class/Device/RNDIS.c **** 				Endpoint_ClearOUT();
 987               		.loc 1 104 5 is_stmt 1 view .LVU234
 988 0458 698D      		ldd r22,Y+25
 989 045a 7A8D      		ldd r23,Y+26
 990 045c 0E94 0000 		call Endpoint_Write_Control_Stream_LE
 991               	.LVL64:
 105:LUFA-100807/LUFA/Drivers/USB/Class/Device/RNDIS.c **** 
 992               		.loc 1 105 5 view .LVU235
 993               	.LBB81:
 994               	.LBI81:
 459:LUFA-100807/LUFA/Drivers/USB/Class/Device/../../HighLevel/../LowLevel/Endpoint.h **** 			
 460:LUFA-100807/LUFA/Drivers/USB/Class/Device/../../HighLevel/../LowLevel/Endpoint.h **** 			/** Acknowledges an OUT packet to the host on the currently selected endpoint, freeing up the en
 461:LUFA-100807/LUFA/Drivers/USB/Class/Device/../../HighLevel/../LowLevel/Endpoint.h **** 			 *  for the next packet and switching to the alternative endpoint bank if double banked.
 462:LUFA-100807/LUFA/Drivers/USB/Class/Device/../../HighLevel/../LowLevel/Endpoint.h **** 			 *
 463:LUFA-100807/LUFA/Drivers/USB/Class/Device/../../HighLevel/../LowLevel/Endpoint.h **** 			 *  \ingroup Group_EndpointPacketManagement
 464:LUFA-100807/LUFA/Drivers/USB/Class/Device/../../HighLevel/../LowLevel/Endpoint.h **** 			 */
 465:LUFA-100807/LUFA/Drivers/USB/Class/Device/../../HighLevel/../LowLevel/Endpoint.h **** 			static inline void Endpoint_ClearOUT(void) ATTR_ALWAYS_INLINE;
 466:LUFA-100807/LUFA/Drivers/USB/Class/Device/../../HighLevel/../LowLevel/Endpoint.h **** 			static inline void Endpoint_ClearOUT(void)
 995               		.loc 2 466 23 view .LVU236
 996               	.LBB82:
 467:LUFA-100807/LUFA/Drivers/USB/Class/Device/../../HighLevel/../LowLevel/Endpoint.h **** 			{
 468:LUFA-100807/LUFA/Drivers/USB/Class/Device/../../HighLevel/../LowLevel/Endpoint.h **** 				#if !defined(CONTROL_ONLY_DEVICE)
 469:LUFA-100807/LUFA/Drivers/USB/Class/Device/../../HighLevel/../LowLevel/Endpoint.h **** 					UEINTX &= ~((1 << RXOUTI) | (1 << FIFOCON));
 997               		.loc 2 469 6 view .LVU237
 998               		.loc 2 469 13 is_stmt 0 view .LVU238
 999 0460 8091 E800 		lds r24,232
 1000 0464 8B77      		andi r24,lo8(123)
 1001 0466 8093 E800 		sts 232,r24
 1002               	.LBE82:
 1003               	.LBE81:
 107:LUFA-100807/LUFA/Drivers/USB/Class/Device/RNDIS.c **** 			}
 1004               		.loc 1 107 5 is_stmt 1 view .LVU239
 107:LUFA-100807/LUFA/Drivers/USB/Class/Device/RNDIS.c **** 			}
 1005               		.loc 1 107 34 is_stmt 0 view .LVU240
 1006 046a 198E      		std Y+25,__zero_reg__
 1007 046c 1A8E      		std Y+26,__zero_reg__
 1008 046e 1B8E      		std Y+27,__zero_reg__
 1009 0470 1C8E      		std Y+28,__zero_reg__
 1010 0472 00C0      		rjmp .L1
 1011               	.LBE78:
 1012               		.cfi_endproc
 1013               	.LFE65:
 1015               		.section	.text.RNDIS_Device_ConfigureEndpoints,"ax",@progbits
 1016               	.global	RNDIS_Device_ConfigureEndpoints
 1018               	RNDIS_Device_ConfigureEndpoints:
 1019               	.LVL65:
 1020               	.LFB66:
 115:LUFA-100807/LUFA/Drivers/USB/Class/Device/RNDIS.c **** 	memset(&RNDISInterfaceInfo->State, 0x00, sizeof(RNDISInterfaceInfo->State));
 1021               		.loc 1 115 1 is_stmt 1 view -0
 1022               		.cfi_startproc
 115:LUFA-100807/LUFA/Drivers/USB/Class/Device/RNDIS.c **** 	memset(&RNDISInterfaceInfo->State, 0x00, sizeof(RNDISInterfaceInfo->State));
 1023               		.loc 1 115 1 is_stmt 0 view .LVU242
 1024 0000 0F93      		push r16
 1025               	.LCFI4:
 1026               		.cfi_def_cfa_offset 3
 1027               		.cfi_offset 16, -2
 1028 0002 1F93      		push r17
 1029               	.LCFI5:
 1030               		.cfi_def_cfa_offset 4
 1031               		.cfi_offset 17, -3
 1032 0004 CF93      		push r28
 1033               	.LCFI6:
 1034               		.cfi_def_cfa_offset 5
 1035               		.cfi_offset 28, -4
 1036 0006 DF93      		push r29
 1037               	.LCFI7:
 1038               		.cfi_def_cfa_offset 6
 1039               		.cfi_offset 29, -5
 1040               	/* prologue: function */
 1041               	/* frame size = 0 */
 1042               	/* stack size = 4 */
 1043               	.L__stack_usage = 4
 1044 0008 EC01      		movw r28,r24
 116:LUFA-100807/LUFA/Drivers/USB/Class/Device/RNDIS.c **** 
 1045               		.loc 1 116 2 is_stmt 1 view .LVU243
 1046 000a FC01      		movw r30,r24
 1047 000c 7596      		adiw r30,21
 1048 000e 84E4      		ldi r24,lo8(68)
 1049 0010 9CE0      		ldi r25,lo8(12)
 1050               	.LVL66:
 116:LUFA-100807/LUFA/Drivers/USB/Class/Device/RNDIS.c **** 
 1051               		.loc 1 116 2 is_stmt 0 view .LVU244
 1052 0012 DF01      		movw r26,r30
 1053 0014 9C01      		movw r18,r24
 1054               		0:
 1055 0016 1D92      		st X+,__zero_reg__
 1056 0018 2150      		subi r18,1
 1057 001a 3040      		sbci r19,0
 1058 001c 01F4      		brne 0b
 118:LUFA-100807/LUFA/Drivers/USB/Class/Device/RNDIS.c **** 							         ENDPOINT_DIR_IN, RNDISInterfaceInfo->Config.DataINEndpointSize,
 1059               		.loc 1 118 2 is_stmt 1 view .LVU245
 118:LUFA-100807/LUFA/Drivers/USB/Class/Device/RNDIS.c **** 							         ENDPOINT_DIR_IN, RNDISInterfaceInfo->Config.DataINEndpointSize,
 1060               		.loc 1 118 8 is_stmt 0 view .LVU246
 1061 001e 8A81      		ldd r24,Y+2
 1062 0020 9B81      		ldd r25,Y+3
 1063 0022 2C81      		ldd r18,Y+4
 1064 0024 10E0      		ldi r17,0
 1065 0026 2111      		cpse r18,__zero_reg__
 1066 0028 14E0      		ldi r17,lo8(4)
 1067               	.L43:
 118:LUFA-100807/LUFA/Drivers/USB/Class/Device/RNDIS.c **** 							         ENDPOINT_DIR_IN, RNDISInterfaceInfo->Config.DataINEndpointSize,
 1068               		.loc 1 118 8 discriminator 11 view .LVU247
 1069 002a 0981      		ldd r16,Y+1
 1070               	.LVL67:
 1071               	.LBB101:
 1072               	.LBI101:
 470:LUFA-100807/LUFA/Drivers/USB/Class/Device/../../HighLevel/../LowLevel/Endpoint.h **** 				#else
 471:LUFA-100807/LUFA/Drivers/USB/Class/Device/../../HighLevel/../LowLevel/Endpoint.h **** 					UEINTX &= ~(1 << RXOUTI);	
 472:LUFA-100807/LUFA/Drivers/USB/Class/Device/../../HighLevel/../LowLevel/Endpoint.h **** 				#endif
 473:LUFA-100807/LUFA/Drivers/USB/Class/Device/../../HighLevel/../LowLevel/Endpoint.h **** 			}
 474:LUFA-100807/LUFA/Drivers/USB/Class/Device/../../HighLevel/../LowLevel/Endpoint.h **** 			
 475:LUFA-100807/LUFA/Drivers/USB/Class/Device/../../HighLevel/../LowLevel/Endpoint.h **** 			/** Stalls the current endpoint, indicating to the host that a logical problem occurred with the
 476:LUFA-100807/LUFA/Drivers/USB/Class/Device/../../HighLevel/../LowLevel/Endpoint.h **** 			 *  indicated endpoint and that the current transfer sequence should be aborted. This provides a
 477:LUFA-100807/LUFA/Drivers/USB/Class/Device/../../HighLevel/../LowLevel/Endpoint.h **** 			 *  way for devices to indicate invalid commands to the host so that the current transfer can be
 478:LUFA-100807/LUFA/Drivers/USB/Class/Device/../../HighLevel/../LowLevel/Endpoint.h **** 			 *  aborted and the host can begin its own recovery sequence.
 479:LUFA-100807/LUFA/Drivers/USB/Class/Device/../../HighLevel/../LowLevel/Endpoint.h **** 			 *
 480:LUFA-100807/LUFA/Drivers/USB/Class/Device/../../HighLevel/../LowLevel/Endpoint.h **** 			 *  The currently selected endpoint remains stalled until either the \ref Endpoint_ClearStall() 
 481:LUFA-100807/LUFA/Drivers/USB/Class/Device/../../HighLevel/../LowLevel/Endpoint.h **** 			 *  is called, or the host issues a CLEAR FEATURE request to the device for the currently select
 482:LUFA-100807/LUFA/Drivers/USB/Class/Device/../../HighLevel/../LowLevel/Endpoint.h **** 			 *  endpoint.
 483:LUFA-100807/LUFA/Drivers/USB/Class/Device/../../HighLevel/../LowLevel/Endpoint.h **** 			 *
 484:LUFA-100807/LUFA/Drivers/USB/Class/Device/../../HighLevel/../LowLevel/Endpoint.h **** 			 *  \ingroup Group_EndpointPacketManagement
 485:LUFA-100807/LUFA/Drivers/USB/Class/Device/../../HighLevel/../LowLevel/Endpoint.h **** 			 */
 486:LUFA-100807/LUFA/Drivers/USB/Class/Device/../../HighLevel/../LowLevel/Endpoint.h **** 			static inline void Endpoint_StallTransaction(void) ATTR_ALWAYS_INLINE;
 487:LUFA-100807/LUFA/Drivers/USB/Class/Device/../../HighLevel/../LowLevel/Endpoint.h **** 			static inline void Endpoint_StallTransaction(void)
 488:LUFA-100807/LUFA/Drivers/USB/Class/Device/../../HighLevel/../LowLevel/Endpoint.h **** 			{
 489:LUFA-100807/LUFA/Drivers/USB/Class/Device/../../HighLevel/../LowLevel/Endpoint.h **** 				UECONX |= (1 << STALLRQ);
 490:LUFA-100807/LUFA/Drivers/USB/Class/Device/../../HighLevel/../LowLevel/Endpoint.h **** 			}
 491:LUFA-100807/LUFA/Drivers/USB/Class/Device/../../HighLevel/../LowLevel/Endpoint.h **** 			
 492:LUFA-100807/LUFA/Drivers/USB/Class/Device/../../HighLevel/../LowLevel/Endpoint.h **** 			/** Clears the STALL condition on the currently selected endpoint.
 493:LUFA-100807/LUFA/Drivers/USB/Class/Device/../../HighLevel/../LowLevel/Endpoint.h **** 			 *
 494:LUFA-100807/LUFA/Drivers/USB/Class/Device/../../HighLevel/../LowLevel/Endpoint.h **** 			 *  \ingroup Group_EndpointPacketManagement
 495:LUFA-100807/LUFA/Drivers/USB/Class/Device/../../HighLevel/../LowLevel/Endpoint.h **** 			 */
 496:LUFA-100807/LUFA/Drivers/USB/Class/Device/../../HighLevel/../LowLevel/Endpoint.h **** 			static inline void Endpoint_ClearStall(void) ATTR_ALWAYS_INLINE;
 497:LUFA-100807/LUFA/Drivers/USB/Class/Device/../../HighLevel/../LowLevel/Endpoint.h **** 			static inline void Endpoint_ClearStall(void)
 498:LUFA-100807/LUFA/Drivers/USB/Class/Device/../../HighLevel/../LowLevel/Endpoint.h **** 			{
 499:LUFA-100807/LUFA/Drivers/USB/Class/Device/../../HighLevel/../LowLevel/Endpoint.h **** 				UECONX |= (1 << STALLRQC);
 500:LUFA-100807/LUFA/Drivers/USB/Class/Device/../../HighLevel/../LowLevel/Endpoint.h **** 			}
 501:LUFA-100807/LUFA/Drivers/USB/Class/Device/../../HighLevel/../LowLevel/Endpoint.h **** 			
 502:LUFA-100807/LUFA/Drivers/USB/Class/Device/../../HighLevel/../LowLevel/Endpoint.h **** 			/** Determines if the currently selected endpoint is stalled, false otherwise.
 503:LUFA-100807/LUFA/Drivers/USB/Class/Device/../../HighLevel/../LowLevel/Endpoint.h **** 			 *
 504:LUFA-100807/LUFA/Drivers/USB/Class/Device/../../HighLevel/../LowLevel/Endpoint.h **** 			 *  \ingroup Group_EndpointPacketManagement
 505:LUFA-100807/LUFA/Drivers/USB/Class/Device/../../HighLevel/../LowLevel/Endpoint.h **** 			 *
 506:LUFA-100807/LUFA/Drivers/USB/Class/Device/../../HighLevel/../LowLevel/Endpoint.h **** 			 *  \return Boolean true if the currently selected endpoint is stalled, false otherwise.
 507:LUFA-100807/LUFA/Drivers/USB/Class/Device/../../HighLevel/../LowLevel/Endpoint.h **** 			 */
 508:LUFA-100807/LUFA/Drivers/USB/Class/Device/../../HighLevel/../LowLevel/Endpoint.h **** 			static inline bool Endpoint_IsStalled(void) ATTR_WARN_UNUSED_RESULT ATTR_ALWAYS_INLINE;
 509:LUFA-100807/LUFA/Drivers/USB/Class/Device/../../HighLevel/../LowLevel/Endpoint.h **** 			static inline bool Endpoint_IsStalled(void)
 510:LUFA-100807/LUFA/Drivers/USB/Class/Device/../../HighLevel/../LowLevel/Endpoint.h **** 			{
 511:LUFA-100807/LUFA/Drivers/USB/Class/Device/../../HighLevel/../LowLevel/Endpoint.h **** 				return ((UECONX & (1 << STALLRQ)) ? true : false);
 512:LUFA-100807/LUFA/Drivers/USB/Class/Device/../../HighLevel/../LowLevel/Endpoint.h **** 			}
 513:LUFA-100807/LUFA/Drivers/USB/Class/Device/../../HighLevel/../LowLevel/Endpoint.h **** 			
 514:LUFA-100807/LUFA/Drivers/USB/Class/Device/../../HighLevel/../LowLevel/Endpoint.h **** 			/** Resets the data toggle of the currently selected endpoint. */
 515:LUFA-100807/LUFA/Drivers/USB/Class/Device/../../HighLevel/../LowLevel/Endpoint.h **** 			static inline void Endpoint_ResetDataToggle(void) ATTR_ALWAYS_INLINE;
 516:LUFA-100807/LUFA/Drivers/USB/Class/Device/../../HighLevel/../LowLevel/Endpoint.h **** 			static inline void Endpoint_ResetDataToggle(void)
 517:LUFA-100807/LUFA/Drivers/USB/Class/Device/../../HighLevel/../LowLevel/Endpoint.h **** 			{
 518:LUFA-100807/LUFA/Drivers/USB/Class/Device/../../HighLevel/../LowLevel/Endpoint.h **** 				UECONX |= (1 << RSTDT);
 519:LUFA-100807/LUFA/Drivers/USB/Class/Device/../../HighLevel/../LowLevel/Endpoint.h **** 			}
 520:LUFA-100807/LUFA/Drivers/USB/Class/Device/../../HighLevel/../LowLevel/Endpoint.h **** 			
 521:LUFA-100807/LUFA/Drivers/USB/Class/Device/../../HighLevel/../LowLevel/Endpoint.h **** 			/** Determines the currently selected endpoint's direction.
 522:LUFA-100807/LUFA/Drivers/USB/Class/Device/../../HighLevel/../LowLevel/Endpoint.h **** 			 *
 523:LUFA-100807/LUFA/Drivers/USB/Class/Device/../../HighLevel/../LowLevel/Endpoint.h **** 			 *  \return The currently selected endpoint's direction, as a ENDPOINT_DIR_* mask.
 524:LUFA-100807/LUFA/Drivers/USB/Class/Device/../../HighLevel/../LowLevel/Endpoint.h **** 			 */
 525:LUFA-100807/LUFA/Drivers/USB/Class/Device/../../HighLevel/../LowLevel/Endpoint.h **** 			static inline uint8_t Endpoint_GetEndpointDirection(void) ATTR_WARN_UNUSED_RESULT ATTR_ALWAYS_IN
 526:LUFA-100807/LUFA/Drivers/USB/Class/Device/../../HighLevel/../LowLevel/Endpoint.h **** 			static inline uint8_t Endpoint_GetEndpointDirection(void)
 527:LUFA-100807/LUFA/Drivers/USB/Class/Device/../../HighLevel/../LowLevel/Endpoint.h **** 			{
 528:LUFA-100807/LUFA/Drivers/USB/Class/Device/../../HighLevel/../LowLevel/Endpoint.h **** 				return (UECFG0X & ENDPOINT_DIR_IN);
 529:LUFA-100807/LUFA/Drivers/USB/Class/Device/../../HighLevel/../LowLevel/Endpoint.h **** 			}
 530:LUFA-100807/LUFA/Drivers/USB/Class/Device/../../HighLevel/../LowLevel/Endpoint.h **** 
 531:LUFA-100807/LUFA/Drivers/USB/Class/Device/../../HighLevel/../LowLevel/Endpoint.h **** 			/** Sets the direction of the currently selected endpoint.
 532:LUFA-100807/LUFA/Drivers/USB/Class/Device/../../HighLevel/../LowLevel/Endpoint.h **** 			 *
 533:LUFA-100807/LUFA/Drivers/USB/Class/Device/../../HighLevel/../LowLevel/Endpoint.h **** 			 *  \param[in] DirectionMask  New endpoint direction, as a ENDPOINT_DIR_* mask.
 534:LUFA-100807/LUFA/Drivers/USB/Class/Device/../../HighLevel/../LowLevel/Endpoint.h **** 			 */
 535:LUFA-100807/LUFA/Drivers/USB/Class/Device/../../HighLevel/../LowLevel/Endpoint.h **** 			static inline void Endpoint_SetEndpointDirection(const uint8_t DirectionMask) ATTR_ALWAYS_INLINE
 536:LUFA-100807/LUFA/Drivers/USB/Class/Device/../../HighLevel/../LowLevel/Endpoint.h **** 			static inline void Endpoint_SetEndpointDirection(const uint8_t DirectionMask)
 537:LUFA-100807/LUFA/Drivers/USB/Class/Device/../../HighLevel/../LowLevel/Endpoint.h **** 			{
 538:LUFA-100807/LUFA/Drivers/USB/Class/Device/../../HighLevel/../LowLevel/Endpoint.h **** 				UECFG0X = ((UECFG0X & ~ENDPOINT_DIR_IN) | DirectionMask);
 539:LUFA-100807/LUFA/Drivers/USB/Class/Device/../../HighLevel/../LowLevel/Endpoint.h **** 			}
 540:LUFA-100807/LUFA/Drivers/USB/Class/Device/../../HighLevel/../LowLevel/Endpoint.h **** 
 541:LUFA-100807/LUFA/Drivers/USB/Class/Device/../../HighLevel/../LowLevel/Endpoint.h **** 			/** Reads one byte from the currently selected endpoint's bank, for OUT direction endpoints.
 542:LUFA-100807/LUFA/Drivers/USB/Class/Device/../../HighLevel/../LowLevel/Endpoint.h **** 			 *
 543:LUFA-100807/LUFA/Drivers/USB/Class/Device/../../HighLevel/../LowLevel/Endpoint.h **** 			 *  \ingroup Group_EndpointPrimitiveRW
 544:LUFA-100807/LUFA/Drivers/USB/Class/Device/../../HighLevel/../LowLevel/Endpoint.h **** 			 *
 545:LUFA-100807/LUFA/Drivers/USB/Class/Device/../../HighLevel/../LowLevel/Endpoint.h **** 			 *  \return Next byte in the currently selected endpoint's FIFO buffer.
 546:LUFA-100807/LUFA/Drivers/USB/Class/Device/../../HighLevel/../LowLevel/Endpoint.h **** 			 */
 547:LUFA-100807/LUFA/Drivers/USB/Class/Device/../../HighLevel/../LowLevel/Endpoint.h **** 			static inline uint8_t Endpoint_Read_Byte(void) ATTR_WARN_UNUSED_RESULT ATTR_ALWAYS_INLINE;
 548:LUFA-100807/LUFA/Drivers/USB/Class/Device/../../HighLevel/../LowLevel/Endpoint.h **** 			static inline uint8_t Endpoint_Read_Byte(void)
 549:LUFA-100807/LUFA/Drivers/USB/Class/Device/../../HighLevel/../LowLevel/Endpoint.h **** 			{
 550:LUFA-100807/LUFA/Drivers/USB/Class/Device/../../HighLevel/../LowLevel/Endpoint.h **** 				return UEDATX;
 551:LUFA-100807/LUFA/Drivers/USB/Class/Device/../../HighLevel/../LowLevel/Endpoint.h **** 			}
 552:LUFA-100807/LUFA/Drivers/USB/Class/Device/../../HighLevel/../LowLevel/Endpoint.h **** 
 553:LUFA-100807/LUFA/Drivers/USB/Class/Device/../../HighLevel/../LowLevel/Endpoint.h **** 			/** Writes one byte from the currently selected endpoint's bank, for IN direction endpoints.
 554:LUFA-100807/LUFA/Drivers/USB/Class/Device/../../HighLevel/../LowLevel/Endpoint.h **** 			 *
 555:LUFA-100807/LUFA/Drivers/USB/Class/Device/../../HighLevel/../LowLevel/Endpoint.h **** 			 *  \ingroup Group_EndpointPrimitiveRW
 556:LUFA-100807/LUFA/Drivers/USB/Class/Device/../../HighLevel/../LowLevel/Endpoint.h **** 			 *
 557:LUFA-100807/LUFA/Drivers/USB/Class/Device/../../HighLevel/../LowLevel/Endpoint.h **** 			 *  \param[in] Byte  Next byte to write into the the currently selected endpoint's FIFO buffer.
 558:LUFA-100807/LUFA/Drivers/USB/Class/Device/../../HighLevel/../LowLevel/Endpoint.h **** 			 */
 559:LUFA-100807/LUFA/Drivers/USB/Class/Device/../../HighLevel/../LowLevel/Endpoint.h **** 			static inline void Endpoint_Write_Byte(const uint8_t Byte) ATTR_ALWAYS_INLINE;
 560:LUFA-100807/LUFA/Drivers/USB/Class/Device/../../HighLevel/../LowLevel/Endpoint.h **** 			static inline void Endpoint_Write_Byte(const uint8_t Byte)
 561:LUFA-100807/LUFA/Drivers/USB/Class/Device/../../HighLevel/../LowLevel/Endpoint.h **** 			{
 562:LUFA-100807/LUFA/Drivers/USB/Class/Device/../../HighLevel/../LowLevel/Endpoint.h **** 				UEDATX = Byte;
 563:LUFA-100807/LUFA/Drivers/USB/Class/Device/../../HighLevel/../LowLevel/Endpoint.h **** 			}
 564:LUFA-100807/LUFA/Drivers/USB/Class/Device/../../HighLevel/../LowLevel/Endpoint.h **** 
 565:LUFA-100807/LUFA/Drivers/USB/Class/Device/../../HighLevel/../LowLevel/Endpoint.h **** 			/** Discards one byte from the currently selected endpoint's bank, for OUT direction endpoints.
 566:LUFA-100807/LUFA/Drivers/USB/Class/Device/../../HighLevel/../LowLevel/Endpoint.h **** 			 *
 567:LUFA-100807/LUFA/Drivers/USB/Class/Device/../../HighLevel/../LowLevel/Endpoint.h **** 			 *  \ingroup Group_EndpointPrimitiveRW
 568:LUFA-100807/LUFA/Drivers/USB/Class/Device/../../HighLevel/../LowLevel/Endpoint.h **** 			 */
 569:LUFA-100807/LUFA/Drivers/USB/Class/Device/../../HighLevel/../LowLevel/Endpoint.h **** 			static inline void Endpoint_Discard_Byte(void) ATTR_ALWAYS_INLINE;
 570:LUFA-100807/LUFA/Drivers/USB/Class/Device/../../HighLevel/../LowLevel/Endpoint.h **** 			static inline void Endpoint_Discard_Byte(void)
 571:LUFA-100807/LUFA/Drivers/USB/Class/Device/../../HighLevel/../LowLevel/Endpoint.h **** 			{
 572:LUFA-100807/LUFA/Drivers/USB/Class/Device/../../HighLevel/../LowLevel/Endpoint.h **** 				uint8_t Dummy;
 573:LUFA-100807/LUFA/Drivers/USB/Class/Device/../../HighLevel/../LowLevel/Endpoint.h **** 				
 574:LUFA-100807/LUFA/Drivers/USB/Class/Device/../../HighLevel/../LowLevel/Endpoint.h **** 				Dummy = UEDATX;
 575:LUFA-100807/LUFA/Drivers/USB/Class/Device/../../HighLevel/../LowLevel/Endpoint.h **** 			}
 576:LUFA-100807/LUFA/Drivers/USB/Class/Device/../../HighLevel/../LowLevel/Endpoint.h **** 			
 577:LUFA-100807/LUFA/Drivers/USB/Class/Device/../../HighLevel/../LowLevel/Endpoint.h **** 			/** Reads two bytes from the currently selected endpoint's bank in little endian format, for OUT
 578:LUFA-100807/LUFA/Drivers/USB/Class/Device/../../HighLevel/../LowLevel/Endpoint.h **** 			 *  direction endpoints.
 579:LUFA-100807/LUFA/Drivers/USB/Class/Device/../../HighLevel/../LowLevel/Endpoint.h **** 			 *
 580:LUFA-100807/LUFA/Drivers/USB/Class/Device/../../HighLevel/../LowLevel/Endpoint.h **** 			 *  \ingroup Group_EndpointPrimitiveRW
 581:LUFA-100807/LUFA/Drivers/USB/Class/Device/../../HighLevel/../LowLevel/Endpoint.h **** 			 *
 582:LUFA-100807/LUFA/Drivers/USB/Class/Device/../../HighLevel/../LowLevel/Endpoint.h **** 			 *  \return Next word in the currently selected endpoint's FIFO buffer.
 583:LUFA-100807/LUFA/Drivers/USB/Class/Device/../../HighLevel/../LowLevel/Endpoint.h **** 			 */
 584:LUFA-100807/LUFA/Drivers/USB/Class/Device/../../HighLevel/../LowLevel/Endpoint.h **** 			static inline uint16_t Endpoint_Read_Word_LE(void) ATTR_WARN_UNUSED_RESULT ATTR_ALWAYS_INLINE;
 585:LUFA-100807/LUFA/Drivers/USB/Class/Device/../../HighLevel/../LowLevel/Endpoint.h **** 			static inline uint16_t Endpoint_Read_Word_LE(void)
 586:LUFA-100807/LUFA/Drivers/USB/Class/Device/../../HighLevel/../LowLevel/Endpoint.h **** 			{
 587:LUFA-100807/LUFA/Drivers/USB/Class/Device/../../HighLevel/../LowLevel/Endpoint.h **** 				union
 588:LUFA-100807/LUFA/Drivers/USB/Class/Device/../../HighLevel/../LowLevel/Endpoint.h **** 				{
 589:LUFA-100807/LUFA/Drivers/USB/Class/Device/../../HighLevel/../LowLevel/Endpoint.h **** 					uint16_t Word;
 590:LUFA-100807/LUFA/Drivers/USB/Class/Device/../../HighLevel/../LowLevel/Endpoint.h **** 					uint8_t  Bytes[2];
 591:LUFA-100807/LUFA/Drivers/USB/Class/Device/../../HighLevel/../LowLevel/Endpoint.h **** 				} Data;
 592:LUFA-100807/LUFA/Drivers/USB/Class/Device/../../HighLevel/../LowLevel/Endpoint.h **** 				
 593:LUFA-100807/LUFA/Drivers/USB/Class/Device/../../HighLevel/../LowLevel/Endpoint.h **** 				Data.Bytes[0] = UEDATX;
 594:LUFA-100807/LUFA/Drivers/USB/Class/Device/../../HighLevel/../LowLevel/Endpoint.h **** 				Data.Bytes[1] = UEDATX;
 595:LUFA-100807/LUFA/Drivers/USB/Class/Device/../../HighLevel/../LowLevel/Endpoint.h **** 			
 596:LUFA-100807/LUFA/Drivers/USB/Class/Device/../../HighLevel/../LowLevel/Endpoint.h **** 				return Data.Word;
 597:LUFA-100807/LUFA/Drivers/USB/Class/Device/../../HighLevel/../LowLevel/Endpoint.h **** 			}
 598:LUFA-100807/LUFA/Drivers/USB/Class/Device/../../HighLevel/../LowLevel/Endpoint.h **** 
 599:LUFA-100807/LUFA/Drivers/USB/Class/Device/../../HighLevel/../LowLevel/Endpoint.h **** 			/** Reads two bytes from the currently selected endpoint's bank in big endian format, for OUT
 600:LUFA-100807/LUFA/Drivers/USB/Class/Device/../../HighLevel/../LowLevel/Endpoint.h **** 			 *  direction endpoints.
 601:LUFA-100807/LUFA/Drivers/USB/Class/Device/../../HighLevel/../LowLevel/Endpoint.h **** 			 *
 602:LUFA-100807/LUFA/Drivers/USB/Class/Device/../../HighLevel/../LowLevel/Endpoint.h **** 			 *  \ingroup Group_EndpointPrimitiveRW
 603:LUFA-100807/LUFA/Drivers/USB/Class/Device/../../HighLevel/../LowLevel/Endpoint.h **** 			 *
 604:LUFA-100807/LUFA/Drivers/USB/Class/Device/../../HighLevel/../LowLevel/Endpoint.h **** 			 *  \return Next word in the currently selected endpoint's FIFO buffer.
 605:LUFA-100807/LUFA/Drivers/USB/Class/Device/../../HighLevel/../LowLevel/Endpoint.h **** 			 */
 606:LUFA-100807/LUFA/Drivers/USB/Class/Device/../../HighLevel/../LowLevel/Endpoint.h **** 			static inline uint16_t Endpoint_Read_Word_BE(void) ATTR_WARN_UNUSED_RESULT ATTR_ALWAYS_INLINE;
 607:LUFA-100807/LUFA/Drivers/USB/Class/Device/../../HighLevel/../LowLevel/Endpoint.h **** 			static inline uint16_t Endpoint_Read_Word_BE(void)
 608:LUFA-100807/LUFA/Drivers/USB/Class/Device/../../HighLevel/../LowLevel/Endpoint.h **** 			{
 609:LUFA-100807/LUFA/Drivers/USB/Class/Device/../../HighLevel/../LowLevel/Endpoint.h **** 				union
 610:LUFA-100807/LUFA/Drivers/USB/Class/Device/../../HighLevel/../LowLevel/Endpoint.h **** 				{
 611:LUFA-100807/LUFA/Drivers/USB/Class/Device/../../HighLevel/../LowLevel/Endpoint.h **** 					uint16_t Word;
 612:LUFA-100807/LUFA/Drivers/USB/Class/Device/../../HighLevel/../LowLevel/Endpoint.h **** 					uint8_t  Bytes[2];
 613:LUFA-100807/LUFA/Drivers/USB/Class/Device/../../HighLevel/../LowLevel/Endpoint.h **** 				} Data;
 614:LUFA-100807/LUFA/Drivers/USB/Class/Device/../../HighLevel/../LowLevel/Endpoint.h **** 				
 615:LUFA-100807/LUFA/Drivers/USB/Class/Device/../../HighLevel/../LowLevel/Endpoint.h **** 				Data.Bytes[1] = UEDATX;
 616:LUFA-100807/LUFA/Drivers/USB/Class/Device/../../HighLevel/../LowLevel/Endpoint.h **** 				Data.Bytes[0] = UEDATX;
 617:LUFA-100807/LUFA/Drivers/USB/Class/Device/../../HighLevel/../LowLevel/Endpoint.h **** 			
 618:LUFA-100807/LUFA/Drivers/USB/Class/Device/../../HighLevel/../LowLevel/Endpoint.h **** 				return Data.Word;
 619:LUFA-100807/LUFA/Drivers/USB/Class/Device/../../HighLevel/../LowLevel/Endpoint.h **** 			}
 620:LUFA-100807/LUFA/Drivers/USB/Class/Device/../../HighLevel/../LowLevel/Endpoint.h **** 
 621:LUFA-100807/LUFA/Drivers/USB/Class/Device/../../HighLevel/../LowLevel/Endpoint.h **** 			/** Writes two bytes to the currently selected endpoint's bank in little endian format, for IN
 622:LUFA-100807/LUFA/Drivers/USB/Class/Device/../../HighLevel/../LowLevel/Endpoint.h **** 			 *  direction endpoints.
 623:LUFA-100807/LUFA/Drivers/USB/Class/Device/../../HighLevel/../LowLevel/Endpoint.h **** 			 *
 624:LUFA-100807/LUFA/Drivers/USB/Class/Device/../../HighLevel/../LowLevel/Endpoint.h **** 			 *  \ingroup Group_EndpointPrimitiveRW
 625:LUFA-100807/LUFA/Drivers/USB/Class/Device/../../HighLevel/../LowLevel/Endpoint.h **** 			 *
 626:LUFA-100807/LUFA/Drivers/USB/Class/Device/../../HighLevel/../LowLevel/Endpoint.h **** 			 *  \param[in] Word  Next word to write to the currently selected endpoint's FIFO buffer.
 627:LUFA-100807/LUFA/Drivers/USB/Class/Device/../../HighLevel/../LowLevel/Endpoint.h **** 			 */
 628:LUFA-100807/LUFA/Drivers/USB/Class/Device/../../HighLevel/../LowLevel/Endpoint.h **** 			static inline void Endpoint_Write_Word_LE(const uint16_t Word) ATTR_ALWAYS_INLINE;
 629:LUFA-100807/LUFA/Drivers/USB/Class/Device/../../HighLevel/../LowLevel/Endpoint.h **** 			static inline void Endpoint_Write_Word_LE(const uint16_t Word)
 630:LUFA-100807/LUFA/Drivers/USB/Class/Device/../../HighLevel/../LowLevel/Endpoint.h **** 			{
 631:LUFA-100807/LUFA/Drivers/USB/Class/Device/../../HighLevel/../LowLevel/Endpoint.h **** 				UEDATX = (Word & 0xFF);
 632:LUFA-100807/LUFA/Drivers/USB/Class/Device/../../HighLevel/../LowLevel/Endpoint.h **** 				UEDATX = (Word >> 8);
 633:LUFA-100807/LUFA/Drivers/USB/Class/Device/../../HighLevel/../LowLevel/Endpoint.h **** 			}
 634:LUFA-100807/LUFA/Drivers/USB/Class/Device/../../HighLevel/../LowLevel/Endpoint.h **** 			
 635:LUFA-100807/LUFA/Drivers/USB/Class/Device/../../HighLevel/../LowLevel/Endpoint.h **** 			/** Writes two bytes to the currently selected endpoint's bank in big endian format, for IN
 636:LUFA-100807/LUFA/Drivers/USB/Class/Device/../../HighLevel/../LowLevel/Endpoint.h **** 			 *  direction endpoints.
 637:LUFA-100807/LUFA/Drivers/USB/Class/Device/../../HighLevel/../LowLevel/Endpoint.h **** 			 *
 638:LUFA-100807/LUFA/Drivers/USB/Class/Device/../../HighLevel/../LowLevel/Endpoint.h **** 			 *  \ingroup Group_EndpointPrimitiveRW
 639:LUFA-100807/LUFA/Drivers/USB/Class/Device/../../HighLevel/../LowLevel/Endpoint.h **** 			 *
 640:LUFA-100807/LUFA/Drivers/USB/Class/Device/../../HighLevel/../LowLevel/Endpoint.h **** 			 *  \param[in] Word  Next word to write to the currently selected endpoint's FIFO buffer.
 641:LUFA-100807/LUFA/Drivers/USB/Class/Device/../../HighLevel/../LowLevel/Endpoint.h **** 			 */
 642:LUFA-100807/LUFA/Drivers/USB/Class/Device/../../HighLevel/../LowLevel/Endpoint.h **** 			static inline void Endpoint_Write_Word_BE(const uint16_t Word) ATTR_ALWAYS_INLINE;
 643:LUFA-100807/LUFA/Drivers/USB/Class/Device/../../HighLevel/../LowLevel/Endpoint.h **** 			static inline void Endpoint_Write_Word_BE(const uint16_t Word)
 644:LUFA-100807/LUFA/Drivers/USB/Class/Device/../../HighLevel/../LowLevel/Endpoint.h **** 			{
 645:LUFA-100807/LUFA/Drivers/USB/Class/Device/../../HighLevel/../LowLevel/Endpoint.h **** 				UEDATX = (Word >> 8);
 646:LUFA-100807/LUFA/Drivers/USB/Class/Device/../../HighLevel/../LowLevel/Endpoint.h **** 				UEDATX = (Word & 0xFF);
 647:LUFA-100807/LUFA/Drivers/USB/Class/Device/../../HighLevel/../LowLevel/Endpoint.h **** 			}
 648:LUFA-100807/LUFA/Drivers/USB/Class/Device/../../HighLevel/../LowLevel/Endpoint.h **** 
 649:LUFA-100807/LUFA/Drivers/USB/Class/Device/../../HighLevel/../LowLevel/Endpoint.h **** 			/** Discards two bytes from the currently selected endpoint's bank, for OUT direction endpoints.
 650:LUFA-100807/LUFA/Drivers/USB/Class/Device/../../HighLevel/../LowLevel/Endpoint.h **** 			 *
 651:LUFA-100807/LUFA/Drivers/USB/Class/Device/../../HighLevel/../LowLevel/Endpoint.h **** 			 *  \ingroup Group_EndpointPrimitiveRW
 652:LUFA-100807/LUFA/Drivers/USB/Class/Device/../../HighLevel/../LowLevel/Endpoint.h **** 			 */
 653:LUFA-100807/LUFA/Drivers/USB/Class/Device/../../HighLevel/../LowLevel/Endpoint.h **** 			static inline void Endpoint_Discard_Word(void) ATTR_ALWAYS_INLINE;
 654:LUFA-100807/LUFA/Drivers/USB/Class/Device/../../HighLevel/../LowLevel/Endpoint.h **** 			static inline void Endpoint_Discard_Word(void)
 655:LUFA-100807/LUFA/Drivers/USB/Class/Device/../../HighLevel/../LowLevel/Endpoint.h **** 			{
 656:LUFA-100807/LUFA/Drivers/USB/Class/Device/../../HighLevel/../LowLevel/Endpoint.h **** 				uint8_t Dummy;
 657:LUFA-100807/LUFA/Drivers/USB/Class/Device/../../HighLevel/../LowLevel/Endpoint.h **** 				
 658:LUFA-100807/LUFA/Drivers/USB/Class/Device/../../HighLevel/../LowLevel/Endpoint.h **** 				Dummy = UEDATX;
 659:LUFA-100807/LUFA/Drivers/USB/Class/Device/../../HighLevel/../LowLevel/Endpoint.h **** 				Dummy = UEDATX;
 660:LUFA-100807/LUFA/Drivers/USB/Class/Device/../../HighLevel/../LowLevel/Endpoint.h **** 			}
 661:LUFA-100807/LUFA/Drivers/USB/Class/Device/../../HighLevel/../LowLevel/Endpoint.h **** 
 662:LUFA-100807/LUFA/Drivers/USB/Class/Device/../../HighLevel/../LowLevel/Endpoint.h **** 			/** Reads four bytes from the currently selected endpoint's bank in little endian format, for OU
 663:LUFA-100807/LUFA/Drivers/USB/Class/Device/../../HighLevel/../LowLevel/Endpoint.h **** 			 *  direction endpoints.
 664:LUFA-100807/LUFA/Drivers/USB/Class/Device/../../HighLevel/../LowLevel/Endpoint.h **** 			 *
 665:LUFA-100807/LUFA/Drivers/USB/Class/Device/../../HighLevel/../LowLevel/Endpoint.h **** 			 *  \ingroup Group_EndpointPrimitiveRW
 666:LUFA-100807/LUFA/Drivers/USB/Class/Device/../../HighLevel/../LowLevel/Endpoint.h **** 			 *
 667:LUFA-100807/LUFA/Drivers/USB/Class/Device/../../HighLevel/../LowLevel/Endpoint.h **** 			 *  \return Next double word in the currently selected endpoint's FIFO buffer.
 668:LUFA-100807/LUFA/Drivers/USB/Class/Device/../../HighLevel/../LowLevel/Endpoint.h **** 			 */
 669:LUFA-100807/LUFA/Drivers/USB/Class/Device/../../HighLevel/../LowLevel/Endpoint.h **** 			static inline uint32_t Endpoint_Read_DWord_LE(void) ATTR_WARN_UNUSED_RESULT ATTR_ALWAYS_INLINE;
 670:LUFA-100807/LUFA/Drivers/USB/Class/Device/../../HighLevel/../LowLevel/Endpoint.h **** 			static inline uint32_t Endpoint_Read_DWord_LE(void)
 671:LUFA-100807/LUFA/Drivers/USB/Class/Device/../../HighLevel/../LowLevel/Endpoint.h **** 			{
 672:LUFA-100807/LUFA/Drivers/USB/Class/Device/../../HighLevel/../LowLevel/Endpoint.h **** 				union
 673:LUFA-100807/LUFA/Drivers/USB/Class/Device/../../HighLevel/../LowLevel/Endpoint.h **** 				{
 674:LUFA-100807/LUFA/Drivers/USB/Class/Device/../../HighLevel/../LowLevel/Endpoint.h **** 					uint32_t DWord;
 675:LUFA-100807/LUFA/Drivers/USB/Class/Device/../../HighLevel/../LowLevel/Endpoint.h **** 					uint8_t  Bytes[4];
 676:LUFA-100807/LUFA/Drivers/USB/Class/Device/../../HighLevel/../LowLevel/Endpoint.h **** 				} Data;
 677:LUFA-100807/LUFA/Drivers/USB/Class/Device/../../HighLevel/../LowLevel/Endpoint.h **** 				
 678:LUFA-100807/LUFA/Drivers/USB/Class/Device/../../HighLevel/../LowLevel/Endpoint.h **** 				Data.Bytes[0] = UEDATX;
 679:LUFA-100807/LUFA/Drivers/USB/Class/Device/../../HighLevel/../LowLevel/Endpoint.h **** 				Data.Bytes[1] = UEDATX;
 680:LUFA-100807/LUFA/Drivers/USB/Class/Device/../../HighLevel/../LowLevel/Endpoint.h **** 				Data.Bytes[2] = UEDATX;
 681:LUFA-100807/LUFA/Drivers/USB/Class/Device/../../HighLevel/../LowLevel/Endpoint.h **** 				Data.Bytes[3] = UEDATX;
 682:LUFA-100807/LUFA/Drivers/USB/Class/Device/../../HighLevel/../LowLevel/Endpoint.h **** 			
 683:LUFA-100807/LUFA/Drivers/USB/Class/Device/../../HighLevel/../LowLevel/Endpoint.h **** 				return Data.DWord;
 684:LUFA-100807/LUFA/Drivers/USB/Class/Device/../../HighLevel/../LowLevel/Endpoint.h **** 			}
 685:LUFA-100807/LUFA/Drivers/USB/Class/Device/../../HighLevel/../LowLevel/Endpoint.h **** 
 686:LUFA-100807/LUFA/Drivers/USB/Class/Device/../../HighLevel/../LowLevel/Endpoint.h **** 			/** Reads four bytes from the currently selected endpoint's bank in big endian format, for OUT
 687:LUFA-100807/LUFA/Drivers/USB/Class/Device/../../HighLevel/../LowLevel/Endpoint.h **** 			 *  direction endpoints.
 688:LUFA-100807/LUFA/Drivers/USB/Class/Device/../../HighLevel/../LowLevel/Endpoint.h **** 			 *
 689:LUFA-100807/LUFA/Drivers/USB/Class/Device/../../HighLevel/../LowLevel/Endpoint.h **** 			 *  \ingroup Group_EndpointPrimitiveRW
 690:LUFA-100807/LUFA/Drivers/USB/Class/Device/../../HighLevel/../LowLevel/Endpoint.h **** 			 *
 691:LUFA-100807/LUFA/Drivers/USB/Class/Device/../../HighLevel/../LowLevel/Endpoint.h **** 			 *  \return Next double word in the currently selected endpoint's FIFO buffer.
 692:LUFA-100807/LUFA/Drivers/USB/Class/Device/../../HighLevel/../LowLevel/Endpoint.h **** 			 */
 693:LUFA-100807/LUFA/Drivers/USB/Class/Device/../../HighLevel/../LowLevel/Endpoint.h **** 			static inline uint32_t Endpoint_Read_DWord_BE(void) ATTR_WARN_UNUSED_RESULT ATTR_ALWAYS_INLINE;
 694:LUFA-100807/LUFA/Drivers/USB/Class/Device/../../HighLevel/../LowLevel/Endpoint.h **** 			static inline uint32_t Endpoint_Read_DWord_BE(void)
 695:LUFA-100807/LUFA/Drivers/USB/Class/Device/../../HighLevel/../LowLevel/Endpoint.h **** 			{
 696:LUFA-100807/LUFA/Drivers/USB/Class/Device/../../HighLevel/../LowLevel/Endpoint.h **** 				union
 697:LUFA-100807/LUFA/Drivers/USB/Class/Device/../../HighLevel/../LowLevel/Endpoint.h **** 				{
 698:LUFA-100807/LUFA/Drivers/USB/Class/Device/../../HighLevel/../LowLevel/Endpoint.h **** 					uint32_t DWord;
 699:LUFA-100807/LUFA/Drivers/USB/Class/Device/../../HighLevel/../LowLevel/Endpoint.h **** 					uint8_t  Bytes[4];
 700:LUFA-100807/LUFA/Drivers/USB/Class/Device/../../HighLevel/../LowLevel/Endpoint.h **** 				} Data;
 701:LUFA-100807/LUFA/Drivers/USB/Class/Device/../../HighLevel/../LowLevel/Endpoint.h **** 				
 702:LUFA-100807/LUFA/Drivers/USB/Class/Device/../../HighLevel/../LowLevel/Endpoint.h **** 				Data.Bytes[3] = UEDATX;
 703:LUFA-100807/LUFA/Drivers/USB/Class/Device/../../HighLevel/../LowLevel/Endpoint.h **** 				Data.Bytes[2] = UEDATX;
 704:LUFA-100807/LUFA/Drivers/USB/Class/Device/../../HighLevel/../LowLevel/Endpoint.h **** 				Data.Bytes[1] = UEDATX;
 705:LUFA-100807/LUFA/Drivers/USB/Class/Device/../../HighLevel/../LowLevel/Endpoint.h **** 				Data.Bytes[0] = UEDATX;
 706:LUFA-100807/LUFA/Drivers/USB/Class/Device/../../HighLevel/../LowLevel/Endpoint.h **** 			
 707:LUFA-100807/LUFA/Drivers/USB/Class/Device/../../HighLevel/../LowLevel/Endpoint.h **** 				return Data.DWord;
 708:LUFA-100807/LUFA/Drivers/USB/Class/Device/../../HighLevel/../LowLevel/Endpoint.h **** 			}
 709:LUFA-100807/LUFA/Drivers/USB/Class/Device/../../HighLevel/../LowLevel/Endpoint.h **** 
 710:LUFA-100807/LUFA/Drivers/USB/Class/Device/../../HighLevel/../LowLevel/Endpoint.h **** 			/** Writes four bytes to the currently selected endpoint's bank in little endian format, for IN
 711:LUFA-100807/LUFA/Drivers/USB/Class/Device/../../HighLevel/../LowLevel/Endpoint.h **** 			 *  direction endpoints.
 712:LUFA-100807/LUFA/Drivers/USB/Class/Device/../../HighLevel/../LowLevel/Endpoint.h **** 			 *
 713:LUFA-100807/LUFA/Drivers/USB/Class/Device/../../HighLevel/../LowLevel/Endpoint.h **** 			 *  \ingroup Group_EndpointPrimitiveRW
 714:LUFA-100807/LUFA/Drivers/USB/Class/Device/../../HighLevel/../LowLevel/Endpoint.h **** 			 *
 715:LUFA-100807/LUFA/Drivers/USB/Class/Device/../../HighLevel/../LowLevel/Endpoint.h **** 			 *  \param[in] DWord  Next double word to write to the currently selected endpoint's FIFO buffer
 716:LUFA-100807/LUFA/Drivers/USB/Class/Device/../../HighLevel/../LowLevel/Endpoint.h **** 			 */
 717:LUFA-100807/LUFA/Drivers/USB/Class/Device/../../HighLevel/../LowLevel/Endpoint.h **** 			static inline void Endpoint_Write_DWord_LE(const uint32_t DWord) ATTR_ALWAYS_INLINE;
 718:LUFA-100807/LUFA/Drivers/USB/Class/Device/../../HighLevel/../LowLevel/Endpoint.h **** 			static inline void Endpoint_Write_DWord_LE(const uint32_t DWord)
 719:LUFA-100807/LUFA/Drivers/USB/Class/Device/../../HighLevel/../LowLevel/Endpoint.h **** 			{
 720:LUFA-100807/LUFA/Drivers/USB/Class/Device/../../HighLevel/../LowLevel/Endpoint.h **** 				UEDATX = (DWord &  0xFF);
 721:LUFA-100807/LUFA/Drivers/USB/Class/Device/../../HighLevel/../LowLevel/Endpoint.h **** 				UEDATX = (DWord >> 8);
 722:LUFA-100807/LUFA/Drivers/USB/Class/Device/../../HighLevel/../LowLevel/Endpoint.h **** 				UEDATX = (DWord >> 16);
 723:LUFA-100807/LUFA/Drivers/USB/Class/Device/../../HighLevel/../LowLevel/Endpoint.h **** 				UEDATX = (DWord >> 24);
 724:LUFA-100807/LUFA/Drivers/USB/Class/Device/../../HighLevel/../LowLevel/Endpoint.h **** 			}
 725:LUFA-100807/LUFA/Drivers/USB/Class/Device/../../HighLevel/../LowLevel/Endpoint.h **** 			
 726:LUFA-100807/LUFA/Drivers/USB/Class/Device/../../HighLevel/../LowLevel/Endpoint.h **** 			/** Writes four bytes to the currently selected endpoint's bank in big endian format, for IN
 727:LUFA-100807/LUFA/Drivers/USB/Class/Device/../../HighLevel/../LowLevel/Endpoint.h **** 			 *  direction endpoints.
 728:LUFA-100807/LUFA/Drivers/USB/Class/Device/../../HighLevel/../LowLevel/Endpoint.h **** 			 *
 729:LUFA-100807/LUFA/Drivers/USB/Class/Device/../../HighLevel/../LowLevel/Endpoint.h **** 			 *  \ingroup Group_EndpointPrimitiveRW
 730:LUFA-100807/LUFA/Drivers/USB/Class/Device/../../HighLevel/../LowLevel/Endpoint.h **** 			 *
 731:LUFA-100807/LUFA/Drivers/USB/Class/Device/../../HighLevel/../LowLevel/Endpoint.h **** 			 *  \param[in] DWord  Next double word to write to the currently selected endpoint's FIFO buffer
 732:LUFA-100807/LUFA/Drivers/USB/Class/Device/../../HighLevel/../LowLevel/Endpoint.h **** 			 */
 733:LUFA-100807/LUFA/Drivers/USB/Class/Device/../../HighLevel/../LowLevel/Endpoint.h **** 			static inline void Endpoint_Write_DWord_BE(const uint32_t DWord) ATTR_ALWAYS_INLINE;
 734:LUFA-100807/LUFA/Drivers/USB/Class/Device/../../HighLevel/../LowLevel/Endpoint.h **** 			static inline void Endpoint_Write_DWord_BE(const uint32_t DWord)
 735:LUFA-100807/LUFA/Drivers/USB/Class/Device/../../HighLevel/../LowLevel/Endpoint.h **** 			{
 736:LUFA-100807/LUFA/Drivers/USB/Class/Device/../../HighLevel/../LowLevel/Endpoint.h **** 				UEDATX = (DWord >> 24);
 737:LUFA-100807/LUFA/Drivers/USB/Class/Device/../../HighLevel/../LowLevel/Endpoint.h **** 				UEDATX = (DWord >> 16);
 738:LUFA-100807/LUFA/Drivers/USB/Class/Device/../../HighLevel/../LowLevel/Endpoint.h **** 				UEDATX = (DWord >> 8);
 739:LUFA-100807/LUFA/Drivers/USB/Class/Device/../../HighLevel/../LowLevel/Endpoint.h **** 				UEDATX = (DWord &  0xFF);
 740:LUFA-100807/LUFA/Drivers/USB/Class/Device/../../HighLevel/../LowLevel/Endpoint.h **** 			}
 741:LUFA-100807/LUFA/Drivers/USB/Class/Device/../../HighLevel/../LowLevel/Endpoint.h **** 
 742:LUFA-100807/LUFA/Drivers/USB/Class/Device/../../HighLevel/../LowLevel/Endpoint.h **** 			/** Discards four bytes from the currently selected endpoint's bank, for OUT direction endpoints
 743:LUFA-100807/LUFA/Drivers/USB/Class/Device/../../HighLevel/../LowLevel/Endpoint.h **** 			 *
 744:LUFA-100807/LUFA/Drivers/USB/Class/Device/../../HighLevel/../LowLevel/Endpoint.h **** 			 *  \ingroup Group_EndpointPrimitiveRW
 745:LUFA-100807/LUFA/Drivers/USB/Class/Device/../../HighLevel/../LowLevel/Endpoint.h **** 			 */
 746:LUFA-100807/LUFA/Drivers/USB/Class/Device/../../HighLevel/../LowLevel/Endpoint.h **** 			static inline void Endpoint_Discard_DWord(void) ATTR_ALWAYS_INLINE;
 747:LUFA-100807/LUFA/Drivers/USB/Class/Device/../../HighLevel/../LowLevel/Endpoint.h **** 			static inline void Endpoint_Discard_DWord(void)
 748:LUFA-100807/LUFA/Drivers/USB/Class/Device/../../HighLevel/../LowLevel/Endpoint.h **** 			{
 749:LUFA-100807/LUFA/Drivers/USB/Class/Device/../../HighLevel/../LowLevel/Endpoint.h **** 				uint8_t Dummy;
 750:LUFA-100807/LUFA/Drivers/USB/Class/Device/../../HighLevel/../LowLevel/Endpoint.h **** 				
 751:LUFA-100807/LUFA/Drivers/USB/Class/Device/../../HighLevel/../LowLevel/Endpoint.h **** 				Dummy = UEDATX;
 752:LUFA-100807/LUFA/Drivers/USB/Class/Device/../../HighLevel/../LowLevel/Endpoint.h **** 				Dummy = UEDATX;
 753:LUFA-100807/LUFA/Drivers/USB/Class/Device/../../HighLevel/../LowLevel/Endpoint.h **** 				Dummy = UEDATX;
 754:LUFA-100807/LUFA/Drivers/USB/Class/Device/../../HighLevel/../LowLevel/Endpoint.h **** 				Dummy = UEDATX;
 755:LUFA-100807/LUFA/Drivers/USB/Class/Device/../../HighLevel/../LowLevel/Endpoint.h **** 			}
 756:LUFA-100807/LUFA/Drivers/USB/Class/Device/../../HighLevel/../LowLevel/Endpoint.h **** 
 757:LUFA-100807/LUFA/Drivers/USB/Class/Device/../../HighLevel/../LowLevel/Endpoint.h **** 		/* External Variables: */
 758:LUFA-100807/LUFA/Drivers/USB/Class/Device/../../HighLevel/../LowLevel/Endpoint.h **** 			/** Global indicating the maximum packet size of the default control endpoint located at address
 759:LUFA-100807/LUFA/Drivers/USB/Class/Device/../../HighLevel/../LowLevel/Endpoint.h **** 			 *  0 in the device. This value is set to the value indicated in the device descriptor in the us
 760:LUFA-100807/LUFA/Drivers/USB/Class/Device/../../HighLevel/../LowLevel/Endpoint.h **** 			 *  project once the USB interface is initialized into device mode.
 761:LUFA-100807/LUFA/Drivers/USB/Class/Device/../../HighLevel/../LowLevel/Endpoint.h **** 			 *
 762:LUFA-100807/LUFA/Drivers/USB/Class/Device/../../HighLevel/../LowLevel/Endpoint.h **** 			 *  If space is an issue, it is possible to fix this to a static value by defining the control
 763:LUFA-100807/LUFA/Drivers/USB/Class/Device/../../HighLevel/../LowLevel/Endpoint.h **** 			 *  endpoint size in the FIXED_CONTROL_ENDPOINT_SIZE token passed to the compiler in the makefil
 764:LUFA-100807/LUFA/Drivers/USB/Class/Device/../../HighLevel/../LowLevel/Endpoint.h **** 			 *  via the -D switch. When a fixed control endpoint size is used, the size is no longer dynamic
 765:LUFA-100807/LUFA/Drivers/USB/Class/Device/../../HighLevel/../LowLevel/Endpoint.h **** 			 *  read from the descriptors at runtime and instead fixed to the given value. When used, it is
 766:LUFA-100807/LUFA/Drivers/USB/Class/Device/../../HighLevel/../LowLevel/Endpoint.h **** 			 *  important that the descriptor control endpoint size value matches the size given as the
 767:LUFA-100807/LUFA/Drivers/USB/Class/Device/../../HighLevel/../LowLevel/Endpoint.h **** 			 *  FIXED_CONTROL_ENDPOINT_SIZE token - it is recommended that the FIXED_CONTROL_ENDPOINT_SIZE t
 768:LUFA-100807/LUFA/Drivers/USB/Class/Device/../../HighLevel/../LowLevel/Endpoint.h **** 			 *  be used in the descriptors to ensure this.
 769:LUFA-100807/LUFA/Drivers/USB/Class/Device/../../HighLevel/../LowLevel/Endpoint.h **** 			 *
 770:LUFA-100807/LUFA/Drivers/USB/Class/Device/../../HighLevel/../LowLevel/Endpoint.h **** 			 *  \note This variable should be treated as read-only in the user application, and never manual
 771:LUFA-100807/LUFA/Drivers/USB/Class/Device/../../HighLevel/../LowLevel/Endpoint.h **** 			 *        changed in value.
 772:LUFA-100807/LUFA/Drivers/USB/Class/Device/../../HighLevel/../LowLevel/Endpoint.h **** 			 */
 773:LUFA-100807/LUFA/Drivers/USB/Class/Device/../../HighLevel/../LowLevel/Endpoint.h **** 			#if (!defined(FIXED_CONTROL_ENDPOINT_SIZE) || defined(__DOXYGEN__))
 774:LUFA-100807/LUFA/Drivers/USB/Class/Device/../../HighLevel/../LowLevel/Endpoint.h **** 				extern uint8_t USB_ControlEndpointSize;
 775:LUFA-100807/LUFA/Drivers/USB/Class/Device/../../HighLevel/../LowLevel/Endpoint.h **** 			#else
 776:LUFA-100807/LUFA/Drivers/USB/Class/Device/../../HighLevel/../LowLevel/Endpoint.h **** 				#define USB_ControlEndpointSize FIXED_CONTROL_ENDPOINT_SIZE
 777:LUFA-100807/LUFA/Drivers/USB/Class/Device/../../HighLevel/../LowLevel/Endpoint.h **** 			#endif
 778:LUFA-100807/LUFA/Drivers/USB/Class/Device/../../HighLevel/../LowLevel/Endpoint.h **** 
 779:LUFA-100807/LUFA/Drivers/USB/Class/Device/../../HighLevel/../LowLevel/Endpoint.h **** 		/* Function Prototypes: */
 780:LUFA-100807/LUFA/Drivers/USB/Class/Device/../../HighLevel/../LowLevel/Endpoint.h **** 			#if !defined(NO_STREAM_CALLBACKS) || defined(__DOXYGEN__)
 781:LUFA-100807/LUFA/Drivers/USB/Class/Device/../../HighLevel/../LowLevel/Endpoint.h **** 				#define __CALLBACK_PARAM     , StreamCallbackPtr_t Callback
 782:LUFA-100807/LUFA/Drivers/USB/Class/Device/../../HighLevel/../LowLevel/Endpoint.h **** 			#else
 783:LUFA-100807/LUFA/Drivers/USB/Class/Device/../../HighLevel/../LowLevel/Endpoint.h **** 				#define __CALLBACK_PARAM
 784:LUFA-100807/LUFA/Drivers/USB/Class/Device/../../HighLevel/../LowLevel/Endpoint.h **** 			#endif
 785:LUFA-100807/LUFA/Drivers/USB/Class/Device/../../HighLevel/../LowLevel/Endpoint.h **** 		
 786:LUFA-100807/LUFA/Drivers/USB/Class/Device/../../HighLevel/../LowLevel/Endpoint.h **** 			/** Configures the specified endpoint number with the given endpoint type, direction, bank size
 787:LUFA-100807/LUFA/Drivers/USB/Class/Device/../../HighLevel/../LowLevel/Endpoint.h **** 			 *  and banking mode. Endpoints should be allocated in ascending order by their address in the
 788:LUFA-100807/LUFA/Drivers/USB/Class/Device/../../HighLevel/../LowLevel/Endpoint.h **** 			 *  device (i.e. endpoint 1 should be configured before endpoint 2 and so on) to prevent fragmen
 789:LUFA-100807/LUFA/Drivers/USB/Class/Device/../../HighLevel/../LowLevel/Endpoint.h **** 			 *  of the USB FIFO memory.
 790:LUFA-100807/LUFA/Drivers/USB/Class/Device/../../HighLevel/../LowLevel/Endpoint.h **** 			 *
 791:LUFA-100807/LUFA/Drivers/USB/Class/Device/../../HighLevel/../LowLevel/Endpoint.h **** 			 *  The endpoint type may be one of the EP_TYPE_* macros listed in LowLevel.h and the direction
 792:LUFA-100807/LUFA/Drivers/USB/Class/Device/../../HighLevel/../LowLevel/Endpoint.h **** 			 *  may be either \ref ENDPOINT_DIR_OUT or \ref ENDPOINT_DIR_IN.
 793:LUFA-100807/LUFA/Drivers/USB/Class/Device/../../HighLevel/../LowLevel/Endpoint.h **** 			 *
 794:LUFA-100807/LUFA/Drivers/USB/Class/Device/../../HighLevel/../LowLevel/Endpoint.h **** 			 *  The bank size must indicate the maximum packet size that the endpoint can handle. Different
 795:LUFA-100807/LUFA/Drivers/USB/Class/Device/../../HighLevel/../LowLevel/Endpoint.h **** 			 *  endpoint numbers can handle different maximum packet sizes - refer to the chosen USB AVR's
 796:LUFA-100807/LUFA/Drivers/USB/Class/Device/../../HighLevel/../LowLevel/Endpoint.h **** 			 *  datasheet to determine the maximum bank size for each endpoint.
 797:LUFA-100807/LUFA/Drivers/USB/Class/Device/../../HighLevel/../LowLevel/Endpoint.h **** 			 *
 798:LUFA-100807/LUFA/Drivers/USB/Class/Device/../../HighLevel/../LowLevel/Endpoint.h **** 			 *  The banking mode may be either \ref ENDPOINT_BANK_SINGLE or \ref ENDPOINT_BANK_DOUBLE.
 799:LUFA-100807/LUFA/Drivers/USB/Class/Device/../../HighLevel/../LowLevel/Endpoint.h **** 			 *
 800:LUFA-100807/LUFA/Drivers/USB/Class/Device/../../HighLevel/../LowLevel/Endpoint.h **** 			 *  \note The default control endpoint should not be manually configured by the user application
 801:LUFA-100807/LUFA/Drivers/USB/Class/Device/../../HighLevel/../LowLevel/Endpoint.h **** 			 *        it is automatically configured by the library internally.
 802:LUFA-100807/LUFA/Drivers/USB/Class/Device/../../HighLevel/../LowLevel/Endpoint.h **** 			 *        \n\n
 803:LUFA-100807/LUFA/Drivers/USB/Class/Device/../../HighLevel/../LowLevel/Endpoint.h **** 			 *
 804:LUFA-100807/LUFA/Drivers/USB/Class/Device/../../HighLevel/../LowLevel/Endpoint.h **** 			 *  \note This routine will select the specified endpoint, and the endpoint will remain selected
 805:LUFA-100807/LUFA/Drivers/USB/Class/Device/../../HighLevel/../LowLevel/Endpoint.h **** 			 *        once the routine completes regardless of if the endpoint configuration succeeds.
 806:LUFA-100807/LUFA/Drivers/USB/Class/Device/../../HighLevel/../LowLevel/Endpoint.h **** 			 *
 807:LUFA-100807/LUFA/Drivers/USB/Class/Device/../../HighLevel/../LowLevel/Endpoint.h **** 			 *  \return Boolean true if the configuration succeeded, false otherwise.
 808:LUFA-100807/LUFA/Drivers/USB/Class/Device/../../HighLevel/../LowLevel/Endpoint.h **** 			 */
 809:LUFA-100807/LUFA/Drivers/USB/Class/Device/../../HighLevel/../LowLevel/Endpoint.h **** 			bool Endpoint_ConfigureEndpoint(const uint8_t  Number,
 810:LUFA-100807/LUFA/Drivers/USB/Class/Device/../../HighLevel/../LowLevel/Endpoint.h **** 			                                const uint8_t Type,
 811:LUFA-100807/LUFA/Drivers/USB/Class/Device/../../HighLevel/../LowLevel/Endpoint.h **** 			                                const uint8_t Direction,
 812:LUFA-100807/LUFA/Drivers/USB/Class/Device/../../HighLevel/../LowLevel/Endpoint.h **** 			                                const uint16_t Size,
 813:LUFA-100807/LUFA/Drivers/USB/Class/Device/../../HighLevel/../LowLevel/Endpoint.h **** 			                                const uint8_t Banks);
 814:LUFA-100807/LUFA/Drivers/USB/Class/Device/../../HighLevel/../LowLevel/Endpoint.h **** 
 815:LUFA-100807/LUFA/Drivers/USB/Class/Device/../../HighLevel/../LowLevel/Endpoint.h **** 			/** Spin-loops until the currently selected non-control endpoint is ready for the next packet of
 816:LUFA-100807/LUFA/Drivers/USB/Class/Device/../../HighLevel/../LowLevel/Endpoint.h **** 			 *  to be read or written to it.
 817:LUFA-100807/LUFA/Drivers/USB/Class/Device/../../HighLevel/../LowLevel/Endpoint.h **** 			 *
 818:LUFA-100807/LUFA/Drivers/USB/Class/Device/../../HighLevel/../LowLevel/Endpoint.h **** 			 *  \note This routine should not be called on CONTROL type endpoints.
 819:LUFA-100807/LUFA/Drivers/USB/Class/Device/../../HighLevel/../LowLevel/Endpoint.h **** 			 *
 820:LUFA-100807/LUFA/Drivers/USB/Class/Device/../../HighLevel/../LowLevel/Endpoint.h **** 			 *  \ingroup Group_EndpointRW
 821:LUFA-100807/LUFA/Drivers/USB/Class/Device/../../HighLevel/../LowLevel/Endpoint.h **** 			 *
 822:LUFA-100807/LUFA/Drivers/USB/Class/Device/../../HighLevel/../LowLevel/Endpoint.h **** 			 *  \return A value from the \ref Endpoint_WaitUntilReady_ErrorCodes_t enum.
 823:LUFA-100807/LUFA/Drivers/USB/Class/Device/../../HighLevel/../LowLevel/Endpoint.h **** 			 */
 824:LUFA-100807/LUFA/Drivers/USB/Class/Device/../../HighLevel/../LowLevel/Endpoint.h **** 			uint8_t Endpoint_WaitUntilReady(void);
 825:LUFA-100807/LUFA/Drivers/USB/Class/Device/../../HighLevel/../LowLevel/Endpoint.h **** 			
 826:LUFA-100807/LUFA/Drivers/USB/Class/Device/../../HighLevel/../LowLevel/Endpoint.h **** 			/** Completes the status stage of a control transfer on a CONTROL type endpoint automatically,
 827:LUFA-100807/LUFA/Drivers/USB/Class/Device/../../HighLevel/../LowLevel/Endpoint.h **** 			 *  with respect to the data direction. This is a convenience function which can be used to
 828:LUFA-100807/LUFA/Drivers/USB/Class/Device/../../HighLevel/../LowLevel/Endpoint.h **** 			 *  simplify user control request handling.
 829:LUFA-100807/LUFA/Drivers/USB/Class/Device/../../HighLevel/../LowLevel/Endpoint.h **** 			 */
 830:LUFA-100807/LUFA/Drivers/USB/Class/Device/../../HighLevel/../LowLevel/Endpoint.h **** 			void Endpoint_ClearStatusStage(void);
 831:LUFA-100807/LUFA/Drivers/USB/Class/Device/../../HighLevel/../LowLevel/Endpoint.h **** 
 832:LUFA-100807/LUFA/Drivers/USB/Class/Device/../../HighLevel/../LowLevel/Endpoint.h **** 			/** Reads and discards the given number of bytes from the endpoint from the given buffer,
 833:LUFA-100807/LUFA/Drivers/USB/Class/Device/../../HighLevel/../LowLevel/Endpoint.h **** 			 *  discarding fully read packets from the host as needed. The last packet is not automatically
 834:LUFA-100807/LUFA/Drivers/USB/Class/Device/../../HighLevel/../LowLevel/Endpoint.h **** 			 *  discarded once the remaining bytes has been read; the user is responsible for manually
 835:LUFA-100807/LUFA/Drivers/USB/Class/Device/../../HighLevel/../LowLevel/Endpoint.h **** 			 *  discarding the last packet from the host via the \ref Endpoint_ClearOUT() macro. Between
 836:LUFA-100807/LUFA/Drivers/USB/Class/Device/../../HighLevel/../LowLevel/Endpoint.h **** 			 *  each USB packet, the given stream callback function is executed repeatedly until the next
 837:LUFA-100807/LUFA/Drivers/USB/Class/Device/../../HighLevel/../LowLevel/Endpoint.h **** 			 *  packet is ready, allowing for early aborts of stream transfers.
 838:LUFA-100807/LUFA/Drivers/USB/Class/Device/../../HighLevel/../LowLevel/Endpoint.h **** 			 *
 839:LUFA-100807/LUFA/Drivers/USB/Class/Device/../../HighLevel/../LowLevel/Endpoint.h **** 			 *	The callback routine should be created according to the information in \ref Group_StreamCallb
 840:LUFA-100807/LUFA/Drivers/USB/Class/Device/../../HighLevel/../LowLevel/Endpoint.h **** 			 *  If the token NO_STREAM_CALLBACKS is passed via the -D option to the compiler, stream callbac
 841:LUFA-100807/LUFA/Drivers/USB/Class/Device/../../HighLevel/../LowLevel/Endpoint.h **** 			 *  disabled and this function has the Callback parameter omitted.
 842:LUFA-100807/LUFA/Drivers/USB/Class/Device/../../HighLevel/../LowLevel/Endpoint.h **** 			 *
 843:LUFA-100807/LUFA/Drivers/USB/Class/Device/../../HighLevel/../LowLevel/Endpoint.h **** 			 *  \note This routine should not be used on CONTROL type endpoints.
 844:LUFA-100807/LUFA/Drivers/USB/Class/Device/../../HighLevel/../LowLevel/Endpoint.h **** 			 *
 845:LUFA-100807/LUFA/Drivers/USB/Class/Device/../../HighLevel/../LowLevel/Endpoint.h **** 			 *  \ingroup Group_EndpointStreamRW
 846:LUFA-100807/LUFA/Drivers/USB/Class/Device/../../HighLevel/../LowLevel/Endpoint.h **** 			 *
 847:LUFA-100807/LUFA/Drivers/USB/Class/Device/../../HighLevel/../LowLevel/Endpoint.h **** 			 *  \param[in] Length    Number of bytes to send via the currently selected endpoint.
 848:LUFA-100807/LUFA/Drivers/USB/Class/Device/../../HighLevel/../LowLevel/Endpoint.h **** 			 *  \param[in] Callback  Name of a callback routine to call between successive USB packet transf
 849:LUFA-100807/LUFA/Drivers/USB/Class/Device/../../HighLevel/../LowLevel/Endpoint.h **** 			 *
 850:LUFA-100807/LUFA/Drivers/USB/Class/Device/../../HighLevel/../LowLevel/Endpoint.h **** 			 *  \return A value from the \ref Endpoint_Stream_RW_ErrorCodes_t enum.
 851:LUFA-100807/LUFA/Drivers/USB/Class/Device/../../HighLevel/../LowLevel/Endpoint.h **** 			 */
 852:LUFA-100807/LUFA/Drivers/USB/Class/Device/../../HighLevel/../LowLevel/Endpoint.h **** 			uint8_t Endpoint_Discard_Stream(uint16_t Length
 853:LUFA-100807/LUFA/Drivers/USB/Class/Device/../../HighLevel/../LowLevel/Endpoint.h **** 			                                __CALLBACK_PARAM);
 854:LUFA-100807/LUFA/Drivers/USB/Class/Device/../../HighLevel/../LowLevel/Endpoint.h **** 
 855:LUFA-100807/LUFA/Drivers/USB/Class/Device/../../HighLevel/../LowLevel/Endpoint.h **** 			/** Writes the given number of bytes to the endpoint from the given buffer in little endian,
 856:LUFA-100807/LUFA/Drivers/USB/Class/Device/../../HighLevel/../LowLevel/Endpoint.h **** 			 *  sending full packets to the host as needed. The last packet filled is not automatically sent
 857:LUFA-100807/LUFA/Drivers/USB/Class/Device/../../HighLevel/../LowLevel/Endpoint.h **** 			 *  the user is responsible for manually sending the last written packet to the host via the
 858:LUFA-100807/LUFA/Drivers/USB/Class/Device/../../HighLevel/../LowLevel/Endpoint.h **** 			 *  \ref Endpoint_ClearIN() macro. Between each USB packet, the given stream callback function
 859:LUFA-100807/LUFA/Drivers/USB/Class/Device/../../HighLevel/../LowLevel/Endpoint.h **** 			 *  is executed repeatedly until the endpoint is ready to accept the next packet, allowing for e
 860:LUFA-100807/LUFA/Drivers/USB/Class/Device/../../HighLevel/../LowLevel/Endpoint.h **** 			 *  aborts of stream transfers.
 861:LUFA-100807/LUFA/Drivers/USB/Class/Device/../../HighLevel/../LowLevel/Endpoint.h **** 			 *
 862:LUFA-100807/LUFA/Drivers/USB/Class/Device/../../HighLevel/../LowLevel/Endpoint.h **** 			 *	The callback routine should be created according to the information in \ref Group_StreamCallb
 863:LUFA-100807/LUFA/Drivers/USB/Class/Device/../../HighLevel/../LowLevel/Endpoint.h **** 			 *  If the token NO_STREAM_CALLBACKS is passed via the -D option to the compiler, stream callbac
 864:LUFA-100807/LUFA/Drivers/USB/Class/Device/../../HighLevel/../LowLevel/Endpoint.h **** 			 *  disabled and this function has the Callback parameter omitted.
 865:LUFA-100807/LUFA/Drivers/USB/Class/Device/../../HighLevel/../LowLevel/Endpoint.h **** 			 *
 866:LUFA-100807/LUFA/Drivers/USB/Class/Device/../../HighLevel/../LowLevel/Endpoint.h **** 			 *  \note This routine should not be used on CONTROL type endpoints.
 867:LUFA-100807/LUFA/Drivers/USB/Class/Device/../../HighLevel/../LowLevel/Endpoint.h **** 			 *
 868:LUFA-100807/LUFA/Drivers/USB/Class/Device/../../HighLevel/../LowLevel/Endpoint.h **** 			 *  \ingroup Group_EndpointStreamRW
 869:LUFA-100807/LUFA/Drivers/USB/Class/Device/../../HighLevel/../LowLevel/Endpoint.h **** 			 *
 870:LUFA-100807/LUFA/Drivers/USB/Class/Device/../../HighLevel/../LowLevel/Endpoint.h **** 			 *  \param[in] Buffer    Pointer to the source data buffer to read from.
 871:LUFA-100807/LUFA/Drivers/USB/Class/Device/../../HighLevel/../LowLevel/Endpoint.h **** 			 *  \param[in] Length    Number of bytes to read for the currently selected endpoint into the bu
 872:LUFA-100807/LUFA/Drivers/USB/Class/Device/../../HighLevel/../LowLevel/Endpoint.h **** 			 *  \param[in] Callback  Name of a callback routine to call between successive USB packet transf
 873:LUFA-100807/LUFA/Drivers/USB/Class/Device/../../HighLevel/../LowLevel/Endpoint.h **** 			 *
 874:LUFA-100807/LUFA/Drivers/USB/Class/Device/../../HighLevel/../LowLevel/Endpoint.h **** 			 *  \return A value from the \ref Endpoint_Stream_RW_ErrorCodes_t enum.
 875:LUFA-100807/LUFA/Drivers/USB/Class/Device/../../HighLevel/../LowLevel/Endpoint.h **** 			 */
 876:LUFA-100807/LUFA/Drivers/USB/Class/Device/../../HighLevel/../LowLevel/Endpoint.h **** 			uint8_t Endpoint_Write_Stream_LE(const void* Buffer,
 877:LUFA-100807/LUFA/Drivers/USB/Class/Device/../../HighLevel/../LowLevel/Endpoint.h **** 			                                 uint16_t Length
 878:LUFA-100807/LUFA/Drivers/USB/Class/Device/../../HighLevel/../LowLevel/Endpoint.h **** 			                                 __CALLBACK_PARAM) ATTR_NON_NULL_PTR_ARG(1);
 879:LUFA-100807/LUFA/Drivers/USB/Class/Device/../../HighLevel/../LowLevel/Endpoint.h **** 
 880:LUFA-100807/LUFA/Drivers/USB/Class/Device/../../HighLevel/../LowLevel/Endpoint.h **** 			/** EEPROM buffer source version of \ref Endpoint_Write_Stream_LE().
 881:LUFA-100807/LUFA/Drivers/USB/Class/Device/../../HighLevel/../LowLevel/Endpoint.h **** 			 *
 882:LUFA-100807/LUFA/Drivers/USB/Class/Device/../../HighLevel/../LowLevel/Endpoint.h **** 			 *  \ingroup Group_EndpointStreamRW
 883:LUFA-100807/LUFA/Drivers/USB/Class/Device/../../HighLevel/../LowLevel/Endpoint.h **** 			 *
 884:LUFA-100807/LUFA/Drivers/USB/Class/Device/../../HighLevel/../LowLevel/Endpoint.h **** 			 *  \param[in] Buffer    Pointer to the source data buffer to read from.
 885:LUFA-100807/LUFA/Drivers/USB/Class/Device/../../HighLevel/../LowLevel/Endpoint.h **** 			 *  \param[in] Length    Number of bytes to read for the currently selected endpoint into the bu
 886:LUFA-100807/LUFA/Drivers/USB/Class/Device/../../HighLevel/../LowLevel/Endpoint.h **** 			 *  \param[in] Callback  Name of a callback routine to call between successive USB packet transf
 887:LUFA-100807/LUFA/Drivers/USB/Class/Device/../../HighLevel/../LowLevel/Endpoint.h **** 			 *
 888:LUFA-100807/LUFA/Drivers/USB/Class/Device/../../HighLevel/../LowLevel/Endpoint.h **** 			 *  \return A value from the \ref Endpoint_Stream_RW_ErrorCodes_t enum.
 889:LUFA-100807/LUFA/Drivers/USB/Class/Device/../../HighLevel/../LowLevel/Endpoint.h **** 			 */
 890:LUFA-100807/LUFA/Drivers/USB/Class/Device/../../HighLevel/../LowLevel/Endpoint.h **** 			uint8_t Endpoint_Write_EStream_LE(const void* Buffer,
 891:LUFA-100807/LUFA/Drivers/USB/Class/Device/../../HighLevel/../LowLevel/Endpoint.h **** 			                                  uint16_t Length
 892:LUFA-100807/LUFA/Drivers/USB/Class/Device/../../HighLevel/../LowLevel/Endpoint.h **** 			                                  __CALLBACK_PARAM) ATTR_NON_NULL_PTR_ARG(1);
 893:LUFA-100807/LUFA/Drivers/USB/Class/Device/../../HighLevel/../LowLevel/Endpoint.h **** 
 894:LUFA-100807/LUFA/Drivers/USB/Class/Device/../../HighLevel/../LowLevel/Endpoint.h **** 			/** FLASH buffer source version of \ref Endpoint_Write_Stream_LE().
 895:LUFA-100807/LUFA/Drivers/USB/Class/Device/../../HighLevel/../LowLevel/Endpoint.h **** 			 *
 896:LUFA-100807/LUFA/Drivers/USB/Class/Device/../../HighLevel/../LowLevel/Endpoint.h **** 			 *  \pre The FLASH data must be located in the first 64KB of FLASH for this function to work cor
 897:LUFA-100807/LUFA/Drivers/USB/Class/Device/../../HighLevel/../LowLevel/Endpoint.h **** 			 *
 898:LUFA-100807/LUFA/Drivers/USB/Class/Device/../../HighLevel/../LowLevel/Endpoint.h **** 			 *  \ingroup Group_EndpointStreamRW
 899:LUFA-100807/LUFA/Drivers/USB/Class/Device/../../HighLevel/../LowLevel/Endpoint.h **** 			 *
 900:LUFA-100807/LUFA/Drivers/USB/Class/Device/../../HighLevel/../LowLevel/Endpoint.h **** 			 *  \param[in] Buffer    Pointer to the source data buffer to read from.
 901:LUFA-100807/LUFA/Drivers/USB/Class/Device/../../HighLevel/../LowLevel/Endpoint.h **** 			 *  \param[in] Length    Number of bytes to read for the currently selected endpoint into the bu
 902:LUFA-100807/LUFA/Drivers/USB/Class/Device/../../HighLevel/../LowLevel/Endpoint.h **** 			 *  \param[in] Callback  Name of a callback routine to call between successive USB packet transf
 903:LUFA-100807/LUFA/Drivers/USB/Class/Device/../../HighLevel/../LowLevel/Endpoint.h **** 			 *
 904:LUFA-100807/LUFA/Drivers/USB/Class/Device/../../HighLevel/../LowLevel/Endpoint.h **** 			 *  \return A value from the \ref Endpoint_Stream_RW_ErrorCodes_t enum.
 905:LUFA-100807/LUFA/Drivers/USB/Class/Device/../../HighLevel/../LowLevel/Endpoint.h **** 			 */
 906:LUFA-100807/LUFA/Drivers/USB/Class/Device/../../HighLevel/../LowLevel/Endpoint.h **** 			uint8_t Endpoint_Write_PStream_LE(const void* Buffer,
 907:LUFA-100807/LUFA/Drivers/USB/Class/Device/../../HighLevel/../LowLevel/Endpoint.h **** 			                                  uint16_t Length
 908:LUFA-100807/LUFA/Drivers/USB/Class/Device/../../HighLevel/../LowLevel/Endpoint.h **** 			                                  __CALLBACK_PARAM) ATTR_NON_NULL_PTR_ARG(1);
 909:LUFA-100807/LUFA/Drivers/USB/Class/Device/../../HighLevel/../LowLevel/Endpoint.h **** 
 910:LUFA-100807/LUFA/Drivers/USB/Class/Device/../../HighLevel/../LowLevel/Endpoint.h **** 			/** Writes the given number of bytes to the endpoint from the given buffer in big endian,
 911:LUFA-100807/LUFA/Drivers/USB/Class/Device/../../HighLevel/../LowLevel/Endpoint.h **** 			 *  sending full packets to the host as needed. The last packet filled is not automatically sent
 912:LUFA-100807/LUFA/Drivers/USB/Class/Device/../../HighLevel/../LowLevel/Endpoint.h **** 			 *  the user is responsible for manually sending the last written packet to the host via the
 913:LUFA-100807/LUFA/Drivers/USB/Class/Device/../../HighLevel/../LowLevel/Endpoint.h **** 			 *  \ref Endpoint_ClearIN() macro. Between each USB packet, the given stream callback function
 914:LUFA-100807/LUFA/Drivers/USB/Class/Device/../../HighLevel/../LowLevel/Endpoint.h **** 			 *  is executed repeatedly until the endpoint is ready to accept the next packet, allowing for e
 915:LUFA-100807/LUFA/Drivers/USB/Class/Device/../../HighLevel/../LowLevel/Endpoint.h **** 			 *  aborts of stream transfers.
 916:LUFA-100807/LUFA/Drivers/USB/Class/Device/../../HighLevel/../LowLevel/Endpoint.h **** 			 *
 917:LUFA-100807/LUFA/Drivers/USB/Class/Device/../../HighLevel/../LowLevel/Endpoint.h **** 			 *	The callback routine should be created according to the information in \ref Group_StreamCallb
 918:LUFA-100807/LUFA/Drivers/USB/Class/Device/../../HighLevel/../LowLevel/Endpoint.h **** 			 *  If the token NO_STREAM_CALLBACKS is passed via the -D option to the compiler, stream callbac
 919:LUFA-100807/LUFA/Drivers/USB/Class/Device/../../HighLevel/../LowLevel/Endpoint.h **** 			 *  disabled and this function has the Callback parameter omitted.
 920:LUFA-100807/LUFA/Drivers/USB/Class/Device/../../HighLevel/../LowLevel/Endpoint.h **** 			 *
 921:LUFA-100807/LUFA/Drivers/USB/Class/Device/../../HighLevel/../LowLevel/Endpoint.h **** 			 *  \note This routine should not be used on CONTROL type endpoints.
 922:LUFA-100807/LUFA/Drivers/USB/Class/Device/../../HighLevel/../LowLevel/Endpoint.h **** 			 *
 923:LUFA-100807/LUFA/Drivers/USB/Class/Device/../../HighLevel/../LowLevel/Endpoint.h **** 			 *  \ingroup Group_EndpointStreamRW
 924:LUFA-100807/LUFA/Drivers/USB/Class/Device/../../HighLevel/../LowLevel/Endpoint.h **** 			 *
 925:LUFA-100807/LUFA/Drivers/USB/Class/Device/../../HighLevel/../LowLevel/Endpoint.h **** 			 *  \param[in] Buffer    Pointer to the source data buffer to read from.
 926:LUFA-100807/LUFA/Drivers/USB/Class/Device/../../HighLevel/../LowLevel/Endpoint.h **** 			 *  \param[in] Length    Number of bytes to read for the currently selected endpoint into the bu
 927:LUFA-100807/LUFA/Drivers/USB/Class/Device/../../HighLevel/../LowLevel/Endpoint.h **** 			 *  \param[in] Callback  Name of a callback routine to call between successive USB packet transf
 928:LUFA-100807/LUFA/Drivers/USB/Class/Device/../../HighLevel/../LowLevel/Endpoint.h **** 			 *
 929:LUFA-100807/LUFA/Drivers/USB/Class/Device/../../HighLevel/../LowLevel/Endpoint.h **** 			 *  \return A value from the \ref Endpoint_Stream_RW_ErrorCodes_t enum.
 930:LUFA-100807/LUFA/Drivers/USB/Class/Device/../../HighLevel/../LowLevel/Endpoint.h **** 			 */
 931:LUFA-100807/LUFA/Drivers/USB/Class/Device/../../HighLevel/../LowLevel/Endpoint.h **** 			uint8_t Endpoint_Write_Stream_BE(const void* Buffer,
 932:LUFA-100807/LUFA/Drivers/USB/Class/Device/../../HighLevel/../LowLevel/Endpoint.h **** 			                                 uint16_t Length
 933:LUFA-100807/LUFA/Drivers/USB/Class/Device/../../HighLevel/../LowLevel/Endpoint.h **** 			                                 __CALLBACK_PARAM) ATTR_NON_NULL_PTR_ARG(1);
 934:LUFA-100807/LUFA/Drivers/USB/Class/Device/../../HighLevel/../LowLevel/Endpoint.h **** 
 935:LUFA-100807/LUFA/Drivers/USB/Class/Device/../../HighLevel/../LowLevel/Endpoint.h **** 			/** EEPROM buffer source version of \ref Endpoint_Write_Stream_BE().
 936:LUFA-100807/LUFA/Drivers/USB/Class/Device/../../HighLevel/../LowLevel/Endpoint.h **** 			 *
 937:LUFA-100807/LUFA/Drivers/USB/Class/Device/../../HighLevel/../LowLevel/Endpoint.h **** 			 *  \ingroup Group_EndpointStreamRW
 938:LUFA-100807/LUFA/Drivers/USB/Class/Device/../../HighLevel/../LowLevel/Endpoint.h **** 			 *
 939:LUFA-100807/LUFA/Drivers/USB/Class/Device/../../HighLevel/../LowLevel/Endpoint.h **** 			 *  \param[in] Buffer    Pointer to the source data buffer to read from.
 940:LUFA-100807/LUFA/Drivers/USB/Class/Device/../../HighLevel/../LowLevel/Endpoint.h **** 			 *  \param[in] Length    Number of bytes to read for the currently selected endpoint into the bu
 941:LUFA-100807/LUFA/Drivers/USB/Class/Device/../../HighLevel/../LowLevel/Endpoint.h **** 			 *  \param[in] Callback  Name of a callback routine to call between successive USB packet transf
 942:LUFA-100807/LUFA/Drivers/USB/Class/Device/../../HighLevel/../LowLevel/Endpoint.h **** 			 *
 943:LUFA-100807/LUFA/Drivers/USB/Class/Device/../../HighLevel/../LowLevel/Endpoint.h **** 			 *  \return A value from the \ref Endpoint_Stream_RW_ErrorCodes_t enum.
 944:LUFA-100807/LUFA/Drivers/USB/Class/Device/../../HighLevel/../LowLevel/Endpoint.h **** 			 */
 945:LUFA-100807/LUFA/Drivers/USB/Class/Device/../../HighLevel/../LowLevel/Endpoint.h **** 			uint8_t Endpoint_Write_EStream_BE(const void* Buffer,
 946:LUFA-100807/LUFA/Drivers/USB/Class/Device/../../HighLevel/../LowLevel/Endpoint.h **** 			                                  uint16_t Length
 947:LUFA-100807/LUFA/Drivers/USB/Class/Device/../../HighLevel/../LowLevel/Endpoint.h **** 			                                  __CALLBACK_PARAM) ATTR_NON_NULL_PTR_ARG(1);
 948:LUFA-100807/LUFA/Drivers/USB/Class/Device/../../HighLevel/../LowLevel/Endpoint.h **** 
 949:LUFA-100807/LUFA/Drivers/USB/Class/Device/../../HighLevel/../LowLevel/Endpoint.h **** 			/** FLASH buffer source version of \ref Endpoint_Write_Stream_BE().
 950:LUFA-100807/LUFA/Drivers/USB/Class/Device/../../HighLevel/../LowLevel/Endpoint.h **** 			 *
 951:LUFA-100807/LUFA/Drivers/USB/Class/Device/../../HighLevel/../LowLevel/Endpoint.h **** 			 *  \pre The FLASH data must be located in the first 64KB of FLASH for this function to work cor
 952:LUFA-100807/LUFA/Drivers/USB/Class/Device/../../HighLevel/../LowLevel/Endpoint.h **** 			 *
 953:LUFA-100807/LUFA/Drivers/USB/Class/Device/../../HighLevel/../LowLevel/Endpoint.h **** 			 *  \ingroup Group_EndpointStreamRW
 954:LUFA-100807/LUFA/Drivers/USB/Class/Device/../../HighLevel/../LowLevel/Endpoint.h **** 			 *
 955:LUFA-100807/LUFA/Drivers/USB/Class/Device/../../HighLevel/../LowLevel/Endpoint.h **** 			 *  \param[in] Buffer    Pointer to the source data buffer to read from.
 956:LUFA-100807/LUFA/Drivers/USB/Class/Device/../../HighLevel/../LowLevel/Endpoint.h **** 			 *  \param[in] Length    Number of bytes to read for the currently selected endpoint into the bu
 957:LUFA-100807/LUFA/Drivers/USB/Class/Device/../../HighLevel/../LowLevel/Endpoint.h **** 			 *  \param[in] Callback  Name of a callback routine to call between successive USB packet transf
 958:LUFA-100807/LUFA/Drivers/USB/Class/Device/../../HighLevel/../LowLevel/Endpoint.h **** 			 *
 959:LUFA-100807/LUFA/Drivers/USB/Class/Device/../../HighLevel/../LowLevel/Endpoint.h **** 			 *  \return A value from the \ref Endpoint_Stream_RW_ErrorCodes_t enum.
 960:LUFA-100807/LUFA/Drivers/USB/Class/Device/../../HighLevel/../LowLevel/Endpoint.h **** 			 */
 961:LUFA-100807/LUFA/Drivers/USB/Class/Device/../../HighLevel/../LowLevel/Endpoint.h **** 			uint8_t Endpoint_Write_PStream_BE(const void* Buffer,
 962:LUFA-100807/LUFA/Drivers/USB/Class/Device/../../HighLevel/../LowLevel/Endpoint.h **** 			                                  uint16_t Length
 963:LUFA-100807/LUFA/Drivers/USB/Class/Device/../../HighLevel/../LowLevel/Endpoint.h **** 			                                  __CALLBACK_PARAM) ATTR_NON_NULL_PTR_ARG(1);
 964:LUFA-100807/LUFA/Drivers/USB/Class/Device/../../HighLevel/../LowLevel/Endpoint.h **** 
 965:LUFA-100807/LUFA/Drivers/USB/Class/Device/../../HighLevel/../LowLevel/Endpoint.h **** 			/** Reads the given number of bytes from the endpoint from the given buffer in little endian,
 966:LUFA-100807/LUFA/Drivers/USB/Class/Device/../../HighLevel/../LowLevel/Endpoint.h **** 			 *  discarding fully read packets from the host as needed. The last packet is not automatically
 967:LUFA-100807/LUFA/Drivers/USB/Class/Device/../../HighLevel/../LowLevel/Endpoint.h **** 			 *  discarded once the remaining bytes has been read; the user is responsible for manually
 968:LUFA-100807/LUFA/Drivers/USB/Class/Device/../../HighLevel/../LowLevel/Endpoint.h **** 			 *  discarding the last packet from the host via the \ref Endpoint_ClearOUT() macro. Between
 969:LUFA-100807/LUFA/Drivers/USB/Class/Device/../../HighLevel/../LowLevel/Endpoint.h **** 			 *  each USB packet, the given stream callback function is executed repeatedly until the endpoin
 970:LUFA-100807/LUFA/Drivers/USB/Class/Device/../../HighLevel/../LowLevel/Endpoint.h **** 			 *  is ready to accept the next packet, allowing for early aborts of stream transfers.
 971:LUFA-100807/LUFA/Drivers/USB/Class/Device/../../HighLevel/../LowLevel/Endpoint.h **** 			 *
 972:LUFA-100807/LUFA/Drivers/USB/Class/Device/../../HighLevel/../LowLevel/Endpoint.h **** 			 *	The callback routine should be created according to the information in \ref Group_StreamCallb
 973:LUFA-100807/LUFA/Drivers/USB/Class/Device/../../HighLevel/../LowLevel/Endpoint.h **** 			 *  If the token NO_STREAM_CALLBACKS is passed via the -D option to the compiler, stream callbac
 974:LUFA-100807/LUFA/Drivers/USB/Class/Device/../../HighLevel/../LowLevel/Endpoint.h **** 			 *  disabled and this function has the Callback parameter omitted.
 975:LUFA-100807/LUFA/Drivers/USB/Class/Device/../../HighLevel/../LowLevel/Endpoint.h **** 			 *
 976:LUFA-100807/LUFA/Drivers/USB/Class/Device/../../HighLevel/../LowLevel/Endpoint.h **** 			 *  \note This routine should not be used on CONTROL type endpoints.
 977:LUFA-100807/LUFA/Drivers/USB/Class/Device/../../HighLevel/../LowLevel/Endpoint.h **** 			 *
 978:LUFA-100807/LUFA/Drivers/USB/Class/Device/../../HighLevel/../LowLevel/Endpoint.h **** 			 *  \ingroup Group_EndpointStreamRW
 979:LUFA-100807/LUFA/Drivers/USB/Class/Device/../../HighLevel/../LowLevel/Endpoint.h **** 			 *
 980:LUFA-100807/LUFA/Drivers/USB/Class/Device/../../HighLevel/../LowLevel/Endpoint.h **** 			 *  \param[out] Buffer    Pointer to the destination data buffer to write to.
 981:LUFA-100807/LUFA/Drivers/USB/Class/Device/../../HighLevel/../LowLevel/Endpoint.h **** 			 *  \param[in]  Length    Number of bytes to send via the currently selected endpoint.
 982:LUFA-100807/LUFA/Drivers/USB/Class/Device/../../HighLevel/../LowLevel/Endpoint.h **** 			 *  \param[in]  Callback  Name of a callback routine to call between successive USB packet trans
 983:LUFA-100807/LUFA/Drivers/USB/Class/Device/../../HighLevel/../LowLevel/Endpoint.h **** 			 *
 984:LUFA-100807/LUFA/Drivers/USB/Class/Device/../../HighLevel/../LowLevel/Endpoint.h **** 			 *  \return A value from the \ref Endpoint_Stream_RW_ErrorCodes_t enum.
 985:LUFA-100807/LUFA/Drivers/USB/Class/Device/../../HighLevel/../LowLevel/Endpoint.h **** 			 */
 986:LUFA-100807/LUFA/Drivers/USB/Class/Device/../../HighLevel/../LowLevel/Endpoint.h **** 			uint8_t Endpoint_Read_Stream_LE(void* Buffer,
 987:LUFA-100807/LUFA/Drivers/USB/Class/Device/../../HighLevel/../LowLevel/Endpoint.h **** 			                                uint16_t Length
 988:LUFA-100807/LUFA/Drivers/USB/Class/Device/../../HighLevel/../LowLevel/Endpoint.h **** 			                                __CALLBACK_PARAM) ATTR_NON_NULL_PTR_ARG(1);
 989:LUFA-100807/LUFA/Drivers/USB/Class/Device/../../HighLevel/../LowLevel/Endpoint.h **** 
 990:LUFA-100807/LUFA/Drivers/USB/Class/Device/../../HighLevel/../LowLevel/Endpoint.h **** 			/** EEPROM buffer source version of \ref Endpoint_Read_Stream_LE().
 991:LUFA-100807/LUFA/Drivers/USB/Class/Device/../../HighLevel/../LowLevel/Endpoint.h **** 			 *
 992:LUFA-100807/LUFA/Drivers/USB/Class/Device/../../HighLevel/../LowLevel/Endpoint.h **** 			 *  \ingroup Group_EndpointStreamRW
 993:LUFA-100807/LUFA/Drivers/USB/Class/Device/../../HighLevel/../LowLevel/Endpoint.h **** 			 *
 994:LUFA-100807/LUFA/Drivers/USB/Class/Device/../../HighLevel/../LowLevel/Endpoint.h **** 			 *  \param[out] Buffer    Pointer to the destination data buffer to write to, located in EEPROM 
 995:LUFA-100807/LUFA/Drivers/USB/Class/Device/../../HighLevel/../LowLevel/Endpoint.h **** 			 *  \param[in]  Length    Number of bytes to send via the currently selected endpoint.
 996:LUFA-100807/LUFA/Drivers/USB/Class/Device/../../HighLevel/../LowLevel/Endpoint.h **** 			 *  \param[in]  Callback  Name of a callback routine to call between successive USB packet trans
 997:LUFA-100807/LUFA/Drivers/USB/Class/Device/../../HighLevel/../LowLevel/Endpoint.h **** 			 *
 998:LUFA-100807/LUFA/Drivers/USB/Class/Device/../../HighLevel/../LowLevel/Endpoint.h **** 			 *  \return A value from the \ref Endpoint_Stream_RW_ErrorCodes_t enum.
 999:LUFA-100807/LUFA/Drivers/USB/Class/Device/../../HighLevel/../LowLevel/Endpoint.h **** 			 */
1000:LUFA-100807/LUFA/Drivers/USB/Class/Device/../../HighLevel/../LowLevel/Endpoint.h **** 			uint8_t Endpoint_Read_EStream_LE(void* Buffer,
1001:LUFA-100807/LUFA/Drivers/USB/Class/Device/../../HighLevel/../LowLevel/Endpoint.h **** 			                                 uint16_t Length
1002:LUFA-100807/LUFA/Drivers/USB/Class/Device/../../HighLevel/../LowLevel/Endpoint.h **** 			                                 __CALLBACK_PARAM) ATTR_NON_NULL_PTR_ARG(1);
1003:LUFA-100807/LUFA/Drivers/USB/Class/Device/../../HighLevel/../LowLevel/Endpoint.h **** 			
1004:LUFA-100807/LUFA/Drivers/USB/Class/Device/../../HighLevel/../LowLevel/Endpoint.h **** 			/** Reads the given number of bytes from the endpoint from the given buffer in big endian,
1005:LUFA-100807/LUFA/Drivers/USB/Class/Device/../../HighLevel/../LowLevel/Endpoint.h **** 			 *  discarding fully read packets from the host as needed. The last packet is not automatically
1006:LUFA-100807/LUFA/Drivers/USB/Class/Device/../../HighLevel/../LowLevel/Endpoint.h **** 			 *  discarded once the remaining bytes has been read; the user is responsible for manually
1007:LUFA-100807/LUFA/Drivers/USB/Class/Device/../../HighLevel/../LowLevel/Endpoint.h **** 			 *  discarding the last packet from the host via the \ref Endpoint_ClearOUT() macro. Between
1008:LUFA-100807/LUFA/Drivers/USB/Class/Device/../../HighLevel/../LowLevel/Endpoint.h **** 			 *  each USB packet, the given stream callback function is executed repeatedly until the endpoin
1009:LUFA-100807/LUFA/Drivers/USB/Class/Device/../../HighLevel/../LowLevel/Endpoint.h **** 			 *  is ready to accept the next packet, allowing for early aborts of stream transfers.
1010:LUFA-100807/LUFA/Drivers/USB/Class/Device/../../HighLevel/../LowLevel/Endpoint.h **** 			 *
1011:LUFA-100807/LUFA/Drivers/USB/Class/Device/../../HighLevel/../LowLevel/Endpoint.h **** 			 *	The callback routine should be created according to the information in \ref Group_StreamCallb
1012:LUFA-100807/LUFA/Drivers/USB/Class/Device/../../HighLevel/../LowLevel/Endpoint.h **** 			 *  If the token NO_STREAM_CALLBACKS is passed via the -D option to the compiler, stream callbac
1013:LUFA-100807/LUFA/Drivers/USB/Class/Device/../../HighLevel/../LowLevel/Endpoint.h **** 			 *  disabled and this function has the Callback parameter omitted.
1014:LUFA-100807/LUFA/Drivers/USB/Class/Device/../../HighLevel/../LowLevel/Endpoint.h **** 			 *
1015:LUFA-100807/LUFA/Drivers/USB/Class/Device/../../HighLevel/../LowLevel/Endpoint.h **** 			 *  \note This routine should not be used on CONTROL type endpoints.
1016:LUFA-100807/LUFA/Drivers/USB/Class/Device/../../HighLevel/../LowLevel/Endpoint.h **** 			 *
1017:LUFA-100807/LUFA/Drivers/USB/Class/Device/../../HighLevel/../LowLevel/Endpoint.h **** 			 *  \ingroup Group_EndpointStreamRW
1018:LUFA-100807/LUFA/Drivers/USB/Class/Device/../../HighLevel/../LowLevel/Endpoint.h **** 			 *
1019:LUFA-100807/LUFA/Drivers/USB/Class/Device/../../HighLevel/../LowLevel/Endpoint.h **** 			 *  \param[out] Buffer    Pointer to the destination data buffer to write to.
1020:LUFA-100807/LUFA/Drivers/USB/Class/Device/../../HighLevel/../LowLevel/Endpoint.h **** 			 *  \param[in]  Length    Number of bytes to send via the currently selected endpoint.
1021:LUFA-100807/LUFA/Drivers/USB/Class/Device/../../HighLevel/../LowLevel/Endpoint.h **** 			 *  \param[in]  Callback  Name of a callback routine to call between successive USB packet trans
1022:LUFA-100807/LUFA/Drivers/USB/Class/Device/../../HighLevel/../LowLevel/Endpoint.h **** 			 *
1023:LUFA-100807/LUFA/Drivers/USB/Class/Device/../../HighLevel/../LowLevel/Endpoint.h **** 			 *  \return A value from the \ref Endpoint_Stream_RW_ErrorCodes_t enum.
1024:LUFA-100807/LUFA/Drivers/USB/Class/Device/../../HighLevel/../LowLevel/Endpoint.h **** 			 */
1025:LUFA-100807/LUFA/Drivers/USB/Class/Device/../../HighLevel/../LowLevel/Endpoint.h **** 			uint8_t Endpoint_Read_Stream_BE(void* Buffer,
1026:LUFA-100807/LUFA/Drivers/USB/Class/Device/../../HighLevel/../LowLevel/Endpoint.h **** 			                                uint16_t Length
1027:LUFA-100807/LUFA/Drivers/USB/Class/Device/../../HighLevel/../LowLevel/Endpoint.h **** 			                                __CALLBACK_PARAM) ATTR_NON_NULL_PTR_ARG(1);
1028:LUFA-100807/LUFA/Drivers/USB/Class/Device/../../HighLevel/../LowLevel/Endpoint.h **** 
1029:LUFA-100807/LUFA/Drivers/USB/Class/Device/../../HighLevel/../LowLevel/Endpoint.h **** 			/** EEPROM buffer source version of \ref Endpoint_Read_Stream_BE().
1030:LUFA-100807/LUFA/Drivers/USB/Class/Device/../../HighLevel/../LowLevel/Endpoint.h **** 			 *
1031:LUFA-100807/LUFA/Drivers/USB/Class/Device/../../HighLevel/../LowLevel/Endpoint.h **** 			 *  \ingroup Group_EndpointStreamRW
1032:LUFA-100807/LUFA/Drivers/USB/Class/Device/../../HighLevel/../LowLevel/Endpoint.h **** 			 *
1033:LUFA-100807/LUFA/Drivers/USB/Class/Device/../../HighLevel/../LowLevel/Endpoint.h **** 			 *  \param[out] Buffer    Pointer to the destination data buffer to write to, located in EEPROM 
1034:LUFA-100807/LUFA/Drivers/USB/Class/Device/../../HighLevel/../LowLevel/Endpoint.h **** 			 *  \param[in]  Length    Number of bytes to send via the currently selected endpoint.
1035:LUFA-100807/LUFA/Drivers/USB/Class/Device/../../HighLevel/../LowLevel/Endpoint.h **** 			 *  \param[in]  Callback  Name of a callback routine to call between successive USB packet trans
1036:LUFA-100807/LUFA/Drivers/USB/Class/Device/../../HighLevel/../LowLevel/Endpoint.h **** 			 *
1037:LUFA-100807/LUFA/Drivers/USB/Class/Device/../../HighLevel/../LowLevel/Endpoint.h **** 			 *  \return A value from the \ref Endpoint_Stream_RW_ErrorCodes_t enum.
1038:LUFA-100807/LUFA/Drivers/USB/Class/Device/../../HighLevel/../LowLevel/Endpoint.h **** 			 */
1039:LUFA-100807/LUFA/Drivers/USB/Class/Device/../../HighLevel/../LowLevel/Endpoint.h **** 			uint8_t Endpoint_Read_EStream_BE(void* Buffer,
1040:LUFA-100807/LUFA/Drivers/USB/Class/Device/../../HighLevel/../LowLevel/Endpoint.h **** 			                                 uint16_t Length
1041:LUFA-100807/LUFA/Drivers/USB/Class/Device/../../HighLevel/../LowLevel/Endpoint.h **** 			                                 __CALLBACK_PARAM) ATTR_NON_NULL_PTR_ARG(1);
1042:LUFA-100807/LUFA/Drivers/USB/Class/Device/../../HighLevel/../LowLevel/Endpoint.h **** 
1043:LUFA-100807/LUFA/Drivers/USB/Class/Device/../../HighLevel/../LowLevel/Endpoint.h **** 			/** Writes the given number of bytes to the CONTROL type endpoint from the given buffer in littl
1044:LUFA-100807/LUFA/Drivers/USB/Class/Device/../../HighLevel/../LowLevel/Endpoint.h **** 			 *  sending full packets to the host as needed. The host OUT acknowledgement is not automaticall
1045:LUFA-100807/LUFA/Drivers/USB/Class/Device/../../HighLevel/../LowLevel/Endpoint.h **** 			 *  in both failure and success states; the user is responsible for manually clearing the setup 
1046:LUFA-100807/LUFA/Drivers/USB/Class/Device/../../HighLevel/../LowLevel/Endpoint.h **** 			 *  finalize the transfer via the \ref Endpoint_ClearOUT() macro.
1047:LUFA-100807/LUFA/Drivers/USB/Class/Device/../../HighLevel/../LowLevel/Endpoint.h **** 			 *
1048:LUFA-100807/LUFA/Drivers/USB/Class/Device/../../HighLevel/../LowLevel/Endpoint.h **** 			 *  \note This function automatically clears the control transfer's status stage. Do not manuall
1049:LUFA-100807/LUFA/Drivers/USB/Class/Device/../../HighLevel/../LowLevel/Endpoint.h **** 			 *        to clear the status stage when using this routine in a control transaction.
1050:LUFA-100807/LUFA/Drivers/USB/Class/Device/../../HighLevel/../LowLevel/Endpoint.h **** 			 *        \n\n
1051:LUFA-100807/LUFA/Drivers/USB/Class/Device/../../HighLevel/../LowLevel/Endpoint.h **** 			 *
1052:LUFA-100807/LUFA/Drivers/USB/Class/Device/../../HighLevel/../LowLevel/Endpoint.h **** 			 *  \note This routine should only be used on CONTROL type endpoints.
1053:LUFA-100807/LUFA/Drivers/USB/Class/Device/../../HighLevel/../LowLevel/Endpoint.h **** 			 *
1054:LUFA-100807/LUFA/Drivers/USB/Class/Device/../../HighLevel/../LowLevel/Endpoint.h **** 			 *  \warning Unlike the standard stream read/write commands, the control stream commands cannot 
1055:LUFA-100807/LUFA/Drivers/USB/Class/Device/../../HighLevel/../LowLevel/Endpoint.h **** 			 *           together; i.e. the entire stream data must be read or written at the one time.
1056:LUFA-100807/LUFA/Drivers/USB/Class/Device/../../HighLevel/../LowLevel/Endpoint.h **** 			 *
1057:LUFA-100807/LUFA/Drivers/USB/Class/Device/../../HighLevel/../LowLevel/Endpoint.h **** 			 *  \ingroup Group_EndpointStreamRW
1058:LUFA-100807/LUFA/Drivers/USB/Class/Device/../../HighLevel/../LowLevel/Endpoint.h **** 			 *
1059:LUFA-100807/LUFA/Drivers/USB/Class/Device/../../HighLevel/../LowLevel/Endpoint.h **** 			 *  \param[in] Buffer  Pointer to the source data buffer to read from.
1060:LUFA-100807/LUFA/Drivers/USB/Class/Device/../../HighLevel/../LowLevel/Endpoint.h **** 			 *  \param[in] Length  Number of bytes to read for the currently selected endpoint into the buff
1061:LUFA-100807/LUFA/Drivers/USB/Class/Device/../../HighLevel/../LowLevel/Endpoint.h **** 			 *
1062:LUFA-100807/LUFA/Drivers/USB/Class/Device/../../HighLevel/../LowLevel/Endpoint.h **** 			 *  \return A value from the \ref Endpoint_ControlStream_RW_ErrorCodes_t enum.
1063:LUFA-100807/LUFA/Drivers/USB/Class/Device/../../HighLevel/../LowLevel/Endpoint.h **** 			 */
1064:LUFA-100807/LUFA/Drivers/USB/Class/Device/../../HighLevel/../LowLevel/Endpoint.h **** 			uint8_t Endpoint_Write_Control_Stream_LE(const void* Buffer,
1065:LUFA-100807/LUFA/Drivers/USB/Class/Device/../../HighLevel/../LowLevel/Endpoint.h **** 			                                         uint16_t Length) ATTR_NON_NULL_PTR_ARG(1);
1066:LUFA-100807/LUFA/Drivers/USB/Class/Device/../../HighLevel/../LowLevel/Endpoint.h **** 
1067:LUFA-100807/LUFA/Drivers/USB/Class/Device/../../HighLevel/../LowLevel/Endpoint.h **** 			/** EEPROM buffer source version of Endpoint_Write_Control_Stream_LE.
1068:LUFA-100807/LUFA/Drivers/USB/Class/Device/../../HighLevel/../LowLevel/Endpoint.h **** 			 *
1069:LUFA-100807/LUFA/Drivers/USB/Class/Device/../../HighLevel/../LowLevel/Endpoint.h **** 			 *  \note This function automatically clears the control transfer's status stage. Do not manuall
1070:LUFA-100807/LUFA/Drivers/USB/Class/Device/../../HighLevel/../LowLevel/Endpoint.h **** 			 *        to clear the status stage when using this routine in a control transaction.
1071:LUFA-100807/LUFA/Drivers/USB/Class/Device/../../HighLevel/../LowLevel/Endpoint.h **** 			 *        \n\n
1072:LUFA-100807/LUFA/Drivers/USB/Class/Device/../../HighLevel/../LowLevel/Endpoint.h **** 			 *
1073:LUFA-100807/LUFA/Drivers/USB/Class/Device/../../HighLevel/../LowLevel/Endpoint.h **** 			 *  \note This routine should only be used on CONTROL type endpoints.
1074:LUFA-100807/LUFA/Drivers/USB/Class/Device/../../HighLevel/../LowLevel/Endpoint.h **** 			 *
1075:LUFA-100807/LUFA/Drivers/USB/Class/Device/../../HighLevel/../LowLevel/Endpoint.h **** 			 *  \warning Unlike the standard stream read/write commands, the control stream commands cannot 
1076:LUFA-100807/LUFA/Drivers/USB/Class/Device/../../HighLevel/../LowLevel/Endpoint.h **** 			 *           together; i.e. the entire stream data must be read or written at the one time.
1077:LUFA-100807/LUFA/Drivers/USB/Class/Device/../../HighLevel/../LowLevel/Endpoint.h **** 			 *
1078:LUFA-100807/LUFA/Drivers/USB/Class/Device/../../HighLevel/../LowLevel/Endpoint.h **** 			 *  \ingroup Group_EndpointStreamRW
1079:LUFA-100807/LUFA/Drivers/USB/Class/Device/../../HighLevel/../LowLevel/Endpoint.h **** 			 *
1080:LUFA-100807/LUFA/Drivers/USB/Class/Device/../../HighLevel/../LowLevel/Endpoint.h **** 			 *  \param[in] Buffer  Pointer to the source data buffer to read from.
1081:LUFA-100807/LUFA/Drivers/USB/Class/Device/../../HighLevel/../LowLevel/Endpoint.h **** 			 *  \param[in] Length  Number of bytes to read for the currently selected endpoint into the buff
1082:LUFA-100807/LUFA/Drivers/USB/Class/Device/../../HighLevel/../LowLevel/Endpoint.h **** 			 *
1083:LUFA-100807/LUFA/Drivers/USB/Class/Device/../../HighLevel/../LowLevel/Endpoint.h **** 			 *  \return A value from the \ref Endpoint_ControlStream_RW_ErrorCodes_t enum.
1084:LUFA-100807/LUFA/Drivers/USB/Class/Device/../../HighLevel/../LowLevel/Endpoint.h **** 			 */
1085:LUFA-100807/LUFA/Drivers/USB/Class/Device/../../HighLevel/../LowLevel/Endpoint.h **** 			uint8_t Endpoint_Write_Control_EStream_LE(const void* Buffer,
1086:LUFA-100807/LUFA/Drivers/USB/Class/Device/../../HighLevel/../LowLevel/Endpoint.h **** 			                                          uint16_t Length) ATTR_NON_NULL_PTR_ARG(1);
1087:LUFA-100807/LUFA/Drivers/USB/Class/Device/../../HighLevel/../LowLevel/Endpoint.h **** 
1088:LUFA-100807/LUFA/Drivers/USB/Class/Device/../../HighLevel/../LowLevel/Endpoint.h **** 			/** FLASH buffer source version of \ref Endpoint_Write_Control_Stream_LE().
1089:LUFA-100807/LUFA/Drivers/USB/Class/Device/../../HighLevel/../LowLevel/Endpoint.h **** 			 *
1090:LUFA-100807/LUFA/Drivers/USB/Class/Device/../../HighLevel/../LowLevel/Endpoint.h **** 			 *  \pre The FLASH data must be located in the first 64KB of FLASH for this function to work cor
1091:LUFA-100807/LUFA/Drivers/USB/Class/Device/../../HighLevel/../LowLevel/Endpoint.h **** 			 *
1092:LUFA-100807/LUFA/Drivers/USB/Class/Device/../../HighLevel/../LowLevel/Endpoint.h **** 			 *  \note This function automatically clears the control transfer's status stage. Do not manuall
1093:LUFA-100807/LUFA/Drivers/USB/Class/Device/../../HighLevel/../LowLevel/Endpoint.h **** 			 *        to clear the status stage when using this routine in a control transaction.
1094:LUFA-100807/LUFA/Drivers/USB/Class/Device/../../HighLevel/../LowLevel/Endpoint.h **** 			 *        \n\n
1095:LUFA-100807/LUFA/Drivers/USB/Class/Device/../../HighLevel/../LowLevel/Endpoint.h **** 			 *
1096:LUFA-100807/LUFA/Drivers/USB/Class/Device/../../HighLevel/../LowLevel/Endpoint.h **** 			 *  \note This routine should only be used on CONTROL type endpoints.
1097:LUFA-100807/LUFA/Drivers/USB/Class/Device/../../HighLevel/../LowLevel/Endpoint.h **** 			 *
1098:LUFA-100807/LUFA/Drivers/USB/Class/Device/../../HighLevel/../LowLevel/Endpoint.h **** 			 *  \warning Unlike the standard stream read/write commands, the control stream commands cannot 
1099:LUFA-100807/LUFA/Drivers/USB/Class/Device/../../HighLevel/../LowLevel/Endpoint.h **** 			 *           together; i.e. the entire stream data must be read or written at the one time.
1100:LUFA-100807/LUFA/Drivers/USB/Class/Device/../../HighLevel/../LowLevel/Endpoint.h **** 			 *
1101:LUFA-100807/LUFA/Drivers/USB/Class/Device/../../HighLevel/../LowLevel/Endpoint.h **** 			 *  \ingroup Group_EndpointStreamRW
1102:LUFA-100807/LUFA/Drivers/USB/Class/Device/../../HighLevel/../LowLevel/Endpoint.h **** 			 *
1103:LUFA-100807/LUFA/Drivers/USB/Class/Device/../../HighLevel/../LowLevel/Endpoint.h **** 			 *  \param[in] Buffer  Pointer to the source data buffer to read from.
1104:LUFA-100807/LUFA/Drivers/USB/Class/Device/../../HighLevel/../LowLevel/Endpoint.h **** 			 *  \param[in] Length  Number of bytes to read for the currently selected endpoint into the buff
1105:LUFA-100807/LUFA/Drivers/USB/Class/Device/../../HighLevel/../LowLevel/Endpoint.h **** 			 *
1106:LUFA-100807/LUFA/Drivers/USB/Class/Device/../../HighLevel/../LowLevel/Endpoint.h **** 			 *  \return A value from the \ref Endpoint_ControlStream_RW_ErrorCodes_t enum.
1107:LUFA-100807/LUFA/Drivers/USB/Class/Device/../../HighLevel/../LowLevel/Endpoint.h **** 			 */
1108:LUFA-100807/LUFA/Drivers/USB/Class/Device/../../HighLevel/../LowLevel/Endpoint.h **** 			uint8_t Endpoint_Write_Control_PStream_LE(const void* Buffer,
1109:LUFA-100807/LUFA/Drivers/USB/Class/Device/../../HighLevel/../LowLevel/Endpoint.h **** 			                                          uint16_t Length) ATTR_NON_NULL_PTR_ARG(1);
1110:LUFA-100807/LUFA/Drivers/USB/Class/Device/../../HighLevel/../LowLevel/Endpoint.h **** 
1111:LUFA-100807/LUFA/Drivers/USB/Class/Device/../../HighLevel/../LowLevel/Endpoint.h **** 			/** Writes the given number of bytes to the CONTROL type endpoint from the given buffer in big e
1112:LUFA-100807/LUFA/Drivers/USB/Class/Device/../../HighLevel/../LowLevel/Endpoint.h **** 			 *  sending full packets to the host as needed. The host OUT acknowledgement is not automaticall
1113:LUFA-100807/LUFA/Drivers/USB/Class/Device/../../HighLevel/../LowLevel/Endpoint.h **** 			 *  in both failure and success states; the user is responsible for manually clearing the setup 
1114:LUFA-100807/LUFA/Drivers/USB/Class/Device/../../HighLevel/../LowLevel/Endpoint.h **** 			 *  finalize the transfer via the \ref Endpoint_ClearOUT() macro.
1115:LUFA-100807/LUFA/Drivers/USB/Class/Device/../../HighLevel/../LowLevel/Endpoint.h **** 			 *
1116:LUFA-100807/LUFA/Drivers/USB/Class/Device/../../HighLevel/../LowLevel/Endpoint.h **** 			 *  \note This function automatically clears the control transfer's status stage. Do not manuall
1117:LUFA-100807/LUFA/Drivers/USB/Class/Device/../../HighLevel/../LowLevel/Endpoint.h **** 			 *        to clear the status stage when using this routine in a control transaction.
1118:LUFA-100807/LUFA/Drivers/USB/Class/Device/../../HighLevel/../LowLevel/Endpoint.h **** 			 *        \n\n
1119:LUFA-100807/LUFA/Drivers/USB/Class/Device/../../HighLevel/../LowLevel/Endpoint.h **** 			 *
1120:LUFA-100807/LUFA/Drivers/USB/Class/Device/../../HighLevel/../LowLevel/Endpoint.h **** 			 *  \note This routine should only be used on CONTROL type endpoints.
1121:LUFA-100807/LUFA/Drivers/USB/Class/Device/../../HighLevel/../LowLevel/Endpoint.h **** 			 *
1122:LUFA-100807/LUFA/Drivers/USB/Class/Device/../../HighLevel/../LowLevel/Endpoint.h **** 			 *  \warning Unlike the standard stream read/write commands, the control stream commands cannot 
1123:LUFA-100807/LUFA/Drivers/USB/Class/Device/../../HighLevel/../LowLevel/Endpoint.h **** 			 *           together; i.e. the entire stream data must be read or written at the one time.
1124:LUFA-100807/LUFA/Drivers/USB/Class/Device/../../HighLevel/../LowLevel/Endpoint.h **** 			 *
1125:LUFA-100807/LUFA/Drivers/USB/Class/Device/../../HighLevel/../LowLevel/Endpoint.h **** 			 *  \ingroup Group_EndpointStreamRW
1126:LUFA-100807/LUFA/Drivers/USB/Class/Device/../../HighLevel/../LowLevel/Endpoint.h **** 			 *
1127:LUFA-100807/LUFA/Drivers/USB/Class/Device/../../HighLevel/../LowLevel/Endpoint.h **** 			 *  \param[in] Buffer  Pointer to the source data buffer to read from.
1128:LUFA-100807/LUFA/Drivers/USB/Class/Device/../../HighLevel/../LowLevel/Endpoint.h **** 			 *  \param[in] Length  Number of bytes to read for the currently selected endpoint into the buff
1129:LUFA-100807/LUFA/Drivers/USB/Class/Device/../../HighLevel/../LowLevel/Endpoint.h **** 			 *
1130:LUFA-100807/LUFA/Drivers/USB/Class/Device/../../HighLevel/../LowLevel/Endpoint.h **** 			 *  \return A value from the \ref Endpoint_ControlStream_RW_ErrorCodes_t enum.
1131:LUFA-100807/LUFA/Drivers/USB/Class/Device/../../HighLevel/../LowLevel/Endpoint.h **** 			 */
1132:LUFA-100807/LUFA/Drivers/USB/Class/Device/../../HighLevel/../LowLevel/Endpoint.h **** 			uint8_t Endpoint_Write_Control_Stream_BE(const void* Buffer,
1133:LUFA-100807/LUFA/Drivers/USB/Class/Device/../../HighLevel/../LowLevel/Endpoint.h **** 			                                         uint16_t Length) ATTR_NON_NULL_PTR_ARG(1);
1134:LUFA-100807/LUFA/Drivers/USB/Class/Device/../../HighLevel/../LowLevel/Endpoint.h **** 
1135:LUFA-100807/LUFA/Drivers/USB/Class/Device/../../HighLevel/../LowLevel/Endpoint.h **** 			/** EEPROM buffer source version of \ref Endpoint_Write_Control_Stream_BE().
1136:LUFA-100807/LUFA/Drivers/USB/Class/Device/../../HighLevel/../LowLevel/Endpoint.h **** 			 *
1137:LUFA-100807/LUFA/Drivers/USB/Class/Device/../../HighLevel/../LowLevel/Endpoint.h **** 			 *  \note This function automatically clears the control transfer's status stage. Do not manuall
1138:LUFA-100807/LUFA/Drivers/USB/Class/Device/../../HighLevel/../LowLevel/Endpoint.h **** 			 *        to clear the status stage when using this routine in a control transaction.
1139:LUFA-100807/LUFA/Drivers/USB/Class/Device/../../HighLevel/../LowLevel/Endpoint.h **** 			 *        \n\n
1140:LUFA-100807/LUFA/Drivers/USB/Class/Device/../../HighLevel/../LowLevel/Endpoint.h **** 			 *
1141:LUFA-100807/LUFA/Drivers/USB/Class/Device/../../HighLevel/../LowLevel/Endpoint.h **** 			 *  \note This routine should only be used on CONTROL type endpoints.
1142:LUFA-100807/LUFA/Drivers/USB/Class/Device/../../HighLevel/../LowLevel/Endpoint.h **** 			 *
1143:LUFA-100807/LUFA/Drivers/USB/Class/Device/../../HighLevel/../LowLevel/Endpoint.h **** 			 *  \warning Unlike the standard stream read/write commands, the control stream commands cannot 
1144:LUFA-100807/LUFA/Drivers/USB/Class/Device/../../HighLevel/../LowLevel/Endpoint.h **** 			 *           together; i.e. the entire stream data must be read or written at the one time.
1145:LUFA-100807/LUFA/Drivers/USB/Class/Device/../../HighLevel/../LowLevel/Endpoint.h **** 			 *
1146:LUFA-100807/LUFA/Drivers/USB/Class/Device/../../HighLevel/../LowLevel/Endpoint.h **** 			 *  \ingroup Group_EndpointStreamRW
1147:LUFA-100807/LUFA/Drivers/USB/Class/Device/../../HighLevel/../LowLevel/Endpoint.h **** 			 *
1148:LUFA-100807/LUFA/Drivers/USB/Class/Device/../../HighLevel/../LowLevel/Endpoint.h **** 			 *  \param[in] Buffer  Pointer to the source data buffer to read from.
1149:LUFA-100807/LUFA/Drivers/USB/Class/Device/../../HighLevel/../LowLevel/Endpoint.h **** 			 *  \param[in] Length  Number of bytes to read for the currently selected endpoint into the buff
1150:LUFA-100807/LUFA/Drivers/USB/Class/Device/../../HighLevel/../LowLevel/Endpoint.h **** 			 *
1151:LUFA-100807/LUFA/Drivers/USB/Class/Device/../../HighLevel/../LowLevel/Endpoint.h **** 			 *  \return A value from the \ref Endpoint_ControlStream_RW_ErrorCodes_t enum.
1152:LUFA-100807/LUFA/Drivers/USB/Class/Device/../../HighLevel/../LowLevel/Endpoint.h **** 			 */
1153:LUFA-100807/LUFA/Drivers/USB/Class/Device/../../HighLevel/../LowLevel/Endpoint.h **** 			uint8_t Endpoint_Write_Control_EStream_BE(const void* Buffer,
1154:LUFA-100807/LUFA/Drivers/USB/Class/Device/../../HighLevel/../LowLevel/Endpoint.h **** 			                                          uint16_t Length) ATTR_NON_NULL_PTR_ARG(1);
1155:LUFA-100807/LUFA/Drivers/USB/Class/Device/../../HighLevel/../LowLevel/Endpoint.h **** 
1156:LUFA-100807/LUFA/Drivers/USB/Class/Device/../../HighLevel/../LowLevel/Endpoint.h **** 			/** FLASH buffer source version of \ref Endpoint_Write_Control_Stream_BE().
1157:LUFA-100807/LUFA/Drivers/USB/Class/Device/../../HighLevel/../LowLevel/Endpoint.h **** 			 *
1158:LUFA-100807/LUFA/Drivers/USB/Class/Device/../../HighLevel/../LowLevel/Endpoint.h **** 			 *  \pre The FLASH data must be located in the first 64KB of FLASH for this function to work cor
1159:LUFA-100807/LUFA/Drivers/USB/Class/Device/../../HighLevel/../LowLevel/Endpoint.h **** 			 *
1160:LUFA-100807/LUFA/Drivers/USB/Class/Device/../../HighLevel/../LowLevel/Endpoint.h **** 			 *  \note This function automatically clears the control transfer's status stage. Do not manuall
1161:LUFA-100807/LUFA/Drivers/USB/Class/Device/../../HighLevel/../LowLevel/Endpoint.h **** 			 *        to clear the status stage when using this routine in a control transaction.
1162:LUFA-100807/LUFA/Drivers/USB/Class/Device/../../HighLevel/../LowLevel/Endpoint.h **** 			 *        \n\n
1163:LUFA-100807/LUFA/Drivers/USB/Class/Device/../../HighLevel/../LowLevel/Endpoint.h **** 			 *
1164:LUFA-100807/LUFA/Drivers/USB/Class/Device/../../HighLevel/../LowLevel/Endpoint.h **** 			 *  \note This routine should only be used on CONTROL type endpoints.
1165:LUFA-100807/LUFA/Drivers/USB/Class/Device/../../HighLevel/../LowLevel/Endpoint.h **** 			 *
1166:LUFA-100807/LUFA/Drivers/USB/Class/Device/../../HighLevel/../LowLevel/Endpoint.h **** 			 *  \warning Unlike the standard stream read/write commands, the control stream commands cannot 
1167:LUFA-100807/LUFA/Drivers/USB/Class/Device/../../HighLevel/../LowLevel/Endpoint.h **** 			 *           together; i.e. the entire stream data must be read or written at the one time.
1168:LUFA-100807/LUFA/Drivers/USB/Class/Device/../../HighLevel/../LowLevel/Endpoint.h **** 			 *
1169:LUFA-100807/LUFA/Drivers/USB/Class/Device/../../HighLevel/../LowLevel/Endpoint.h **** 			 *  \ingroup Group_EndpointStreamRW
1170:LUFA-100807/LUFA/Drivers/USB/Class/Device/../../HighLevel/../LowLevel/Endpoint.h **** 			 *
1171:LUFA-100807/LUFA/Drivers/USB/Class/Device/../../HighLevel/../LowLevel/Endpoint.h **** 			 *  \param[in] Buffer  Pointer to the source data buffer to read from.
1172:LUFA-100807/LUFA/Drivers/USB/Class/Device/../../HighLevel/../LowLevel/Endpoint.h **** 			 *  \param[in] Length  Number of bytes to read for the currently selected endpoint into the buff
1173:LUFA-100807/LUFA/Drivers/USB/Class/Device/../../HighLevel/../LowLevel/Endpoint.h **** 			 *
1174:LUFA-100807/LUFA/Drivers/USB/Class/Device/../../HighLevel/../LowLevel/Endpoint.h **** 			 *  \return A value from the \ref Endpoint_ControlStream_RW_ErrorCodes_t enum.
1175:LUFA-100807/LUFA/Drivers/USB/Class/Device/../../HighLevel/../LowLevel/Endpoint.h **** 			 */
1176:LUFA-100807/LUFA/Drivers/USB/Class/Device/../../HighLevel/../LowLevel/Endpoint.h **** 			uint8_t Endpoint_Write_Control_PStream_BE(const void* Buffer,
1177:LUFA-100807/LUFA/Drivers/USB/Class/Device/../../HighLevel/../LowLevel/Endpoint.h **** 			                                          uint16_t Length) ATTR_NON_NULL_PTR_ARG(1);
1178:LUFA-100807/LUFA/Drivers/USB/Class/Device/../../HighLevel/../LowLevel/Endpoint.h **** 
1179:LUFA-100807/LUFA/Drivers/USB/Class/Device/../../HighLevel/../LowLevel/Endpoint.h **** 			/** Reads the given number of bytes from the CONTROL endpoint from the given buffer in little en
1180:LUFA-100807/LUFA/Drivers/USB/Class/Device/../../HighLevel/../LowLevel/Endpoint.h **** 			 *  discarding fully read packets from the host as needed. The device IN acknowledgement is not
1181:LUFA-100807/LUFA/Drivers/USB/Class/Device/../../HighLevel/../LowLevel/Endpoint.h **** 			 *  automatically sent after success or failure states; the user is responsible for manually sen
1182:LUFA-100807/LUFA/Drivers/USB/Class/Device/../../HighLevel/../LowLevel/Endpoint.h **** 			 *  setup IN to finalize the transfer via the \ref Endpoint_ClearIN() macro.
1183:LUFA-100807/LUFA/Drivers/USB/Class/Device/../../HighLevel/../LowLevel/Endpoint.h **** 			 *
1184:LUFA-100807/LUFA/Drivers/USB/Class/Device/../../HighLevel/../LowLevel/Endpoint.h **** 			 *  \note This function automatically clears the control transfer's status stage. Do not manuall
1185:LUFA-100807/LUFA/Drivers/USB/Class/Device/../../HighLevel/../LowLevel/Endpoint.h **** 			 *        to clear the status stage when using this routine in a control transaction.
1186:LUFA-100807/LUFA/Drivers/USB/Class/Device/../../HighLevel/../LowLevel/Endpoint.h **** 			 *        \n\n
1187:LUFA-100807/LUFA/Drivers/USB/Class/Device/../../HighLevel/../LowLevel/Endpoint.h **** 			 *
1188:LUFA-100807/LUFA/Drivers/USB/Class/Device/../../HighLevel/../LowLevel/Endpoint.h **** 			 *  \note This routine should only be used on CONTROL type endpoints.
1189:LUFA-100807/LUFA/Drivers/USB/Class/Device/../../HighLevel/../LowLevel/Endpoint.h **** 			 *
1190:LUFA-100807/LUFA/Drivers/USB/Class/Device/../../HighLevel/../LowLevel/Endpoint.h **** 			 *  \warning Unlike the standard stream read/write commands, the control stream commands cannot 
1191:LUFA-100807/LUFA/Drivers/USB/Class/Device/../../HighLevel/../LowLevel/Endpoint.h **** 			 *           together; i.e. the entire stream data must be read or written at the one time.
1192:LUFA-100807/LUFA/Drivers/USB/Class/Device/../../HighLevel/../LowLevel/Endpoint.h **** 			 *
1193:LUFA-100807/LUFA/Drivers/USB/Class/Device/../../HighLevel/../LowLevel/Endpoint.h **** 			 *  \ingroup Group_EndpointStreamRW
1194:LUFA-100807/LUFA/Drivers/USB/Class/Device/../../HighLevel/../LowLevel/Endpoint.h **** 			 *
1195:LUFA-100807/LUFA/Drivers/USB/Class/Device/../../HighLevel/../LowLevel/Endpoint.h **** 			 *  \param[out] Buffer  Pointer to the destination data buffer to write to.
1196:LUFA-100807/LUFA/Drivers/USB/Class/Device/../../HighLevel/../LowLevel/Endpoint.h **** 			 *  \param[in]  Length  Number of bytes to send via the currently selected endpoint.
1197:LUFA-100807/LUFA/Drivers/USB/Class/Device/../../HighLevel/../LowLevel/Endpoint.h **** 			 *
1198:LUFA-100807/LUFA/Drivers/USB/Class/Device/../../HighLevel/../LowLevel/Endpoint.h **** 			 *  \return A value from the \ref Endpoint_ControlStream_RW_ErrorCodes_t enum.
1199:LUFA-100807/LUFA/Drivers/USB/Class/Device/../../HighLevel/../LowLevel/Endpoint.h **** 			 */
1200:LUFA-100807/LUFA/Drivers/USB/Class/Device/../../HighLevel/../LowLevel/Endpoint.h **** 			uint8_t Endpoint_Read_Control_Stream_LE(void* Buffer,
1201:LUFA-100807/LUFA/Drivers/USB/Class/Device/../../HighLevel/../LowLevel/Endpoint.h **** 			                                        uint16_t Length) ATTR_NON_NULL_PTR_ARG(1);
1202:LUFA-100807/LUFA/Drivers/USB/Class/Device/../../HighLevel/../LowLevel/Endpoint.h **** 
1203:LUFA-100807/LUFA/Drivers/USB/Class/Device/../../HighLevel/../LowLevel/Endpoint.h **** 			/** EEPROM buffer source version of \ref Endpoint_Read_Control_Stream_LE().
1204:LUFA-100807/LUFA/Drivers/USB/Class/Device/../../HighLevel/../LowLevel/Endpoint.h **** 			 *
1205:LUFA-100807/LUFA/Drivers/USB/Class/Device/../../HighLevel/../LowLevel/Endpoint.h **** 			 *  \note This function automatically clears the control transfer's status stage. Do not manuall
1206:LUFA-100807/LUFA/Drivers/USB/Class/Device/../../HighLevel/../LowLevel/Endpoint.h **** 			 *        to clear the status stage when using this routine in a control transaction.
1207:LUFA-100807/LUFA/Drivers/USB/Class/Device/../../HighLevel/../LowLevel/Endpoint.h **** 			 *        \n\n
1208:LUFA-100807/LUFA/Drivers/USB/Class/Device/../../HighLevel/../LowLevel/Endpoint.h **** 			 *
1209:LUFA-100807/LUFA/Drivers/USB/Class/Device/../../HighLevel/../LowLevel/Endpoint.h **** 			 *  \note This routine should only be used on CONTROL type endpoints.
1210:LUFA-100807/LUFA/Drivers/USB/Class/Device/../../HighLevel/../LowLevel/Endpoint.h **** 			 *
1211:LUFA-100807/LUFA/Drivers/USB/Class/Device/../../HighLevel/../LowLevel/Endpoint.h **** 			 *  \warning Unlike the standard stream read/write commands, the control stream commands cannot 
1212:LUFA-100807/LUFA/Drivers/USB/Class/Device/../../HighLevel/../LowLevel/Endpoint.h **** 			 *           together; i.e. the entire stream data must be read or written at the one time.
1213:LUFA-100807/LUFA/Drivers/USB/Class/Device/../../HighLevel/../LowLevel/Endpoint.h **** 			 *
1214:LUFA-100807/LUFA/Drivers/USB/Class/Device/../../HighLevel/../LowLevel/Endpoint.h **** 			 *  \ingroup Group_EndpointStreamRW
1215:LUFA-100807/LUFA/Drivers/USB/Class/Device/../../HighLevel/../LowLevel/Endpoint.h **** 			 *
1216:LUFA-100807/LUFA/Drivers/USB/Class/Device/../../HighLevel/../LowLevel/Endpoint.h **** 			 *  \param[out] Buffer  Pointer to the destination data buffer to write to.
1217:LUFA-100807/LUFA/Drivers/USB/Class/Device/../../HighLevel/../LowLevel/Endpoint.h **** 			 *  \param[in]  Length  Number of bytes to send via the currently selected endpoint.
1218:LUFA-100807/LUFA/Drivers/USB/Class/Device/../../HighLevel/../LowLevel/Endpoint.h **** 			 *
1219:LUFA-100807/LUFA/Drivers/USB/Class/Device/../../HighLevel/../LowLevel/Endpoint.h **** 			 *  \return A value from the \ref Endpoint_ControlStream_RW_ErrorCodes_t enum.
1220:LUFA-100807/LUFA/Drivers/USB/Class/Device/../../HighLevel/../LowLevel/Endpoint.h **** 			 */
1221:LUFA-100807/LUFA/Drivers/USB/Class/Device/../../HighLevel/../LowLevel/Endpoint.h **** 			uint8_t Endpoint_Read_Control_EStream_LE(void* Buffer,
1222:LUFA-100807/LUFA/Drivers/USB/Class/Device/../../HighLevel/../LowLevel/Endpoint.h **** 			                                         uint16_t Length) ATTR_NON_NULL_PTR_ARG(1);
1223:LUFA-100807/LUFA/Drivers/USB/Class/Device/../../HighLevel/../LowLevel/Endpoint.h **** 
1224:LUFA-100807/LUFA/Drivers/USB/Class/Device/../../HighLevel/../LowLevel/Endpoint.h **** 			/** Reads the given number of bytes from the CONTROL endpoint from the given buffer in big endia
1225:LUFA-100807/LUFA/Drivers/USB/Class/Device/../../HighLevel/../LowLevel/Endpoint.h **** 			 *  discarding fully read packets from the host as needed. The device IN acknowledgement is not
1226:LUFA-100807/LUFA/Drivers/USB/Class/Device/../../HighLevel/../LowLevel/Endpoint.h **** 			 *  automatically sent after success or failure states; the user is responsible for manually sen
1227:LUFA-100807/LUFA/Drivers/USB/Class/Device/../../HighLevel/../LowLevel/Endpoint.h **** 			 *  setup IN to finalize the transfer via the \ref Endpoint_ClearIN() macro.
1228:LUFA-100807/LUFA/Drivers/USB/Class/Device/../../HighLevel/../LowLevel/Endpoint.h **** 			 *
1229:LUFA-100807/LUFA/Drivers/USB/Class/Device/../../HighLevel/../LowLevel/Endpoint.h **** 			 *  \note This function automatically clears the control transfer's status stage. Do not manuall
1230:LUFA-100807/LUFA/Drivers/USB/Class/Device/../../HighLevel/../LowLevel/Endpoint.h **** 			 *        to clear the status stage when using this routine in a control transaction.
1231:LUFA-100807/LUFA/Drivers/USB/Class/Device/../../HighLevel/../LowLevel/Endpoint.h **** 			 *        \n\n
1232:LUFA-100807/LUFA/Drivers/USB/Class/Device/../../HighLevel/../LowLevel/Endpoint.h **** 			 *
1233:LUFA-100807/LUFA/Drivers/USB/Class/Device/../../HighLevel/../LowLevel/Endpoint.h **** 			 *  \note This routine should only be used on CONTROL type endpoints.
1234:LUFA-100807/LUFA/Drivers/USB/Class/Device/../../HighLevel/../LowLevel/Endpoint.h **** 			 *
1235:LUFA-100807/LUFA/Drivers/USB/Class/Device/../../HighLevel/../LowLevel/Endpoint.h **** 			 *  \warning Unlike the standard stream read/write commands, the control stream commands cannot 
1236:LUFA-100807/LUFA/Drivers/USB/Class/Device/../../HighLevel/../LowLevel/Endpoint.h **** 			 *           together; i.e. the entire stream data must be read or written at the one time.
1237:LUFA-100807/LUFA/Drivers/USB/Class/Device/../../HighLevel/../LowLevel/Endpoint.h **** 			 *
1238:LUFA-100807/LUFA/Drivers/USB/Class/Device/../../HighLevel/../LowLevel/Endpoint.h **** 			 *  \ingroup Group_EndpointStreamRW
1239:LUFA-100807/LUFA/Drivers/USB/Class/Device/../../HighLevel/../LowLevel/Endpoint.h **** 			 *
1240:LUFA-100807/LUFA/Drivers/USB/Class/Device/../../HighLevel/../LowLevel/Endpoint.h **** 			 *  \param[out] Buffer  Pointer to the destination data buffer to write to.
1241:LUFA-100807/LUFA/Drivers/USB/Class/Device/../../HighLevel/../LowLevel/Endpoint.h **** 			 *  \param[in]  Length  Number of bytes to send via the currently selected endpoint.
1242:LUFA-100807/LUFA/Drivers/USB/Class/Device/../../HighLevel/../LowLevel/Endpoint.h **** 			 *
1243:LUFA-100807/LUFA/Drivers/USB/Class/Device/../../HighLevel/../LowLevel/Endpoint.h **** 			 *  \return A value from the \ref Endpoint_ControlStream_RW_ErrorCodes_t enum.
1244:LUFA-100807/LUFA/Drivers/USB/Class/Device/../../HighLevel/../LowLevel/Endpoint.h **** 			 */
1245:LUFA-100807/LUFA/Drivers/USB/Class/Device/../../HighLevel/../LowLevel/Endpoint.h **** 			uint8_t Endpoint_Read_Control_Stream_BE(void* Buffer,
1246:LUFA-100807/LUFA/Drivers/USB/Class/Device/../../HighLevel/../LowLevel/Endpoint.h **** 			                                        uint16_t Length) ATTR_NON_NULL_PTR_ARG(1);
1247:LUFA-100807/LUFA/Drivers/USB/Class/Device/../../HighLevel/../LowLevel/Endpoint.h **** 			
1248:LUFA-100807/LUFA/Drivers/USB/Class/Device/../../HighLevel/../LowLevel/Endpoint.h **** 			/** EEPROM buffer source version of \ref Endpoint_Read_Control_Stream_BE().
1249:LUFA-100807/LUFA/Drivers/USB/Class/Device/../../HighLevel/../LowLevel/Endpoint.h **** 			 *
1250:LUFA-100807/LUFA/Drivers/USB/Class/Device/../../HighLevel/../LowLevel/Endpoint.h **** 			 *  \note This function automatically clears the control transfer's status stage. Do not manuall
1251:LUFA-100807/LUFA/Drivers/USB/Class/Device/../../HighLevel/../LowLevel/Endpoint.h **** 			 *        to clear the status stage when using this routine in a control transaction.
1252:LUFA-100807/LUFA/Drivers/USB/Class/Device/../../HighLevel/../LowLevel/Endpoint.h **** 			 *        \n\n
1253:LUFA-100807/LUFA/Drivers/USB/Class/Device/../../HighLevel/../LowLevel/Endpoint.h **** 			 *
1254:LUFA-100807/LUFA/Drivers/USB/Class/Device/../../HighLevel/../LowLevel/Endpoint.h **** 			 *  \note This routine should only be used on CONTROL type endpoints.
1255:LUFA-100807/LUFA/Drivers/USB/Class/Device/../../HighLevel/../LowLevel/Endpoint.h **** 			 *
1256:LUFA-100807/LUFA/Drivers/USB/Class/Device/../../HighLevel/../LowLevel/Endpoint.h **** 			 *  \warning Unlike the standard stream read/write commands, the control stream commands cannot 
1257:LUFA-100807/LUFA/Drivers/USB/Class/Device/../../HighLevel/../LowLevel/Endpoint.h **** 			 *           together; i.e. the entire stream data must be read or written at the one time.
1258:LUFA-100807/LUFA/Drivers/USB/Class/Device/../../HighLevel/../LowLevel/Endpoint.h **** 			 *
1259:LUFA-100807/LUFA/Drivers/USB/Class/Device/../../HighLevel/../LowLevel/Endpoint.h **** 			 *  \ingroup Group_EndpointStreamRW
1260:LUFA-100807/LUFA/Drivers/USB/Class/Device/../../HighLevel/../LowLevel/Endpoint.h **** 			 *
1261:LUFA-100807/LUFA/Drivers/USB/Class/Device/../../HighLevel/../LowLevel/Endpoint.h **** 			 *  \param[out] Buffer  Pointer to the destination data buffer to write to.
1262:LUFA-100807/LUFA/Drivers/USB/Class/Device/../../HighLevel/../LowLevel/Endpoint.h **** 			 *  \param[in]  Length  Number of bytes to send via the currently selected endpoint.
1263:LUFA-100807/LUFA/Drivers/USB/Class/Device/../../HighLevel/../LowLevel/Endpoint.h **** 			 *
1264:LUFA-100807/LUFA/Drivers/USB/Class/Device/../../HighLevel/../LowLevel/Endpoint.h **** 			 *  \return A value from the \ref Endpoint_ControlStream_RW_ErrorCodes_t enum.
1265:LUFA-100807/LUFA/Drivers/USB/Class/Device/../../HighLevel/../LowLevel/Endpoint.h **** 			 */
1266:LUFA-100807/LUFA/Drivers/USB/Class/Device/../../HighLevel/../LowLevel/Endpoint.h **** 			uint8_t Endpoint_Read_Control_EStream_BE(void* Buffer,
1267:LUFA-100807/LUFA/Drivers/USB/Class/Device/../../HighLevel/../LowLevel/Endpoint.h **** 			                                         uint16_t Length) ATTR_NON_NULL_PTR_ARG(1);
1268:LUFA-100807/LUFA/Drivers/USB/Class/Device/../../HighLevel/../LowLevel/Endpoint.h **** 
1269:LUFA-100807/LUFA/Drivers/USB/Class/Device/../../HighLevel/../LowLevel/Endpoint.h **** 	/* Private Interface - For use in library only: */
1270:LUFA-100807/LUFA/Drivers/USB/Class/Device/../../HighLevel/../LowLevel/Endpoint.h **** 	#if !defined(__DOXYGEN__)
1271:LUFA-100807/LUFA/Drivers/USB/Class/Device/../../HighLevel/../LowLevel/Endpoint.h **** 		/* Macros: */
1272:LUFA-100807/LUFA/Drivers/USB/Class/Device/../../HighLevel/../LowLevel/Endpoint.h **** 			#define _ENDPOINT_GET_MAXSIZE(n)               _ENDPOINT_GET_MAXSIZE2(ENDPOINT_DETAILS_EP ## n)
1273:LUFA-100807/LUFA/Drivers/USB/Class/Device/../../HighLevel/../LowLevel/Endpoint.h **** 			#define _ENDPOINT_GET_MAXSIZE2(details)        _ENDPOINT_GET_MAXSIZE3(details)
1274:LUFA-100807/LUFA/Drivers/USB/Class/Device/../../HighLevel/../LowLevel/Endpoint.h **** 			#define _ENDPOINT_GET_MAXSIZE3(maxsize, db)    maxsize
1275:LUFA-100807/LUFA/Drivers/USB/Class/Device/../../HighLevel/../LowLevel/Endpoint.h **** 
1276:LUFA-100807/LUFA/Drivers/USB/Class/Device/../../HighLevel/../LowLevel/Endpoint.h **** 			#define _ENDPOINT_GET_DOUBLEBANK(n)            _ENDPOINT_GET_DOUBLEBANK2(ENDPOINT_DETAILS_EP ## 
1277:LUFA-100807/LUFA/Drivers/USB/Class/Device/../../HighLevel/../LowLevel/Endpoint.h **** 			#define _ENDPOINT_GET_DOUBLEBANK2(details)     _ENDPOINT_GET_DOUBLEBANK3(details)
1278:LUFA-100807/LUFA/Drivers/USB/Class/Device/../../HighLevel/../LowLevel/Endpoint.h **** 			#define _ENDPOINT_GET_DOUBLEBANK3(maxsize, db) db
1279:LUFA-100807/LUFA/Drivers/USB/Class/Device/../../HighLevel/../LowLevel/Endpoint.h **** 			
1280:LUFA-100807/LUFA/Drivers/USB/Class/Device/../../HighLevel/../LowLevel/Endpoint.h **** 			#if defined(USB_SERIES_4_AVR) || defined(USB_SERIES_6_AVR) || defined(USB_SERIES_7_AVR)
1281:LUFA-100807/LUFA/Drivers/USB/Class/Device/../../HighLevel/../LowLevel/Endpoint.h **** 				#define ENDPOINT_DETAILS_EP0               64,  true
1282:LUFA-100807/LUFA/Drivers/USB/Class/Device/../../HighLevel/../LowLevel/Endpoint.h **** 				#define ENDPOINT_DETAILS_EP1               256, true
1283:LUFA-100807/LUFA/Drivers/USB/Class/Device/../../HighLevel/../LowLevel/Endpoint.h **** 				#define ENDPOINT_DETAILS_EP2               64,  true
1284:LUFA-100807/LUFA/Drivers/USB/Class/Device/../../HighLevel/../LowLevel/Endpoint.h **** 				#define ENDPOINT_DETAILS_EP3               64,  true
1285:LUFA-100807/LUFA/Drivers/USB/Class/Device/../../HighLevel/../LowLevel/Endpoint.h **** 				#define ENDPOINT_DETAILS_EP4               64,  true
1286:LUFA-100807/LUFA/Drivers/USB/Class/Device/../../HighLevel/../LowLevel/Endpoint.h **** 				#define ENDPOINT_DETAILS_EP5               64,  true
1287:LUFA-100807/LUFA/Drivers/USB/Class/Device/../../HighLevel/../LowLevel/Endpoint.h **** 				#define ENDPOINT_DETAILS_EP6               64,  true
1288:LUFA-100807/LUFA/Drivers/USB/Class/Device/../../HighLevel/../LowLevel/Endpoint.h **** 			#else
1289:LUFA-100807/LUFA/Drivers/USB/Class/Device/../../HighLevel/../LowLevel/Endpoint.h **** 				#define ENDPOINT_DETAILS_EP0               64,  true
1290:LUFA-100807/LUFA/Drivers/USB/Class/Device/../../HighLevel/../LowLevel/Endpoint.h **** 				#define ENDPOINT_DETAILS_EP1               64,  false
1291:LUFA-100807/LUFA/Drivers/USB/Class/Device/../../HighLevel/../LowLevel/Endpoint.h **** 				#define ENDPOINT_DETAILS_EP2               64,  false
1292:LUFA-100807/LUFA/Drivers/USB/Class/Device/../../HighLevel/../LowLevel/Endpoint.h **** 				#define ENDPOINT_DETAILS_EP3               64,  true
1293:LUFA-100807/LUFA/Drivers/USB/Class/Device/../../HighLevel/../LowLevel/Endpoint.h **** 				#define ENDPOINT_DETAILS_EP4               64,  true			
1294:LUFA-100807/LUFA/Drivers/USB/Class/Device/../../HighLevel/../LowLevel/Endpoint.h **** 			#endif
1295:LUFA-100807/LUFA/Drivers/USB/Class/Device/../../HighLevel/../LowLevel/Endpoint.h **** 
1296:LUFA-100807/LUFA/Drivers/USB/Class/Device/../../HighLevel/../LowLevel/Endpoint.h **** 			#define Endpoint_ConfigureEndpoint(Number, Type, Direction, Size, Banks)                        
1297:LUFA-100807/LUFA/Drivers/USB/Class/Device/../../HighLevel/../LowLevel/Endpoint.h **** 			                     (__builtin_constant_p(Size) ? Endpoint_ConfigureEndpointStatic((Number),   
1298:LUFA-100807/LUFA/Drivers/USB/Class/Device/../../HighLevel/../LowLevel/Endpoint.h **** 			                                                                                    (Type),     
1299:LUFA-100807/LUFA/Drivers/USB/Class/Device/../../HighLevel/../LowLevel/Endpoint.h **** 			                                                                                    (Direction),
1300:LUFA-100807/LUFA/Drivers/USB/Class/Device/../../HighLevel/../LowLevel/Endpoint.h **** 			                                                                                    Size, Banks)
1301:LUFA-100807/LUFA/Drivers/USB/Class/Device/../../HighLevel/../LowLevel/Endpoint.h **** 			                                                   Endpoint_ConfigureEndpointDynamic((Number),  
1302:LUFA-100807/LUFA/Drivers/USB/Class/Device/../../HighLevel/../LowLevel/Endpoint.h **** 			                                                                                     (Type),    
1303:LUFA-100807/LUFA/Drivers/USB/Class/Device/../../HighLevel/../LowLevel/Endpoint.h **** 			                                                                                     (Direction)
1304:LUFA-100807/LUFA/Drivers/USB/Class/Device/../../HighLevel/../LowLevel/Endpoint.h **** 			                                                                                     Size, Banks
1305:LUFA-100807/LUFA/Drivers/USB/Class/Device/../../HighLevel/../LowLevel/Endpoint.h **** 
1306:LUFA-100807/LUFA/Drivers/USB/Class/Device/../../HighLevel/../LowLevel/Endpoint.h **** 		/* Function Prototypes: */
1307:LUFA-100807/LUFA/Drivers/USB/Class/Device/../../HighLevel/../LowLevel/Endpoint.h **** 			void    Endpoint_ClearEndpoints(void);
1308:LUFA-100807/LUFA/Drivers/USB/Class/Device/../../HighLevel/../LowLevel/Endpoint.h **** 			uint8_t Endpoint_BytesToEPSizeMaskDynamic(const uint16_t Size);
1309:LUFA-100807/LUFA/Drivers/USB/Class/Device/../../HighLevel/../LowLevel/Endpoint.h **** 			bool    Endpoint_ConfigureEndpoint_Prv(const uint8_t Number,
1310:LUFA-100807/LUFA/Drivers/USB/Class/Device/../../HighLevel/../LowLevel/Endpoint.h **** 			                                       const uint8_t UECFG0XData,
1311:LUFA-100807/LUFA/Drivers/USB/Class/Device/../../HighLevel/../LowLevel/Endpoint.h **** 			                                       const uint8_t UECFG1XData);			
1312:LUFA-100807/LUFA/Drivers/USB/Class/Device/../../HighLevel/../LowLevel/Endpoint.h **** 
1313:LUFA-100807/LUFA/Drivers/USB/Class/Device/../../HighLevel/../LowLevel/Endpoint.h **** 		/* Inline Functions: */
1314:LUFA-100807/LUFA/Drivers/USB/Class/Device/../../HighLevel/../LowLevel/Endpoint.h **** 			static inline uint8_t Endpoint_BytesToEPSizeMask(const uint16_t Bytes) ATTR_WARN_UNUSED_RESULT A
1315:LUFA-100807/LUFA/Drivers/USB/Class/Device/../../HighLevel/../LowLevel/Endpoint.h **** 			static inline uint8_t Endpoint_BytesToEPSizeMask(const uint16_t Bytes)
1316:LUFA-100807/LUFA/Drivers/USB/Class/Device/../../HighLevel/../LowLevel/Endpoint.h **** 			{
1317:LUFA-100807/LUFA/Drivers/USB/Class/Device/../../HighLevel/../LowLevel/Endpoint.h **** 				uint8_t  MaskVal    = 0;
1318:LUFA-100807/LUFA/Drivers/USB/Class/Device/../../HighLevel/../LowLevel/Endpoint.h **** 				uint16_t CheckBytes = 8;
1319:LUFA-100807/LUFA/Drivers/USB/Class/Device/../../HighLevel/../LowLevel/Endpoint.h **** 				
1320:LUFA-100807/LUFA/Drivers/USB/Class/Device/../../HighLevel/../LowLevel/Endpoint.h **** 				while (CheckBytes < Bytes)
1321:LUFA-100807/LUFA/Drivers/USB/Class/Device/../../HighLevel/../LowLevel/Endpoint.h **** 				{
1322:LUFA-100807/LUFA/Drivers/USB/Class/Device/../../HighLevel/../LowLevel/Endpoint.h **** 					MaskVal++;
1323:LUFA-100807/LUFA/Drivers/USB/Class/Device/../../HighLevel/../LowLevel/Endpoint.h **** 					CheckBytes <<= 1;
1324:LUFA-100807/LUFA/Drivers/USB/Class/Device/../../HighLevel/../LowLevel/Endpoint.h **** 				}
1325:LUFA-100807/LUFA/Drivers/USB/Class/Device/../../HighLevel/../LowLevel/Endpoint.h **** 				
1326:LUFA-100807/LUFA/Drivers/USB/Class/Device/../../HighLevel/../LowLevel/Endpoint.h **** 				return (MaskVal << EPSIZE0);
1327:LUFA-100807/LUFA/Drivers/USB/Class/Device/../../HighLevel/../LowLevel/Endpoint.h **** 			}
1328:LUFA-100807/LUFA/Drivers/USB/Class/Device/../../HighLevel/../LowLevel/Endpoint.h **** 			
1329:LUFA-100807/LUFA/Drivers/USB/Class/Device/../../HighLevel/../LowLevel/Endpoint.h **** 			static inline bool Endpoint_ConfigureEndpointStatic(const uint8_t Number,
1330:LUFA-100807/LUFA/Drivers/USB/Class/Device/../../HighLevel/../LowLevel/Endpoint.h **** 			                                                    const uint8_t Type,
1331:LUFA-100807/LUFA/Drivers/USB/Class/Device/../../HighLevel/../LowLevel/Endpoint.h **** 			                                                    const uint8_t Direction,
1332:LUFA-100807/LUFA/Drivers/USB/Class/Device/../../HighLevel/../LowLevel/Endpoint.h **** 			                                                    const uint16_t Size,
1333:LUFA-100807/LUFA/Drivers/USB/Class/Device/../../HighLevel/../LowLevel/Endpoint.h **** 			                                                    const uint8_t Banks)
1334:LUFA-100807/LUFA/Drivers/USB/Class/Device/../../HighLevel/../LowLevel/Endpoint.h **** 			{
1335:LUFA-100807/LUFA/Drivers/USB/Class/Device/../../HighLevel/../LowLevel/Endpoint.h **** 				return Endpoint_ConfigureEndpoint_Prv(Number, (((Type) << EPTYPE0) | (Direction)),
1336:LUFA-100807/LUFA/Drivers/USB/Class/Device/../../HighLevel/../LowLevel/Endpoint.h **** 				                                      ((1 << ALLOC) | Banks | Endpoint_BytesToEPSizeMask(Size))
1337:LUFA-100807/LUFA/Drivers/USB/Class/Device/../../HighLevel/../LowLevel/Endpoint.h **** 			}
1338:LUFA-100807/LUFA/Drivers/USB/Class/Device/../../HighLevel/../LowLevel/Endpoint.h **** 
1339:LUFA-100807/LUFA/Drivers/USB/Class/Device/../../HighLevel/../LowLevel/Endpoint.h **** 			static inline bool Endpoint_ConfigureEndpointDynamic(const uint8_t Number,
 1073               		.loc 2 1339 23 is_stmt 1 discriminator 11 view .LVU248
 1074               	.LBB102:
1340:LUFA-100807/LUFA/Drivers/USB/Class/Device/../../HighLevel/../LowLevel/Endpoint.h **** 			                                                     const uint8_t Type,
1341:LUFA-100807/LUFA/Drivers/USB/Class/Device/../../HighLevel/../LowLevel/Endpoint.h **** 			                                                     const uint8_t Direction,
1342:LUFA-100807/LUFA/Drivers/USB/Class/Device/../../HighLevel/../LowLevel/Endpoint.h **** 			                                                     const uint16_t Size,
1343:LUFA-100807/LUFA/Drivers/USB/Class/Device/../../HighLevel/../LowLevel/Endpoint.h **** 			                                                     const uint8_t Banks)
1344:LUFA-100807/LUFA/Drivers/USB/Class/Device/../../HighLevel/../LowLevel/Endpoint.h **** 			{
1345:LUFA-100807/LUFA/Drivers/USB/Class/Device/../../HighLevel/../LowLevel/Endpoint.h **** 				return Endpoint_ConfigureEndpoint_Prv(Number, (((Type) << EPTYPE0) | (Direction)),
 1075               		.loc 2 1345 5 discriminator 11 view .LVU249
1346:LUFA-100807/LUFA/Drivers/USB/Class/Device/../../HighLevel/../LowLevel/Endpoint.h **** 				                                      ((1 << ALLOC) | Banks | Endpoint_BytesToEPSizeMaskDynamic
 1076               		.loc 2 1346 67 is_stmt 0 discriminator 11 view .LVU250
 1077 002c 0E94 0000 		call Endpoint_BytesToEPSizeMaskDynamic
 1078               	.LVL68:
1345:LUFA-100807/LUFA/Drivers/USB/Class/Device/../../HighLevel/../LowLevel/Endpoint.h **** 				                                      ((1 << ALLOC) | Banks | Endpoint_BytesToEPSizeMaskDynamic
 1079               		.loc 2 1345 12 discriminator 11 view .LVU251
 1080 0030 412F      		mov r20,r17
 1081 0032 482B      		or r20,r24
 1082 0034 4260      		ori r20,lo8(2)
 1083 0036 61E8      		ldi r22,lo8(-127)
 1084 0038 802F      		mov r24,r16
 1085 003a 0E94 0000 		call Endpoint_ConfigureEndpoint_Prv
 1086               	.LVL69:
1345:LUFA-100807/LUFA/Drivers/USB/Class/Device/../../HighLevel/../LowLevel/Endpoint.h **** 				                                      ((1 << ALLOC) | Banks | Endpoint_BytesToEPSizeMaskDynamic
 1087               		.loc 2 1345 12 discriminator 11 view .LVU252
 1088               	.LBE102:
 1089               	.LBE101:
 118:LUFA-100807/LUFA/Drivers/USB/Class/Device/RNDIS.c **** 							         ENDPOINT_DIR_IN, RNDISInterfaceInfo->Config.DataINEndpointSize,
 1090               		.loc 1 118 5 discriminator 11 view .LVU253
 1091 003e 8823      		tst r24
 1092 0040 01F0      		breq .L45
 125:LUFA-100807/LUFA/Drivers/USB/Class/Device/RNDIS.c **** 	                                 ENDPOINT_DIR_OUT, RNDISInterfaceInfo->Config.DataOUTEndpointSize,
 1093               		.loc 1 125 2 is_stmt 1 view .LVU254
 125:LUFA-100807/LUFA/Drivers/USB/Class/Device/RNDIS.c **** 	                                 ENDPOINT_DIR_OUT, RNDISInterfaceInfo->Config.DataOUTEndpointSize,
 1094               		.loc 1 125 8 is_stmt 0 view .LVU255
 1095 0042 8E81      		ldd r24,Y+6
 1096 0044 9F81      		ldd r25,Y+7
 1097 0046 2885      		ldd r18,Y+8
 1098 0048 10E0      		ldi r17,0
 1099 004a 2111      		cpse r18,__zero_reg__
 1100 004c 14E0      		ldi r17,lo8(4)
 1101               	.L46:
 125:LUFA-100807/LUFA/Drivers/USB/Class/Device/RNDIS.c **** 	                                 ENDPOINT_DIR_OUT, RNDISInterfaceInfo->Config.DataOUTEndpointSize,
 1102               		.loc 1 125 8 discriminator 11 view .LVU256
 1103 004e 0D81      		ldd r16,Y+5
 1104               	.LVL70:
 1105               	.LBB103:
 1106               	.LBI103:
1339:LUFA-100807/LUFA/Drivers/USB/Class/Device/../../HighLevel/../LowLevel/Endpoint.h **** 			                                                     const uint8_t Type,
 1107               		.loc 2 1339 23 is_stmt 1 discriminator 11 view .LVU257
 1108               	.LBB104:
1345:LUFA-100807/LUFA/Drivers/USB/Class/Device/../../HighLevel/../LowLevel/Endpoint.h **** 				                                      ((1 << ALLOC) | Banks | Endpoint_BytesToEPSizeMaskDynamic
 1109               		.loc 2 1345 5 discriminator 11 view .LVU258
 1110               		.loc 2 1346 67 is_stmt 0 discriminator 11 view .LVU259
 1111 0050 0E94 0000 		call Endpoint_BytesToEPSizeMaskDynamic
 1112               	.LVL71:
1345:LUFA-100807/LUFA/Drivers/USB/Class/Device/../../HighLevel/../LowLevel/Endpoint.h **** 				                                      ((1 << ALLOC) | Banks | Endpoint_BytesToEPSizeMaskDynamic
 1113               		.loc 2 1345 12 discriminator 11 view .LVU260
 1114 0054 412F      		mov r20,r17
 1115 0056 482B      		or r20,r24
 1116 0058 4260      		ori r20,lo8(2)
 1117 005a 60E8      		ldi r22,lo8(-128)
 1118 005c 802F      		mov r24,r16
 1119 005e 0E94 0000 		call Endpoint_ConfigureEndpoint_Prv
 1120               	.LVL72:
1345:LUFA-100807/LUFA/Drivers/USB/Class/Device/../../HighLevel/../LowLevel/Endpoint.h **** 				                                      ((1 << ALLOC) | Banks | Endpoint_BytesToEPSizeMaskDynamic
 1121               		.loc 2 1345 12 discriminator 11 view .LVU261
 1122               	.LBE104:
 1123               	.LBE103:
 125:LUFA-100807/LUFA/Drivers/USB/Class/Device/RNDIS.c **** 	                                 ENDPOINT_DIR_OUT, RNDISInterfaceInfo->Config.DataOUTEndpointSize,
 1124               		.loc 1 125 5 discriminator 11 view .LVU262
 1125 0062 8823      		tst r24
 1126 0064 01F0      		breq .L45
 132:LUFA-100807/LUFA/Drivers/USB/Class/Device/RNDIS.c **** 	                                 ENDPOINT_DIR_IN, RNDISInterfaceInfo->Config.NotificationEndpointS
 1127               		.loc 1 132 2 is_stmt 1 view .LVU263
 132:LUFA-100807/LUFA/Drivers/USB/Class/Device/RNDIS.c **** 	                                 ENDPOINT_DIR_IN, RNDISInterfaceInfo->Config.NotificationEndpointS
 1128               		.loc 1 132 8 is_stmt 0 view .LVU264
 1129 0066 8A85      		ldd r24,Y+10
 1130 0068 9B85      		ldd r25,Y+11
 1131 006a 2C85      		ldd r18,Y+12
 1132 006c 10E0      		ldi r17,0
 1133 006e 2111      		cpse r18,__zero_reg__
 1134 0070 14E0      		ldi r17,lo8(4)
 1135               	.L48:
 132:LUFA-100807/LUFA/Drivers/USB/Class/Device/RNDIS.c **** 	                                 ENDPOINT_DIR_IN, RNDISInterfaceInfo->Config.NotificationEndpointS
 1136               		.loc 1 132 8 discriminator 11 view .LVU265
 1137 0072 C985      		ldd r28,Y+9
 1138               	.LVL73:
 1139               	.LBB105:
 1140               	.LBI105:
1339:LUFA-100807/LUFA/Drivers/USB/Class/Device/../../HighLevel/../LowLevel/Endpoint.h **** 			                                                     const uint8_t Type,
 1141               		.loc 2 1339 23 is_stmt 1 discriminator 11 view .LVU266
 1142               	.LBB106:
1345:LUFA-100807/LUFA/Drivers/USB/Class/Device/../../HighLevel/../LowLevel/Endpoint.h **** 				                                      ((1 << ALLOC) | Banks | Endpoint_BytesToEPSizeMaskDynamic
 1143               		.loc 2 1345 5 discriminator 11 view .LVU267
 1144               		.loc 2 1346 67 is_stmt 0 discriminator 11 view .LVU268
 1145 0074 0E94 0000 		call Endpoint_BytesToEPSizeMaskDynamic
 1146               	.LVL74:
1345:LUFA-100807/LUFA/Drivers/USB/Class/Device/../../HighLevel/../LowLevel/Endpoint.h **** 				                                      ((1 << ALLOC) | Banks | Endpoint_BytesToEPSizeMaskDynamic
 1147               		.loc 2 1345 12 discriminator 11 view .LVU269
 1148 0078 412F      		mov r20,r17
 1149 007a 482B      		or r20,r24
 1150 007c 4260      		ori r20,lo8(2)
 1151 007e 61EC      		ldi r22,lo8(-63)
 1152 0080 8C2F      		mov r24,r28
 1153               	/* epilogue start */
 1154               	.LBE106:
 1155               	.LBE105:
 140:LUFA-100807/LUFA/Drivers/USB/Class/Device/RNDIS.c **** 
 1156               		.loc 1 140 1 discriminator 11 view .LVU270
 1157 0082 DF91      		pop r29
 1158 0084 CF91      		pop r28
 1159               	.LVL75:
 140:LUFA-100807/LUFA/Drivers/USB/Class/Device/RNDIS.c **** 
 1160               		.loc 1 140 1 discriminator 11 view .LVU271
 1161 0086 1F91      		pop r17
 1162               	.LVL76:
 140:LUFA-100807/LUFA/Drivers/USB/Class/Device/RNDIS.c **** 
 1163               		.loc 1 140 1 discriminator 11 view .LVU272
 1164 0088 0F91      		pop r16
 1165               	.LBB108:
 1166               	.LBB107:
1345:LUFA-100807/LUFA/Drivers/USB/Class/Device/../../HighLevel/../LowLevel/Endpoint.h **** 				                                      ((1 << ALLOC) | Banks | Endpoint_BytesToEPSizeMaskDynamic
 1167               		.loc 2 1345 12 discriminator 11 view .LVU273
 1168 008a 0C94 0000 		jmp Endpoint_ConfigureEndpoint_Prv
 1169               	.LVL77:
 1170               	.L45:
1345:LUFA-100807/LUFA/Drivers/USB/Class/Device/../../HighLevel/../LowLevel/Endpoint.h **** 				                                      ((1 << ALLOC) | Banks | Endpoint_BytesToEPSizeMaskDynamic
 1171               		.loc 2 1345 12 discriminator 11 view .LVU274
 1172               	.LBE107:
 1173               	.LBE108:
 140:LUFA-100807/LUFA/Drivers/USB/Class/Device/RNDIS.c **** 
 1174               		.loc 1 140 1 view .LVU275
 1175 008e 80E0      		ldi r24,0
 1176               	/* epilogue start */
 1177 0090 DF91      		pop r29
 1178 0092 CF91      		pop r28
 1179               	.LVL78:
 140:LUFA-100807/LUFA/Drivers/USB/Class/Device/RNDIS.c **** 
 1180               		.loc 1 140 1 view .LVU276
 1181 0094 1F91      		pop r17
 1182 0096 0F91      		pop r16
 1183 0098 0895      		ret
 1184               		.cfi_endproc
 1185               	.LFE66:
 1187               		.section	.rodata
 1188               	.LC0:
 1189 0000 A1        		.byte	-95
 1190 0001 01        		.byte	1
 1191 0002 0000      		.word	0
 1192 0004 0000      		.word	0
 1193 0006 0000      		.word	0
 1194               		.section	.text.RNDIS_Device_USBTask,"ax",@progbits
 1195               	.global	RNDIS_Device_USBTask
 1197               	RNDIS_Device_USBTask:
 1198               	.LVL79:
 1199               	.LFB67:
 143:LUFA-100807/LUFA/Drivers/USB/Class/Device/RNDIS.c **** 	if (USB_DeviceState != DEVICE_STATE_Configured)
 1200               		.loc 1 143 1 is_stmt 1 view -0
 1201               		.cfi_startproc
 143:LUFA-100807/LUFA/Drivers/USB/Class/Device/RNDIS.c **** 	if (USB_DeviceState != DEVICE_STATE_Configured)
 1202               		.loc 1 143 1 is_stmt 0 view .LVU278
 1203 0000 EF92      		push r14
 1204               	.LCFI8:
 1205               		.cfi_def_cfa_offset 3
 1206               		.cfi_offset 14, -2
 1207 0002 FF92      		push r15
 1208               	.LCFI9:
 1209               		.cfi_def_cfa_offset 4
 1210               		.cfi_offset 15, -3
 1211 0004 0F93      		push r16
 1212               	.LCFI10:
 1213               		.cfi_def_cfa_offset 5
 1214               		.cfi_offset 16, -4
 1215 0006 1F93      		push r17
 1216               	.LCFI11:
 1217               		.cfi_def_cfa_offset 6
 1218               		.cfi_offset 17, -5
 1219 0008 CF93      		push r28
 1220               	.LCFI12:
 1221               		.cfi_def_cfa_offset 7
 1222               		.cfi_offset 28, -6
 1223 000a DF93      		push r29
 1224               	.LCFI13:
 1225               		.cfi_def_cfa_offset 8
 1226               		.cfi_offset 29, -7
 1227 000c CDB7      		in r28,__SP_L__
 1228 000e DEB7      		in r29,__SP_H__
 1229               	.LCFI14:
 1230               		.cfi_def_cfa_register 28
 1231 0010 AC97      		sbiw r28,44
 1232               	.LCFI15:
 1233               		.cfi_def_cfa_offset 52
 1234 0012 0FB6      		in __tmp_reg__,__SREG__
 1235 0014 F894      		cli
 1236 0016 DEBF      		out __SP_H__,r29
 1237 0018 0FBE      		out __SREG__,__tmp_reg__
 1238 001a CDBF      		out __SP_L__,r28
 1239               	/* prologue: function */
 1240               	/* frame size = 44 */
 1241               	/* stack size = 50 */
 1242               	.L__stack_usage = 50
 1243 001c 8C01      		movw r16,r24
 144:LUFA-100807/LUFA/Drivers/USB/Class/Device/RNDIS.c **** 	  return;
 1244               		.loc 1 144 2 is_stmt 1 view .LVU279
 144:LUFA-100807/LUFA/Drivers/USB/Class/Device/RNDIS.c **** 	  return;
 1245               		.loc 1 144 6 is_stmt 0 view .LVU280
 1246 001e 8EB3      		in r24,0x1e
 1247               	.LVL80:
 144:LUFA-100807/LUFA/Drivers/USB/Class/Device/RNDIS.c **** 	  return;
 1248               		.loc 1 144 5 view .LVU281
 1249 0020 8430      		cpi r24,lo8(4)
 1250 0022 01F0      		breq .+2
 1251 0024 00C0      		rjmp .L55
 147:LUFA-100807/LUFA/Drivers/USB/Class/Device/RNDIS.c **** 
 1252               		.loc 1 147 2 is_stmt 1 view .LVU282
 1253               	.LVL81:
 149:LUFA-100807/LUFA/Drivers/USB/Class/Device/RNDIS.c **** 
 1254               		.loc 1 149 2 view .LVU283
 1255 0026 D801      		movw r26,r16
 1256 0028 1996      		adiw r26,9
 1257 002a 8C91      		ld r24,X
 1258               	.LVL82:
 1259               	.LBB109:
 1260               	.LBI109:
 296:LUFA-100807/LUFA/Drivers/USB/Class/Device/../../HighLevel/../LowLevel/Endpoint.h **** 			{
 1261               		.loc 2 296 23 view .LVU284
 1262               	.LBB110:
 299:LUFA-100807/LUFA/Drivers/USB/Class/Device/../../HighLevel/../LowLevel/Endpoint.h **** 				#endif			
 1263               		.loc 2 299 6 view .LVU285
 299:LUFA-100807/LUFA/Drivers/USB/Class/Device/../../HighLevel/../LowLevel/Endpoint.h **** 				#endif			
 1264               		.loc 2 299 12 is_stmt 0 view .LVU286
 1265 002c 8093 E900 		sts 233,r24
 1266               	.LVL83:
 299:LUFA-100807/LUFA/Drivers/USB/Class/Device/../../HighLevel/../LowLevel/Endpoint.h **** 				#endif			
 1267               		.loc 2 299 12 view .LVU287
 1268               	.LBE110:
 1269               	.LBE109:
 151:LUFA-100807/LUFA/Drivers/USB/Class/Device/RNDIS.c **** 	{
 1270               		.loc 1 151 2 is_stmt 1 view .LVU288
 1271               	.LBB111:
 1272               	.LBI111:
 403:LUFA-100807/LUFA/Drivers/USB/Class/Device/../../HighLevel/../LowLevel/Endpoint.h **** 			{
 1273               		.loc 2 403 23 view .LVU289
 1274               	.LBB112:
 405:LUFA-100807/LUFA/Drivers/USB/Class/Device/../../HighLevel/../LowLevel/Endpoint.h **** 			}
 1275               		.loc 2 405 5 view .LVU290
 405:LUFA-100807/LUFA/Drivers/USB/Class/Device/../../HighLevel/../LowLevel/Endpoint.h **** 			}
 1276               		.loc 2 405 14 is_stmt 0 view .LVU291
 1277 0030 8091 E800 		lds r24,232
 1278               	.LBE112:
 1279               	.LBE111:
 151:LUFA-100807/LUFA/Drivers/USB/Class/Device/RNDIS.c **** 	{
 1280               		.loc 1 151 5 view .LVU292
 1281 0034 80FF      		sbrs r24,0
 1282 0036 00C0      		rjmp .L58
 151:LUFA-100807/LUFA/Drivers/USB/Class/Device/RNDIS.c **** 	{
 1283               		.loc 1 151 55 discriminator 1 view .LVU293
 1284 0038 7801      		movw r14,r16
 1285 003a B5E9      		ldi r27,-107
 1286 003c EB0E      		add r14,r27
 1287 003e F11C      		adc r15,__zero_reg__
 151:LUFA-100807/LUFA/Drivers/USB/Class/Device/RNDIS.c **** 	{
 1288               		.loc 1 151 27 discriminator 1 view .LVU294
 1289 0040 F701      		movw r30,r14
 1290 0042 8081      		ld r24,Z
 1291 0044 8823      		tst r24
 1292 0046 01F0      		breq .L58
 1293               	.LBB113:
 153:LUFA-100807/LUFA/Drivers/USB/Class/Device/RNDIS.c **** 			{
 1294               		.loc 1 153 3 is_stmt 1 view .LVU295
 153:LUFA-100807/LUFA/Drivers/USB/Class/Device/RNDIS.c **** 			{
 1295               		.loc 1 153 24 is_stmt 0 view .LVU296
 1296 0048 88E0      		ldi r24,lo8(8)
 1297 004a E0E0      		ldi r30,lo8(.LC0)
 1298 004c F0E0      		ldi r31,hi8(.LC0)
 1299 004e DE01      		movw r26,r28
 1300 0050 1196      		adiw r26,1
 1301               		0:
 1302 0052 0190      		ld r0,Z+
 1303 0054 0D92      		st X+,r0
 1304 0056 8A95      		dec r24
 1305 0058 01F4      		brne 0b
 162:LUFA-100807/LUFA/Drivers/USB/Class/Device/RNDIS.c **** 
 1306               		.loc 1 162 3 is_stmt 1 view .LVU297
 1307 005a 50E0      		ldi r21,0
 1308 005c 40E0      		ldi r20,0
 1309 005e 68E0      		ldi r22,lo8(8)
 1310 0060 70E0      		ldi r23,0
 1311 0062 CE01      		movw r24,r28
 1312 0064 0196      		adiw r24,1
 1313 0066 0E94 0000 		call Endpoint_Write_Stream_LE
 1314               	.LVL84:
 164:LUFA-100807/LUFA/Drivers/USB/Class/Device/RNDIS.c **** 
 1315               		.loc 1 164 3 view .LVU298
 1316               	.LBB114:
 1317               	.LBI114:
 451:LUFA-100807/LUFA/Drivers/USB/Class/Device/../../HighLevel/../LowLevel/Endpoint.h **** 			{
 1318               		.loc 2 451 23 view .LVU299
 1319               	.LBB115:
 454:LUFA-100807/LUFA/Drivers/USB/Class/Device/../../HighLevel/../LowLevel/Endpoint.h **** 				#else
 1320               		.loc 2 454 6 view .LVU300
 454:LUFA-100807/LUFA/Drivers/USB/Class/Device/../../HighLevel/../LowLevel/Endpoint.h **** 				#else
 1321               		.loc 2 454 13 is_stmt 0 view .LVU301
 1322 006a 8091 E800 		lds r24,232
 1323 006e 8E77      		andi r24,lo8(126)
 1324 0070 8093 E800 		sts 232,r24
 1325               	.LBE115:
 1326               	.LBE114:
 166:LUFA-100807/LUFA/Drivers/USB/Class/Device/RNDIS.c **** 	}
 1327               		.loc 1 166 3 is_stmt 1 view .LVU302
 166:LUFA-100807/LUFA/Drivers/USB/Class/Device/RNDIS.c **** 	}
 1328               		.loc 1 166 43 is_stmt 0 view .LVU303
 1329 0074 D701      		movw r26,r14
 1330 0076 1C92      		st X,__zero_reg__
 1331               	.L58:
 1332               	.LBE113:
 169:LUFA-100807/LUFA/Drivers/USB/Class/Device/RNDIS.c **** 	{
 1333               		.loc 1 169 2 is_stmt 1 view .LVU304
 169:LUFA-100807/LUFA/Drivers/USB/Class/Device/RNDIS.c **** 	{
 1334               		.loc 1 169 32 is_stmt 0 view .LVU305
 1335 0078 F801      		movw r30,r16
 1336 007a EA56      		subi r30,106
 1337 007c FF4F      		sbci r31,-1
 169:LUFA-100807/LUFA/Drivers/USB/Class/Device/RNDIS.c **** 	{
 1338               		.loc 1 169 5 view .LVU306
 1339 007e 8081      		ld r24,Z
 1340 0080 8230      		cpi r24,lo8(2)
 1341 0082 01F4      		brne .L55
 169:LUFA-100807/LUFA/Drivers/USB/Class/Device/RNDIS.c **** 	{
 1342               		.loc 1 169 75 discriminator 1 view .LVU307
 1343 0084 F801      		movw r30,r16
 1344 0086 818D      		ldd r24,Z+25
 1345 0088 928D      		ldd r25,Z+26
 1346 008a A38D      		ldd r26,Z+27
 1347 008c B48D      		ldd r27,Z+28
 1348 008e 892B      		or r24,r25
 1349 0090 8A2B      		or r24,r26
 1350 0092 8B2B      		or r24,r27
 1351 0094 01F4      		brne .L55
 1352               	.LBB116:
 171:LUFA-100807/LUFA/Drivers/USB/Class/Device/RNDIS.c **** 
 1353               		.loc 1 171 3 is_stmt 1 view .LVU308
 173:LUFA-100807/LUFA/Drivers/USB/Class/Device/RNDIS.c **** 
 1354               		.loc 1 173 3 view .LVU309
 1355 0096 8581      		ldd r24,Z+5
 1356               	.LVL85:
 1357               	.LBB117:
 1358               	.LBI117:
 296:LUFA-100807/LUFA/Drivers/USB/Class/Device/../../HighLevel/../LowLevel/Endpoint.h **** 			{
 1359               		.loc 2 296 23 view .LVU310
 1360               	.LBB118:
 299:LUFA-100807/LUFA/Drivers/USB/Class/Device/../../HighLevel/../LowLevel/Endpoint.h **** 				#endif			
 1361               		.loc 2 299 6 view .LVU311
 299:LUFA-100807/LUFA/Drivers/USB/Class/Device/../../HighLevel/../LowLevel/Endpoint.h **** 				#endif			
 1362               		.loc 2 299 12 is_stmt 0 view .LVU312
 1363 0098 8093 E900 		sts 233,r24
 1364               	.LVL86:
 299:LUFA-100807/LUFA/Drivers/USB/Class/Device/../../HighLevel/../LowLevel/Endpoint.h **** 				#endif			
 1365               		.loc 2 299 12 view .LVU313
 1366               	.LBE118:
 1367               	.LBE117:
 175:LUFA-100807/LUFA/Drivers/USB/Class/Device/RNDIS.c **** 		{
 1368               		.loc 1 175 3 is_stmt 1 view .LVU314
 1369               	.LBB119:
 1370               	.LBI119:
 415:LUFA-100807/LUFA/Drivers/USB/Class/Device/../../HighLevel/../LowLevel/Endpoint.h **** 			{
 1371               		.loc 2 415 23 view .LVU315
 1372               	.LBB120:
 417:LUFA-100807/LUFA/Drivers/USB/Class/Device/../../HighLevel/../LowLevel/Endpoint.h **** 			}
 1373               		.loc 2 417 5 view .LVU316
 417:LUFA-100807/LUFA/Drivers/USB/Class/Device/../../HighLevel/../LowLevel/Endpoint.h **** 			}
 1374               		.loc 2 417 14 is_stmt 0 view .LVU317
 1375 009c 8091 E800 		lds r24,232
 1376               	.LBE120:
 1377               	.LBE119:
 175:LUFA-100807/LUFA/Drivers/USB/Class/Device/RNDIS.c **** 		{
 1378               		.loc 1 175 6 view .LVU318
 1379 00a0 82FF      		sbrs r24,2
 1380 00a2 00C0      		rjmp .L60
 175:LUFA-100807/LUFA/Drivers/USB/Class/Device/RNDIS.c **** 		{
 1381               		.loc 1 175 70 discriminator 1 view .LVU319
 1382 00a4 7801      		movw r14,r16
 1383 00a6 F7E8      		ldi r31,-121
 1384 00a8 EF1A      		sub r14,r31
 1385 00aa F9EF      		ldi r31,-7
 1386 00ac FF0A      		sbc r15,r31
 175:LUFA-100807/LUFA/Drivers/USB/Class/Device/RNDIS.c **** 		{
 1387               		.loc 1 175 32 discriminator 1 view .LVU320
 1388 00ae D701      		movw r26,r14
 1389 00b0 8C91      		ld r24,X
 1390 00b2 8111      		cpse r24,__zero_reg__
 1391 00b4 00C0      		rjmp .L60
 177:LUFA-100807/LUFA/Drivers/USB/Class/Device/RNDIS.c **** 
 1392               		.loc 1 177 4 is_stmt 1 view .LVU321
 1393 00b6 50E0      		ldi r21,0
 1394 00b8 40E0      		ldi r20,0
 1395 00ba 6CE2      		ldi r22,lo8(44)
 1396 00bc 70E0      		ldi r23,0
 1397 00be CE01      		movw r24,r28
 1398 00c0 0196      		adiw r24,1
 1399 00c2 0E94 0000 		call Endpoint_Read_Stream_LE
 1400               	.LVL87:
 179:LUFA-100807/LUFA/Drivers/USB/Class/Device/RNDIS.c **** 			{
 1401               		.loc 1 179 4 view .LVU322
 179:LUFA-100807/LUFA/Drivers/USB/Class/Device/RNDIS.c **** 			{
 1402               		.loc 1 179 25 is_stmt 0 view .LVU323
 1403 00c6 6D85      		ldd r22,Y+13
 1404 00c8 7E85      		ldd r23,Y+14
 1405 00ca 8F85      		ldd r24,Y+15
 1406 00cc 9889      		ldd r25,Y+16
 179:LUFA-100807/LUFA/Drivers/USB/Class/Device/RNDIS.c **** 			{
 1407               		.loc 1 179 7 view .LVU324
 1408 00ce 6D3D      		cpi r22,-35
 1409 00d0 B5E0      		ldi r27,5
 1410 00d2 7B07      		cpc r23,r27
 1411 00d4 8105      		cpc r24,__zero_reg__
 1412 00d6 9105      		cpc r25,__zero_reg__
 1413 00d8 00F0      		brlo .L61
 181:LUFA-100807/LUFA/Drivers/USB/Class/Device/RNDIS.c **** 				return;
 1414               		.loc 1 181 5 is_stmt 1 view .LVU325
 1415               	.LBB121:
 1416               	.LBI121:
 487:LUFA-100807/LUFA/Drivers/USB/Class/Device/../../HighLevel/../LowLevel/Endpoint.h **** 			{
 1417               		.loc 2 487 23 view .LVU326
 1418               	.LBB122:
 489:LUFA-100807/LUFA/Drivers/USB/Class/Device/../../HighLevel/../LowLevel/Endpoint.h **** 			}
 1419               		.loc 2 489 5 view .LVU327
 489:LUFA-100807/LUFA/Drivers/USB/Class/Device/../../HighLevel/../LowLevel/Endpoint.h **** 			}
 1420               		.loc 2 489 12 is_stmt 0 view .LVU328
 1421 00da 8091 EB00 		lds r24,235
 1422 00de 8062      		ori r24,lo8(32)
 1423 00e0 8093 EB00 		sts 235,r24
 1424               	.LBE122:
 1425               	.LBE121:
 182:LUFA-100807/LUFA/Drivers/USB/Class/Device/RNDIS.c **** 			}
 1426               		.loc 1 182 5 is_stmt 1 view .LVU329
 1427               	.LVL88:
 1428               	.L55:
 1429               	/* epilogue start */
 182:LUFA-100807/LUFA/Drivers/USB/Class/Device/RNDIS.c **** 			}
 1430               		.loc 1 182 5 is_stmt 0 view .LVU330
 1431               	.LBE116:
 212:LUFA-100807/LUFA/Drivers/USB/Class/Device/RNDIS.c **** 
 1432               		.loc 1 212 1 view .LVU331
 1433 00e4 AC96      		adiw r28,44
 1434 00e6 0FB6      		in __tmp_reg__,__SREG__
 1435 00e8 F894      		cli
 1436 00ea DEBF      		out __SP_H__,r29
 1437 00ec 0FBE      		out __SREG__,__tmp_reg__
 1438 00ee CDBF      		out __SP_L__,r28
 1439 00f0 DF91      		pop r29
 1440 00f2 CF91      		pop r28
 1441 00f4 1F91      		pop r17
 1442 00f6 0F91      		pop r16
 1443               	.LVL89:
 212:LUFA-100807/LUFA/Drivers/USB/Class/Device/RNDIS.c **** 
 1444               		.loc 1 212 1 view .LVU332
 1445 00f8 FF90      		pop r15
 1446 00fa EF90      		pop r14
 1447 00fc 0895      		ret
 1448               	.LVL90:
 1449               	.L61:
 1450               	.LBB131:
 185:LUFA-100807/LUFA/Drivers/USB/Class/Device/RNDIS.c **** 
 1451               		.loc 1 185 4 is_stmt 1 view .LVU333
 1452 00fe 50E0      		ldi r21,0
 1453 0100 40E0      		ldi r20,0
 1454 0102 C801      		movw r24,r16
 1455 0104 8556      		subi r24,101
 1456 0106 9F4F      		sbci r25,-1
 1457 0108 0E94 0000 		call Endpoint_Read_Stream_LE
 1458               	.LVL91:
 187:LUFA-100807/LUFA/Drivers/USB/Class/Device/RNDIS.c **** 			
 1459               		.loc 1 187 4 view .LVU334
 1460               	.LBB123:
 1461               	.LBI123:
 466:LUFA-100807/LUFA/Drivers/USB/Class/Device/../../HighLevel/../LowLevel/Endpoint.h **** 			{
 1462               		.loc 2 466 23 view .LVU335
 1463               	.LBB124:
 469:LUFA-100807/LUFA/Drivers/USB/Class/Device/../../HighLevel/../LowLevel/Endpoint.h **** 				#else
 1464               		.loc 2 469 6 view .LVU336
 469:LUFA-100807/LUFA/Drivers/USB/Class/Device/../../HighLevel/../LowLevel/Endpoint.h **** 				#else
 1465               		.loc 2 469 13 is_stmt 0 view .LVU337
 1466 010c 8091 E800 		lds r24,232
 1467 0110 8B77      		andi r24,lo8(123)
 1468 0112 8093 E800 		sts 232,r24
 1469               	.LBE124:
 1470               	.LBE123:
 189:LUFA-100807/LUFA/Drivers/USB/Class/Device/RNDIS.c **** 
 1471               		.loc 1 189 4 is_stmt 1 view .LVU338
 189:LUFA-100807/LUFA/Drivers/USB/Class/Device/RNDIS.c **** 
 1472               		.loc 1 189 50 is_stmt 0 view .LVU339
 1473 0116 8D85      		ldd r24,Y+13
 1474 0118 9E85      		ldd r25,Y+14
 1475 011a F801      		movw r30,r16
 1476 011c E958      		subi r30,-119
 1477 011e F94F      		sbci r31,-7
 1478 0120 9183      		std Z+1,r25
 1479 0122 8083      		st Z,r24
 191:LUFA-100807/LUFA/Drivers/USB/Class/Device/RNDIS.c **** 		}
 1480               		.loc 1 191 4 is_stmt 1 view .LVU340
 191:LUFA-100807/LUFA/Drivers/USB/Class/Device/RNDIS.c **** 		}
 1481               		.loc 1 191 52 is_stmt 0 view .LVU341
 1482 0124 81E0      		ldi r24,lo8(1)
 1483 0126 F701      		movw r30,r14
 1484 0128 8083      		st Z,r24
 1485               	.L60:
 194:LUFA-100807/LUFA/Drivers/USB/Class/Device/RNDIS.c **** 		
 1486               		.loc 1 194 3 is_stmt 1 view .LVU342
 1487 012a D801      		movw r26,r16
 1488 012c 1196      		adiw r26,1
 1489 012e 8C91      		ld r24,X
 1490               	.LVL92:
 1491               	.LBB125:
 1492               	.LBI125:
 296:LUFA-100807/LUFA/Drivers/USB/Class/Device/../../HighLevel/../LowLevel/Endpoint.h **** 			{
 1493               		.loc 2 296 23 view .LVU343
 1494               	.LBB126:
 299:LUFA-100807/LUFA/Drivers/USB/Class/Device/../../HighLevel/../LowLevel/Endpoint.h **** 				#endif			
 1495               		.loc 2 299 6 view .LVU344
 299:LUFA-100807/LUFA/Drivers/USB/Class/Device/../../HighLevel/../LowLevel/Endpoint.h **** 				#endif			
 1496               		.loc 2 299 12 is_stmt 0 view .LVU345
 1497 0130 8093 E900 		sts 233,r24
 1498               	.LVL93:
 299:LUFA-100807/LUFA/Drivers/USB/Class/Device/../../HighLevel/../LowLevel/Endpoint.h **** 				#endif			
 1499               		.loc 2 299 12 view .LVU346
 1500               	.LBE126:
 1501               	.LBE125:
 196:LUFA-100807/LUFA/Drivers/USB/Class/Device/RNDIS.c **** 		{
 1502               		.loc 1 196 3 is_stmt 1 view .LVU347
 1503               	.LBB127:
 1504               	.LBI127:
 403:LUFA-100807/LUFA/Drivers/USB/Class/Device/../../HighLevel/../LowLevel/Endpoint.h **** 			{
 1505               		.loc 2 403 23 view .LVU348
 1506               	.LBB128:
 405:LUFA-100807/LUFA/Drivers/USB/Class/Device/../../HighLevel/../LowLevel/Endpoint.h **** 			}
 1507               		.loc 2 405 5 view .LVU349
 405:LUFA-100807/LUFA/Drivers/USB/Class/Device/../../HighLevel/../LowLevel/Endpoint.h **** 			}
 1508               		.loc 2 405 14 is_stmt 0 view .LVU350
 1509 0134 8091 E800 		lds r24,232
 1510               	.LBE128:
 1511               	.LBE127:
 196:LUFA-100807/LUFA/Drivers/USB/Class/Device/RNDIS.c **** 		{
 1512               		.loc 1 196 6 view .LVU351
 1513 0138 80FF      		sbrs r24,0
 1514 013a 00C0      		rjmp .L55
 196:LUFA-100807/LUFA/Drivers/USB/Class/Device/RNDIS.c **** 		{
 1515               		.loc 1 196 65 discriminator 1 view .LVU352
 1516 013c 7801      		movw r14,r16
 1517 013e B8EA      		ldi r27,-88
 1518 0140 EB1A      		sub r14,r27
 1519 0142 B3EF      		ldi r27,-13
 1520 0144 FB0A      		sbc r15,r27
 196:LUFA-100807/LUFA/Drivers/USB/Class/Device/RNDIS.c **** 		{
 1521               		.loc 1 196 28 discriminator 1 view .LVU353
 1522 0146 F701      		movw r30,r14
 1523 0148 8081      		ld r24,Z
 1524 014a 8823      		tst r24
 1525 014c 01F0      		breq .L55
 198:LUFA-100807/LUFA/Drivers/USB/Class/Device/RNDIS.c **** 
 1526               		.loc 1 198 4 is_stmt 1 view .LVU354
 1527 014e FE01      		movw r30,r28
 1528 0150 7196      		adiw r30,17
 1529 0152 8CE1      		ldi r24,lo8(28)
 1530 0154 DF01      		movw r26,r30
 1531               		0:
 1532 0156 1D92      		st X+,__zero_reg__
 1533 0158 8A95      		dec r24
 1534 015a 01F4      		brne 0b
 200:LUFA-100807/LUFA/Drivers/USB/Class/Device/RNDIS.c **** 			RNDISPacketHeader.MessageLength = (sizeof(RNDIS_Packet_Message_t) + RNDISInterfaceInfo->State.Fr
 1535               		.loc 1 200 4 view .LVU355
 200:LUFA-100807/LUFA/Drivers/USB/Class/Device/RNDIS.c **** 			RNDISPacketHeader.MessageLength = (sizeof(RNDIS_Packet_Message_t) + RNDISInterfaceInfo->State.Fr
 1536               		.loc 1 200 36 is_stmt 0 view .LVU356
 1537 015c 81E0      		ldi r24,lo8(1)
 1538 015e 90E0      		ldi r25,0
 1539 0160 A0E0      		ldi r26,0
 1540 0162 B0E0      		ldi r27,0
 1541 0164 8983      		std Y+1,r24
 1542 0166 9A83      		std Y+2,r25
 1543 0168 AB83      		std Y+3,r26
 1544 016a BC83      		std Y+4,r27
 201:LUFA-100807/LUFA/Drivers/USB/Class/Device/RNDIS.c **** 			RNDISPacketHeader.DataOffset    = (sizeof(RNDIS_Packet_Message_t) - sizeof(RNDIS_Message_Header_
 1545               		.loc 1 201 4 is_stmt 1 view .LVU357
 201:LUFA-100807/LUFA/Drivers/USB/Class/Device/RNDIS.c **** 			RNDISPacketHeader.DataOffset    = (sizeof(RNDIS_Packet_Message_t) - sizeof(RNDIS_Message_Header_
 1546               		.loc 1 201 106 is_stmt 0 view .LVU358
 1547 016c F801      		movw r30,r16
 1548 016e EA5A      		subi r30,-86
 1549 0170 F34F      		sbci r31,-13
 1550 0172 8081      		ld r24,Z
 1551 0174 9181      		ldd r25,Z+1
 201:LUFA-100807/LUFA/Drivers/USB/Class/Device/RNDIS.c **** 			RNDISPacketHeader.DataOffset    = (sizeof(RNDIS_Packet_Message_t) - sizeof(RNDIS_Message_Header_
 1552               		.loc 1 201 70 view .LVU359
 1553 0176 AC01      		movw r20,r24
 1554 0178 445D      		subi r20,-44
 1555 017a 5F4F      		sbci r21,-1
 1556 017c 70E0      		ldi r23,0
 1557 017e 60E0      		ldi r22,0
 1558 0180 4D83      		std Y+5,r20
 1559 0182 5E83      		std Y+6,r21
 1560 0184 6F83      		std Y+7,r22
 1561 0186 7887      		std Y+8,r23
 202:LUFA-100807/LUFA/Drivers/USB/Class/Device/RNDIS.c **** 			RNDISPacketHeader.DataLength    = RNDISInterfaceInfo->State.FrameOUT.FrameLength;
 1562               		.loc 1 202 4 is_stmt 1 view .LVU360
 202:LUFA-100807/LUFA/Drivers/USB/Class/Device/RNDIS.c **** 			RNDISPacketHeader.DataLength    = RNDISInterfaceInfo->State.FrameOUT.FrameLength;
 1563               		.loc 1 202 36 is_stmt 0 view .LVU361
 1564 0188 44E2      		ldi r20,lo8(36)
 1565 018a 50E0      		ldi r21,0
 1566 018c 60E0      		ldi r22,0
 1567 018e 70E0      		ldi r23,0
 1568 0190 4987      		std Y+9,r20
 1569 0192 5A87      		std Y+10,r21
 1570 0194 6B87      		std Y+11,r22
 1571 0196 7C87      		std Y+12,r23
 203:LUFA-100807/LUFA/Drivers/USB/Class/Device/RNDIS.c **** 
 1572               		.loc 1 203 4 is_stmt 1 view .LVU362
 203:LUFA-100807/LUFA/Drivers/USB/Class/Device/RNDIS.c **** 
 1573               		.loc 1 203 72 is_stmt 0 view .LVU363
 1574 0198 B0E0      		ldi r27,0
 1575 019a A0E0      		ldi r26,0
 1576 019c 8D87      		std Y+13,r24
 1577 019e 9E87      		std Y+14,r25
 1578 01a0 AF87      		std Y+15,r26
 1579 01a2 B88B      		std Y+16,r27
 205:LUFA-100807/LUFA/Drivers/USB/Class/Device/RNDIS.c **** 			Endpoint_Write_Stream_LE(RNDISInterfaceInfo->State.FrameOUT.FrameData, RNDISPacketHeader.DataLen
 1580               		.loc 1 205 4 is_stmt 1 view .LVU364
 1581 01a4 50E0      		ldi r21,0
 1582 01a6 40E0      		ldi r20,0
 1583 01a8 6CE2      		ldi r22,lo8(44)
 1584 01aa 70E0      		ldi r23,0
 1585 01ac CE01      		movw r24,r28
 1586 01ae 0196      		adiw r24,1
 1587 01b0 0E94 0000 		call Endpoint_Write_Stream_LE
 1588               	.LVL94:
 206:LUFA-100807/LUFA/Drivers/USB/Class/Device/RNDIS.c **** 			Endpoint_ClearIN();
 1589               		.loc 1 206 4 view .LVU365
 1590 01b4 6D85      		ldd r22,Y+13
 1591 01b6 7E85      		ldd r23,Y+14
 1592 01b8 50E0      		ldi r21,0
 1593 01ba 40E0      		ldi r20,0
 1594 01bc C801      		movw r24,r16
 1595 01be 8658      		subi r24,-122
 1596 01c0 994F      		sbci r25,-7
 1597 01c2 0E94 0000 		call Endpoint_Write_Stream_LE
 1598               	.LVL95:
 207:LUFA-100807/LUFA/Drivers/USB/Class/Device/RNDIS.c **** 			
 1599               		.loc 1 207 4 view .LVU366
 1600               	.LBB129:
 1601               	.LBI129:
 451:LUFA-100807/LUFA/Drivers/USB/Class/Device/../../HighLevel/../LowLevel/Endpoint.h **** 			{
 1602               		.loc 2 451 23 view .LVU367
 1603               	.LBB130:
 454:LUFA-100807/LUFA/Drivers/USB/Class/Device/../../HighLevel/../LowLevel/Endpoint.h **** 				#else
 1604               		.loc 2 454 6 view .LVU368
 454:LUFA-100807/LUFA/Drivers/USB/Class/Device/../../HighLevel/../LowLevel/Endpoint.h **** 				#else
 1605               		.loc 2 454 13 is_stmt 0 view .LVU369
 1606 01c6 8091 E800 		lds r24,232
 1607 01ca 8E77      		andi r24,lo8(126)
 1608 01cc 8093 E800 		sts 232,r24
 1609               	.LBE130:
 1610               	.LBE129:
 209:LUFA-100807/LUFA/Drivers/USB/Class/Device/RNDIS.c **** 		}
 1611               		.loc 1 209 4 is_stmt 1 view .LVU370
 209:LUFA-100807/LUFA/Drivers/USB/Class/Device/RNDIS.c **** 		}
 1612               		.loc 1 209 53 is_stmt 0 view .LVU371
 1613 01d0 F701      		movw r30,r14
 1614 01d2 1082      		st Z,__zero_reg__
 1615 01d4 00C0      		rjmp .L55
 1616               	.LBE131:
 1617               		.cfi_endproc
 1618               	.LFE67:
 1620               		.section	.progmem.data,"a",@progbits
 1623               	AdapterSupportedOIDList:
 1624 0000 01        		.byte	1
 1625 0001 01        		.byte	1
 1626 0002 01        		.byte	1
 1627 0003 00        		.byte	0
 1628 0004 02        		.byte	2
 1629 0005 02        		.byte	2
 1630 0006 01        		.byte	1
 1631 0007 00        		.byte	0
 1632 0008 02        		.byte	2
 1633 0009 01        		.byte	1
 1634 000a 01        		.byte	1
 1635 000b 00        		.byte	0
 1636 000c 03        		.byte	3
 1637 000d 01        		.byte	1
 1638 000e 01        		.byte	1
 1639 000f 00        		.byte	0
 1640 0010 04        		.byte	4
 1641 0011 01        		.byte	1
 1642 0012 01        		.byte	1
 1643 0013 00        		.byte	0
 1644 0014 06        		.byte	6
 1645 0015 01        		.byte	1
 1646 0016 01        		.byte	1
 1647 0017 00        		.byte	0
 1648 0018 11        		.byte	17
 1649 0019 01        		.byte	1
 1650 001a 01        		.byte	1
 1651 001b 00        		.byte	0
 1652 001c 07        		.byte	7
 1653 001d 01        		.byte	1
 1654 001e 01        		.byte	1
 1655 001f 00        		.byte	0
 1656 0020 0A        		.byte	10
 1657 0021 01        		.byte	1
 1658 0022 01        		.byte	1
 1659 0023 00        		.byte	0
 1660 0024 0B        		.byte	11
 1661 0025 01        		.byte	1
 1662 0026 01        		.byte	1
 1663 0027 00        		.byte	0
 1664 0028 0C        		.byte	12
 1665 0029 01        		.byte	1
 1666 002a 01        		.byte	1
 1667 002b 00        		.byte	0
 1668 002c 0D        		.byte	13
 1669 002d 01        		.byte	1
 1670 002e 01        		.byte	1
 1671 002f 00        		.byte	0
 1672 0030 0E        		.byte	14
 1673 0031 01        		.byte	1
 1674 0032 01        		.byte	1
 1675 0033 00        		.byte	0
 1676 0034 11        		.byte	17
 1677 0035 01        		.byte	1
 1678 0036 01        		.byte	1
 1679 0037 00        		.byte	0
 1680 0038 14        		.byte	20
 1681 0039 01        		.byte	1
 1682 003a 01        		.byte	1
 1683 003b 00        		.byte	0
 1684 003c 01        		.byte	1
 1685 003d 01        		.byte	1
 1686 003e 02        		.byte	2
 1687 003f 00        		.byte	0
 1688 0040 02        		.byte	2
 1689 0041 01        		.byte	1
 1690 0042 02        		.byte	2
 1691 0043 00        		.byte	0
 1692 0044 03        		.byte	3
 1693 0045 01        		.byte	1
 1694 0046 02        		.byte	2
 1695 0047 00        		.byte	0
 1696 0048 04        		.byte	4
 1697 0049 01        		.byte	1
 1698 004a 02        		.byte	2
 1699 004b 00        		.byte	0
 1700 004c 05        		.byte	5
 1701 004d 01        		.byte	1
 1702 004e 02        		.byte	2
 1703 004f 00        		.byte	0
 1704 0050 01        		.byte	1
 1705 0051 01        		.byte	1
 1706 0052 01        		.byte	1
 1707 0053 01        		.byte	1
 1708 0054 02        		.byte	2
 1709 0055 01        		.byte	1
 1710 0056 01        		.byte	1
 1711 0057 01        		.byte	1
 1712 0058 03        		.byte	3
 1713 0059 01        		.byte	1
 1714 005a 01        		.byte	1
 1715 005b 01        		.byte	1
 1716 005c 04        		.byte	4
 1717 005d 01        		.byte	1
 1718 005e 01        		.byte	1
 1719 005f 01        		.byte	1
 1720 0060 01        		.byte	1
 1721 0061 01        		.byte	1
 1722 0062 02        		.byte	2
 1723 0063 01        		.byte	1
 1724 0064 02        		.byte	2
 1725 0065 01        		.byte	1
 1726 0066 02        		.byte	2
 1727 0067 01        		.byte	1
 1728 0068 03        		.byte	3
 1729 0069 01        		.byte	1
 1730 006a 02        		.byte	2
 1731 006b 01        		.byte	1
 1732               		.text
 1733               	.Letext0:
 1734               		.file 3 "/opt/homebrew/Cellar/avr-gcc@9/9.4.0_1/avr/include/stdint.h"
 1735               		.file 4 "LUFA-100807/LUFA/Drivers/USB/Class/Device/../../HighLevel/../LowLevel/../HighLevel/StdReq
 1736               		.file 5 "LUFA-100807/LUFA/Drivers/USB/Class/Device/../../HighLevel/../LowLevel/../HighLevel/Device
 1737               		.file 6 "LUFA-100807/LUFA/Drivers/USB/Class/Device/../../HighLevel/USBTask.h"
 1738               		.file 7 "LUFA-100807/LUFA/Drivers/USB/Class/Device/../../HighLevel/../LowLevel/Device.h"
 1739               		.file 8 "LUFA-100807/LUFA/Drivers/USB/Class/Device/../Common/RNDIS.h"
 1740               		.file 9 "LUFA-100807/LUFA/Drivers/USB/Class/Device/RNDIS.h"
 1741               		.file 10 "/opt/homebrew/Cellar/avr-gcc@9/9.4.0_1/avr/include/avr/pgmspace.h"
 1742               		.file 11 "<built-in>"
DEFINED SYMBOLS
                            *ABS*:00000000 RNDIS.c
/var/folders/bq/146k_07x5pn0twfdhlrpxh7h0000gn/T//ccjsgxbi.s:2      *ABS*:0000003e __SP_H__
/var/folders/bq/146k_07x5pn0twfdhlrpxh7h0000gn/T//ccjsgxbi.s:3      *ABS*:0000003d __SP_L__
/var/folders/bq/146k_07x5pn0twfdhlrpxh7h0000gn/T//ccjsgxbi.s:4      *ABS*:0000003f __SREG__
/var/folders/bq/146k_07x5pn0twfdhlrpxh7h0000gn/T//ccjsgxbi.s:5      *ABS*:00000000 __tmp_reg__
/var/folders/bq/146k_07x5pn0twfdhlrpxh7h0000gn/T//ccjsgxbi.s:6      *ABS*:00000001 __zero_reg__
/var/folders/bq/146k_07x5pn0twfdhlrpxh7h0000gn/T//ccjsgxbi.s:13     .text.RNDIS_Device_ProcessControlRequest:00000000 RNDIS_Device_ProcessControlRequest
/var/folders/bq/146k_07x5pn0twfdhlrpxh7h0000gn/T//ccjsgxbi.s:17     .text.RNDIS_Device_ProcessControlRequest:00000000 .Loc.0
/var/folders/bq/146k_07x5pn0twfdhlrpxh7h0000gn/T//ccjsgxbi.s:18     .text.RNDIS_Device_ProcessControlRequest:00000000 L0
/var/folders/bq/146k_07x5pn0twfdhlrpxh7h0000gn/T//ccjsgxbi.s:19     .text.RNDIS_Device_ProcessControlRequest:00000000 .Loc.1
/var/folders/bq/146k_07x5pn0twfdhlrpxh7h0000gn/T//ccjsgxbi.s:41     .text.RNDIS_Device_ProcessControlRequest:0000000a .Loc.2
/var/folders/bq/146k_07x5pn0twfdhlrpxh7h0000gn/T//ccjsgxbi.s:45     .text.RNDIS_Device_ProcessControlRequest:0000000a .Loc.3
/var/folders/bq/146k_07x5pn0twfdhlrpxh7h0000gn/T//ccjsgxbi.s:47     .text.RNDIS_Device_ProcessControlRequest:0000000a .Loc.4
/var/folders/bq/146k_07x5pn0twfdhlrpxh7h0000gn/T//ccjsgxbi.s:48     .text.RNDIS_Device_ProcessControlRequest:0000000a .Loc.5
/var/folders/bq/146k_07x5pn0twfdhlrpxh7h0000gn/T//ccjsgxbi.s:51     .text.RNDIS_Device_ProcessControlRequest:0000000e .Loc.6
/var/folders/bq/146k_07x5pn0twfdhlrpxh7h0000gn/T//ccjsgxbi.s:54     .text.RNDIS_Device_ProcessControlRequest:0000000e .Loc.7
/var/folders/bq/146k_07x5pn0twfdhlrpxh7h0000gn/T//ccjsgxbi.s:57     .text.RNDIS_Device_ProcessControlRequest:00000012 .Loc.8
/var/folders/bq/146k_07x5pn0twfdhlrpxh7h0000gn/T//ccjsgxbi.s:58     .text.RNDIS_Device_ProcessControlRequest:00000012 .Loc.9
/var/folders/bq/146k_07x5pn0twfdhlrpxh7h0000gn/T//ccjsgxbi.s:60     .text.RNDIS_Device_ProcessControlRequest:00000014 .Loc.10
/var/folders/bq/146k_07x5pn0twfdhlrpxh7h0000gn/T//ccjsgxbi.s:66     .text.RNDIS_Device_ProcessControlRequest:00000022 .Loc.11
/var/folders/bq/146k_07x5pn0twfdhlrpxh7h0000gn/T//ccjsgxbi.s:67     .text.RNDIS_Device_ProcessControlRequest:00000022 .Loc.12
/var/folders/bq/146k_07x5pn0twfdhlrpxh7h0000gn/T//ccjsgxbi.s:69     .text.RNDIS_Device_ProcessControlRequest:00000026 .Loc.13
/var/folders/bq/146k_07x5pn0twfdhlrpxh7h0000gn/T//ccjsgxbi.s:73     .text.RNDIS_Device_ProcessControlRequest:0000002e L0
/var/folders/bq/146k_07x5pn0twfdhlrpxh7h0000gn/T//ccjsgxbi.s:78     .text.RNDIS_Device_ProcessControlRequest:00000030 .Loc.14
/var/folders/bq/146k_07x5pn0twfdhlrpxh7h0000gn/T//ccjsgxbi.s:86     .text.RNDIS_Device_ProcessControlRequest:0000003a .Loc.15
/var/folders/bq/146k_07x5pn0twfdhlrpxh7h0000gn/T//ccjsgxbi.s:87     .text.RNDIS_Device_ProcessControlRequest:0000003a .Loc.16
/var/folders/bq/146k_07x5pn0twfdhlrpxh7h0000gn/T//ccjsgxbi.s:91     .text.RNDIS_Device_ProcessControlRequest:00000042 .Loc.17
/var/folders/bq/146k_07x5pn0twfdhlrpxh7h0000gn/T//ccjsgxbi.s:94     .text.RNDIS_Device_ProcessControlRequest:00000042 .Loc.18
/var/folders/bq/146k_07x5pn0twfdhlrpxh7h0000gn/T//ccjsgxbi.s:96     .text.RNDIS_Device_ProcessControlRequest:00000042 .Loc.19
/var/folders/bq/146k_07x5pn0twfdhlrpxh7h0000gn/T//ccjsgxbi.s:97     .text.RNDIS_Device_ProcessControlRequest:00000042 .Loc.20
/var/folders/bq/146k_07x5pn0twfdhlrpxh7h0000gn/T//ccjsgxbi.s:103    .text.RNDIS_Device_ProcessControlRequest:0000004c .Loc.21
/var/folders/bq/146k_07x5pn0twfdhlrpxh7h0000gn/T//ccjsgxbi.s:110    .text.RNDIS_Device_ProcessControlRequest:0000005c .Loc.22
/var/folders/bq/146k_07x5pn0twfdhlrpxh7h0000gn/T//ccjsgxbi.s:113    .text.RNDIS_Device_ProcessControlRequest:0000005c .Loc.23
/var/folders/bq/146k_07x5pn0twfdhlrpxh7h0000gn/T//ccjsgxbi.s:115    .text.RNDIS_Device_ProcessControlRequest:0000005c .Loc.24
/var/folders/bq/146k_07x5pn0twfdhlrpxh7h0000gn/T//ccjsgxbi.s:116    .text.RNDIS_Device_ProcessControlRequest:0000005c .Loc.25
/var/folders/bq/146k_07x5pn0twfdhlrpxh7h0000gn/T//ccjsgxbi.s:117    .text.RNDIS_Device_ProcessControlRequest:0000005c .Loc.26
/var/folders/bq/146k_07x5pn0twfdhlrpxh7h0000gn/T//ccjsgxbi.s:122    .text.RNDIS_Device_ProcessControlRequest:00000064 .Loc.27
/var/folders/bq/146k_07x5pn0twfdhlrpxh7h0000gn/T//ccjsgxbi.s:127    .text.RNDIS_Device_ProcessControlRequest:0000006e L0
/var/folders/bq/146k_07x5pn0twfdhlrpxh7h0000gn/T//ccjsgxbi.s:134    .text.RNDIS_Device_ProcessControlRequest:0000007c L0
/var/folders/bq/146k_07x5pn0twfdhlrpxh7h0000gn/T//ccjsgxbi.s:140    .text.RNDIS_Device_ProcessControlRequest:00000088 L0
/var/folders/bq/146k_07x5pn0twfdhlrpxh7h0000gn/T//ccjsgxbi.s:148    .text.RNDIS_Device_ProcessControlRequest:00000092 .Loc.28
/var/folders/bq/146k_07x5pn0twfdhlrpxh7h0000gn/T//ccjsgxbi.s:151    .text.RNDIS_Device_ProcessControlRequest:00000092 .Loc.29
/var/folders/bq/146k_07x5pn0twfdhlrpxh7h0000gn/T//ccjsgxbi.s:154    .text.RNDIS_Device_ProcessControlRequest:00000092 .Loc.30
/var/folders/bq/146k_07x5pn0twfdhlrpxh7h0000gn/T//ccjsgxbi.s:156    .text.RNDIS_Device_ProcessControlRequest:00000092 .Loc.31
/var/folders/bq/146k_07x5pn0twfdhlrpxh7h0000gn/T//ccjsgxbi.s:157    .text.RNDIS_Device_ProcessControlRequest:00000092 .Loc.32
/var/folders/bq/146k_07x5pn0twfdhlrpxh7h0000gn/T//ccjsgxbi.s:161    .text.RNDIS_Device_ProcessControlRequest:0000009c .Loc.33
/var/folders/bq/146k_07x5pn0twfdhlrpxh7h0000gn/T//ccjsgxbi.s:165    .text.RNDIS_Device_ProcessControlRequest:0000009e .Loc.34
/var/folders/bq/146k_07x5pn0twfdhlrpxh7h0000gn/T//ccjsgxbi.s:170    .text.RNDIS_Device_ProcessControlRequest:0000009e .Loc.35
/var/folders/bq/146k_07x5pn0twfdhlrpxh7h0000gn/T//ccjsgxbi.s:175    .text.RNDIS_Device_ProcessControlRequest:000000a8 L0
/var/folders/bq/146k_07x5pn0twfdhlrpxh7h0000gn/T//ccjsgxbi.s:182    .text.RNDIS_Device_ProcessControlRequest:000000b2 .Loc.36
/var/folders/bq/146k_07x5pn0twfdhlrpxh7h0000gn/T//ccjsgxbi.s:183    .text.RNDIS_Device_ProcessControlRequest:000000b2 .Loc.37
/var/folders/bq/146k_07x5pn0twfdhlrpxh7h0000gn/T//ccjsgxbi.s:189    .text.RNDIS_Device_ProcessControlRequest:000000bc .Loc.38
/var/folders/bq/146k_07x5pn0twfdhlrpxh7h0000gn/T//ccjsgxbi.s:191    .text.RNDIS_Device_ProcessControlRequest:000000bc .Loc.39
/var/folders/bq/146k_07x5pn0twfdhlrpxh7h0000gn/T//ccjsgxbi.s:192    .text.RNDIS_Device_ProcessControlRequest:000000bc .Loc.40
/var/folders/bq/146k_07x5pn0twfdhlrpxh7h0000gn/T//ccjsgxbi.s:193    .text.RNDIS_Device_ProcessControlRequest:000000bc .Loc.41
/var/folders/bq/146k_07x5pn0twfdhlrpxh7h0000gn/T//ccjsgxbi.s:202    .text.RNDIS_Device_ProcessControlRequest:000000cc .Loc.42
/var/folders/bq/146k_07x5pn0twfdhlrpxh7h0000gn/T//ccjsgxbi.s:203    .text.RNDIS_Device_ProcessControlRequest:000000cc .Loc.43
/var/folders/bq/146k_07x5pn0twfdhlrpxh7h0000gn/T//ccjsgxbi.s:215    .text.RNDIS_Device_ProcessControlRequest:000000de .Loc.44
/var/folders/bq/146k_07x5pn0twfdhlrpxh7h0000gn/T//ccjsgxbi.s:216    .text.RNDIS_Device_ProcessControlRequest:000000de .Loc.45
/var/folders/bq/146k_07x5pn0twfdhlrpxh7h0000gn/T//ccjsgxbi.s:222    .text.RNDIS_Device_ProcessControlRequest:000000e8 .Loc.46
/var/folders/bq/146k_07x5pn0twfdhlrpxh7h0000gn/T//ccjsgxbi.s:224    .text.RNDIS_Device_ProcessControlRequest:000000e8 .Loc.47
/var/folders/bq/146k_07x5pn0twfdhlrpxh7h0000gn/T//ccjsgxbi.s:225    .text.RNDIS_Device_ProcessControlRequest:000000e8 .Loc.48
/var/folders/bq/146k_07x5pn0twfdhlrpxh7h0000gn/T//ccjsgxbi.s:226    .text.RNDIS_Device_ProcessControlRequest:000000e8 .Loc.49
/var/folders/bq/146k_07x5pn0twfdhlrpxh7h0000gn/T//ccjsgxbi.s:235    .text.RNDIS_Device_ProcessControlRequest:000000f8 .Loc.50
/var/folders/bq/146k_07x5pn0twfdhlrpxh7h0000gn/T//ccjsgxbi.s:236    .text.RNDIS_Device_ProcessControlRequest:000000f8 .Loc.51
/var/folders/bq/146k_07x5pn0twfdhlrpxh7h0000gn/T//ccjsgxbi.s:245    .text.RNDIS_Device_ProcessControlRequest:00000108 .Loc.52
/var/folders/bq/146k_07x5pn0twfdhlrpxh7h0000gn/T//ccjsgxbi.s:246    .text.RNDIS_Device_ProcessControlRequest:00000108 .Loc.53
/var/folders/bq/146k_07x5pn0twfdhlrpxh7h0000gn/T//ccjsgxbi.s:247    .text.RNDIS_Device_ProcessControlRequest:00000108 .Loc.54
/var/folders/bq/146k_07x5pn0twfdhlrpxh7h0000gn/T//ccjsgxbi.s:252    .text.RNDIS_Device_ProcessControlRequest:00000110 .Loc.55
/var/folders/bq/146k_07x5pn0twfdhlrpxh7h0000gn/T//ccjsgxbi.s:253    .text.RNDIS_Device_ProcessControlRequest:00000110 .Loc.56
/var/folders/bq/146k_07x5pn0twfdhlrpxh7h0000gn/T//ccjsgxbi.s:262    .text.RNDIS_Device_ProcessControlRequest:00000120 .Loc.57
/var/folders/bq/146k_07x5pn0twfdhlrpxh7h0000gn/T//ccjsgxbi.s:263    .text.RNDIS_Device_ProcessControlRequest:00000120 .Loc.58
/var/folders/bq/146k_07x5pn0twfdhlrpxh7h0000gn/T//ccjsgxbi.s:268    .text.RNDIS_Device_ProcessControlRequest:00000128 .Loc.59
/var/folders/bq/146k_07x5pn0twfdhlrpxh7h0000gn/T//ccjsgxbi.s:269    .text.RNDIS_Device_ProcessControlRequest:00000128 .Loc.60
/var/folders/bq/146k_07x5pn0twfdhlrpxh7h0000gn/T//ccjsgxbi.s:274    .text.RNDIS_Device_ProcessControlRequest:00000130 .Loc.61
/var/folders/bq/146k_07x5pn0twfdhlrpxh7h0000gn/T//ccjsgxbi.s:275    .text.RNDIS_Device_ProcessControlRequest:00000130 .Loc.62
/var/folders/bq/146k_07x5pn0twfdhlrpxh7h0000gn/T//ccjsgxbi.s:280    .text.RNDIS_Device_ProcessControlRequest:00000138 .Loc.63
/var/folders/bq/146k_07x5pn0twfdhlrpxh7h0000gn/T//ccjsgxbi.s:281    .text.RNDIS_Device_ProcessControlRequest:00000138 .Loc.64
/var/folders/bq/146k_07x5pn0twfdhlrpxh7h0000gn/T//ccjsgxbi.s:286    .text.RNDIS_Device_ProcessControlRequest:00000140 .Loc.65
/var/folders/bq/146k_07x5pn0twfdhlrpxh7h0000gn/T//ccjsgxbi.s:287    .text.RNDIS_Device_ProcessControlRequest:00000140 .Loc.66
/var/folders/bq/146k_07x5pn0twfdhlrpxh7h0000gn/T//ccjsgxbi.s:296    .text.RNDIS_Device_ProcessControlRequest:00000150 .Loc.67
/var/folders/bq/146k_07x5pn0twfdhlrpxh7h0000gn/T//ccjsgxbi.s:297    .text.RNDIS_Device_ProcessControlRequest:00000150 .Loc.68
/var/folders/bq/146k_07x5pn0twfdhlrpxh7h0000gn/T//ccjsgxbi.s:304    .text.RNDIS_Device_ProcessControlRequest:0000015c .Loc.69
/var/folders/bq/146k_07x5pn0twfdhlrpxh7h0000gn/T//ccjsgxbi.s:305    .text.RNDIS_Device_ProcessControlRequest:0000015c .Loc.70
/var/folders/bq/146k_07x5pn0twfdhlrpxh7h0000gn/T//ccjsgxbi.s:311    .text.RNDIS_Device_ProcessControlRequest:00000166 .Loc.71
/var/folders/bq/146k_07x5pn0twfdhlrpxh7h0000gn/T//ccjsgxbi.s:312    .text.RNDIS_Device_ProcessControlRequest:00000166 .Loc.72
/var/folders/bq/146k_07x5pn0twfdhlrpxh7h0000gn/T//ccjsgxbi.s:318    .text.RNDIS_Device_ProcessControlRequest:00000170 .Loc.73
/var/folders/bq/146k_07x5pn0twfdhlrpxh7h0000gn/T//ccjsgxbi.s:319    .text.RNDIS_Device_ProcessControlRequest:00000170 .Loc.74
/var/folders/bq/146k_07x5pn0twfdhlrpxh7h0000gn/T//ccjsgxbi.s:323    .text.RNDIS_Device_ProcessControlRequest:00000174 .Loc.75
/var/folders/bq/146k_07x5pn0twfdhlrpxh7h0000gn/T//ccjsgxbi.s:325    .text.RNDIS_Device_ProcessControlRequest:00000176 .Loc.76
/var/folders/bq/146k_07x5pn0twfdhlrpxh7h0000gn/T//ccjsgxbi.s:329    .text.RNDIS_Device_ProcessControlRequest:00000178 .Loc.77
/var/folders/bq/146k_07x5pn0twfdhlrpxh7h0000gn/T//ccjsgxbi.s:330    .text.RNDIS_Device_ProcessControlRequest:00000178 .Loc.78
/var/folders/bq/146k_07x5pn0twfdhlrpxh7h0000gn/T//ccjsgxbi.s:335    .text.RNDIS_Device_ProcessControlRequest:00000180 .Loc.79
/var/folders/bq/146k_07x5pn0twfdhlrpxh7h0000gn/T//ccjsgxbi.s:336    .text.RNDIS_Device_ProcessControlRequest:00000180 .Loc.80
/var/folders/bq/146k_07x5pn0twfdhlrpxh7h0000gn/T//ccjsgxbi.s:341    .text.RNDIS_Device_ProcessControlRequest:00000188 .Loc.81
/var/folders/bq/146k_07x5pn0twfdhlrpxh7h0000gn/T//ccjsgxbi.s:342    .text.RNDIS_Device_ProcessControlRequest:00000188 .Loc.82
/var/folders/bq/146k_07x5pn0twfdhlrpxh7h0000gn/T//ccjsgxbi.s:346    .text.RNDIS_Device_ProcessControlRequest:0000018c .Loc.83
/var/folders/bq/146k_07x5pn0twfdhlrpxh7h0000gn/T//ccjsgxbi.s:348    .text.RNDIS_Device_ProcessControlRequest:0000018e .Loc.84
/var/folders/bq/146k_07x5pn0twfdhlrpxh7h0000gn/T//ccjsgxbi.s:352    .text.RNDIS_Device_ProcessControlRequest:00000190 .Loc.85
/var/folders/bq/146k_07x5pn0twfdhlrpxh7h0000gn/T//ccjsgxbi.s:353    .text.RNDIS_Device_ProcessControlRequest:00000190 .Loc.86
/var/folders/bq/146k_07x5pn0twfdhlrpxh7h0000gn/T//ccjsgxbi.s:359    .text.RNDIS_Device_ProcessControlRequest:0000019a .Loc.87
/var/folders/bq/146k_07x5pn0twfdhlrpxh7h0000gn/T//ccjsgxbi.s:361    .text.RNDIS_Device_ProcessControlRequest:0000019a .Loc.88
/var/folders/bq/146k_07x5pn0twfdhlrpxh7h0000gn/T//ccjsgxbi.s:362    .text.RNDIS_Device_ProcessControlRequest:0000019a .Loc.89
/var/folders/bq/146k_07x5pn0twfdhlrpxh7h0000gn/T//ccjsgxbi.s:363    .text.RNDIS_Device_ProcessControlRequest:0000019a .Loc.90
/var/folders/bq/146k_07x5pn0twfdhlrpxh7h0000gn/T//ccjsgxbi.s:369    .text.RNDIS_Device_ProcessControlRequest:000001a2 .Loc.91
/var/folders/bq/146k_07x5pn0twfdhlrpxh7h0000gn/T//ccjsgxbi.s:370    .text.RNDIS_Device_ProcessControlRequest:000001a2 .Loc.92
/var/folders/bq/146k_07x5pn0twfdhlrpxh7h0000gn/T//ccjsgxbi.s:371    .text.RNDIS_Device_ProcessControlRequest:000001a2 .Loc.93
/var/folders/bq/146k_07x5pn0twfdhlrpxh7h0000gn/T//ccjsgxbi.s:375    .text.RNDIS_Device_ProcessControlRequest:000001a6 .Loc.94
/var/folders/bq/146k_07x5pn0twfdhlrpxh7h0000gn/T//ccjsgxbi.s:376    .text.RNDIS_Device_ProcessControlRequest:000001a6 .Loc.95
/var/folders/bq/146k_07x5pn0twfdhlrpxh7h0000gn/T//ccjsgxbi.s:377    .text.RNDIS_Device_ProcessControlRequest:000001a6 .Loc.96
/var/folders/bq/146k_07x5pn0twfdhlrpxh7h0000gn/T//ccjsgxbi.s:386    .text.RNDIS_Device_ProcessControlRequest:000001b6 .Loc.97
/var/folders/bq/146k_07x5pn0twfdhlrpxh7h0000gn/T//ccjsgxbi.s:387    .text.RNDIS_Device_ProcessControlRequest:000001b6 .Loc.98
/var/folders/bq/146k_07x5pn0twfdhlrpxh7h0000gn/T//ccjsgxbi.s:396    .text.RNDIS_Device_ProcessControlRequest:000001c6 .Loc.99
/var/folders/bq/146k_07x5pn0twfdhlrpxh7h0000gn/T//ccjsgxbi.s:400    .text.RNDIS_Device_ProcessControlRequest:000001c6 .Loc.100
/var/folders/bq/146k_07x5pn0twfdhlrpxh7h0000gn/T//ccjsgxbi.s:402    .text.RNDIS_Device_ProcessControlRequest:000001c6 .Loc.101
/var/folders/bq/146k_07x5pn0twfdhlrpxh7h0000gn/T//ccjsgxbi.s:403    .text.RNDIS_Device_ProcessControlRequest:000001c6 .Loc.102
/var/folders/bq/146k_07x5pn0twfdhlrpxh7h0000gn/T//ccjsgxbi.s:404    .text.RNDIS_Device_ProcessControlRequest:000001c6 .Loc.103
/var/folders/bq/146k_07x5pn0twfdhlrpxh7h0000gn/T//ccjsgxbi.s:416    .text.RNDIS_Device_ProcessControlRequest:000001de L0
/var/folders/bq/146k_07x5pn0twfdhlrpxh7h0000gn/T//ccjsgxbi.s:423    .text.RNDIS_Device_ProcessControlRequest:000001e8 .Loc.104
/var/folders/bq/146k_07x5pn0twfdhlrpxh7h0000gn/T//ccjsgxbi.s:459    .text.RNDIS_Device_ProcessControlRequest:000001fc .Loc.105
/var/folders/bq/146k_07x5pn0twfdhlrpxh7h0000gn/T//ccjsgxbi.s:471    .text.RNDIS_Device_ProcessControlRequest:00000214 L0
/var/folders/bq/146k_07x5pn0twfdhlrpxh7h0000gn/T//ccjsgxbi.s:480    .text.RNDIS_Device_ProcessControlRequest:00000222 .Loc.106
/var/folders/bq/146k_07x5pn0twfdhlrpxh7h0000gn/T//ccjsgxbi.s:487    .text.RNDIS_Device_ProcessControlRequest:0000022c .Loc.107
/var/folders/bq/146k_07x5pn0twfdhlrpxh7h0000gn/T//ccjsgxbi.s:494    .text.RNDIS_Device_ProcessControlRequest:00000236 .Loc.108
/var/folders/bq/146k_07x5pn0twfdhlrpxh7h0000gn/T//ccjsgxbi.s:496    .text.RNDIS_Device_ProcessControlRequest:00000236 .Loc.109
/var/folders/bq/146k_07x5pn0twfdhlrpxh7h0000gn/T//ccjsgxbi.s:497    .text.RNDIS_Device_ProcessControlRequest:00000236 .Loc.110
/var/folders/bq/146k_07x5pn0twfdhlrpxh7h0000gn/T//ccjsgxbi.s:502    .text.RNDIS_Device_ProcessControlRequest:0000023e .Loc.111
/var/folders/bq/146k_07x5pn0twfdhlrpxh7h0000gn/T//ccjsgxbi.s:505    .text.RNDIS_Device_ProcessControlRequest:0000023e .Loc.112
/var/folders/bq/146k_07x5pn0twfdhlrpxh7h0000gn/T//ccjsgxbi.s:506    .text.RNDIS_Device_ProcessControlRequest:0000023e .Loc.113
/var/folders/bq/146k_07x5pn0twfdhlrpxh7h0000gn/T//ccjsgxbi.s:512    .text.RNDIS_Device_ProcessControlRequest:00000244 .Loc.114
/var/folders/bq/146k_07x5pn0twfdhlrpxh7h0000gn/T//ccjsgxbi.s:518    .text.RNDIS_Device_ProcessControlRequest:00000250 L0
/var/folders/bq/146k_07x5pn0twfdhlrpxh7h0000gn/T//ccjsgxbi.s:525    .text.RNDIS_Device_ProcessControlRequest:0000025a .Loc.115
/var/folders/bq/146k_07x5pn0twfdhlrpxh7h0000gn/T//ccjsgxbi.s:533    .text.RNDIS_Device_ProcessControlRequest:00000264 .Loc.116
/var/folders/bq/146k_07x5pn0twfdhlrpxh7h0000gn/T//ccjsgxbi.s:536    .text.RNDIS_Device_ProcessControlRequest:00000264 .Loc.117
/var/folders/bq/146k_07x5pn0twfdhlrpxh7h0000gn/T//ccjsgxbi.s:537    .text.RNDIS_Device_ProcessControlRequest:00000264 .Loc.118
/var/folders/bq/146k_07x5pn0twfdhlrpxh7h0000gn/T//ccjsgxbi.s:547    .text.RNDIS_Device_ProcessControlRequest:00000274 .Loc.119
/var/folders/bq/146k_07x5pn0twfdhlrpxh7h0000gn/T//ccjsgxbi.s:548    .text.RNDIS_Device_ProcessControlRequest:00000274 .Loc.120
/var/folders/bq/146k_07x5pn0twfdhlrpxh7h0000gn/T//ccjsgxbi.s:553    .text.RNDIS_Device_ProcessControlRequest:0000027c .Loc.121
/var/folders/bq/146k_07x5pn0twfdhlrpxh7h0000gn/T//ccjsgxbi.s:554    .text.RNDIS_Device_ProcessControlRequest:0000027c .Loc.122
/var/folders/bq/146k_07x5pn0twfdhlrpxh7h0000gn/T//ccjsgxbi.s:560    .text.RNDIS_Device_ProcessControlRequest:00000284 .Loc.123
/var/folders/bq/146k_07x5pn0twfdhlrpxh7h0000gn/T//ccjsgxbi.s:566    .text.RNDIS_Device_ProcessControlRequest:00000286 .Loc.124
/var/folders/bq/146k_07x5pn0twfdhlrpxh7h0000gn/T//ccjsgxbi.s:567    .text.RNDIS_Device_ProcessControlRequest:00000286 .Loc.125
/var/folders/bq/146k_07x5pn0twfdhlrpxh7h0000gn/T//ccjsgxbi.s:1623   .progmem.data:00000000 AdapterSupportedOIDList
/var/folders/bq/146k_07x5pn0twfdhlrpxh7h0000gn/T//ccjsgxbi.s:574    .text.RNDIS_Device_ProcessControlRequest:00000292 .Loc.126
/var/folders/bq/146k_07x5pn0twfdhlrpxh7h0000gn/T//ccjsgxbi.s:575    .text.RNDIS_Device_ProcessControlRequest:00000292 .Loc.127
/var/folders/bq/146k_07x5pn0twfdhlrpxh7h0000gn/T//ccjsgxbi.s:580    .text.RNDIS_Device_ProcessControlRequest:00000296 .Loc.128
/var/folders/bq/146k_07x5pn0twfdhlrpxh7h0000gn/T//ccjsgxbi.s:583    .text.RNDIS_Device_ProcessControlRequest:00000296 .Loc.129
/var/folders/bq/146k_07x5pn0twfdhlrpxh7h0000gn/T//ccjsgxbi.s:584    .text.RNDIS_Device_ProcessControlRequest:00000296 .Loc.130
/var/folders/bq/146k_07x5pn0twfdhlrpxh7h0000gn/T//ccjsgxbi.s:589    .text.RNDIS_Device_ProcessControlRequest:0000029e .Loc.131
/var/folders/bq/146k_07x5pn0twfdhlrpxh7h0000gn/T//ccjsgxbi.s:590    .text.RNDIS_Device_ProcessControlRequest:0000029e .Loc.132
/var/folders/bq/146k_07x5pn0twfdhlrpxh7h0000gn/T//ccjsgxbi.s:605    .text.RNDIS_Device_ProcessControlRequest:000002ba .Loc.133
/var/folders/bq/146k_07x5pn0twfdhlrpxh7h0000gn/T//ccjsgxbi.s:606    .text.RNDIS_Device_ProcessControlRequest:000002ba .Loc.134
/var/folders/bq/146k_07x5pn0twfdhlrpxh7h0000gn/T//ccjsgxbi.s:611    .text.RNDIS_Device_ProcessControlRequest:000002c2 .Loc.135
/var/folders/bq/146k_07x5pn0twfdhlrpxh7h0000gn/T//ccjsgxbi.s:612    .text.RNDIS_Device_ProcessControlRequest:000002c2 .Loc.136
/var/folders/bq/146k_07x5pn0twfdhlrpxh7h0000gn/T//ccjsgxbi.s:626    .text.RNDIS_Device_ProcessControlRequest:000002d4 .Loc.137
/var/folders/bq/146k_07x5pn0twfdhlrpxh7h0000gn/T//ccjsgxbi.s:627    .text.RNDIS_Device_ProcessControlRequest:000002d4 .Loc.138
/var/folders/bq/146k_07x5pn0twfdhlrpxh7h0000gn/T//ccjsgxbi.s:628    .text.RNDIS_Device_ProcessControlRequest:000002d4 .Loc.139
/var/folders/bq/146k_07x5pn0twfdhlrpxh7h0000gn/T//ccjsgxbi.s:635    .text.RNDIS_Device_ProcessControlRequest:000002dc .Loc.140
/var/folders/bq/146k_07x5pn0twfdhlrpxh7h0000gn/T//ccjsgxbi.s:643    .text.RNDIS_Device_ProcessControlRequest:000002e6 .Loc.141
/var/folders/bq/146k_07x5pn0twfdhlrpxh7h0000gn/T//ccjsgxbi.s:644    .text.RNDIS_Device_ProcessControlRequest:000002e6 .Loc.142
/var/folders/bq/146k_07x5pn0twfdhlrpxh7h0000gn/T//ccjsgxbi.s:645    .text.RNDIS_Device_ProcessControlRequest:000002e6 .Loc.143
/var/folders/bq/146k_07x5pn0twfdhlrpxh7h0000gn/T//ccjsgxbi.s:651    .text.RNDIS_Device_ProcessControlRequest:000002ee .Loc.144
/var/folders/bq/146k_07x5pn0twfdhlrpxh7h0000gn/T//ccjsgxbi.s:655    .text.RNDIS_Device_ProcessControlRequest:000002f0 .Loc.145
/var/folders/bq/146k_07x5pn0twfdhlrpxh7h0000gn/T//ccjsgxbi.s:656    .text.RNDIS_Device_ProcessControlRequest:000002f0 .Loc.146
/var/folders/bq/146k_07x5pn0twfdhlrpxh7h0000gn/T//ccjsgxbi.s:659    .text.RNDIS_Device_ProcessControlRequest:000002f4 .Loc.147
/var/folders/bq/146k_07x5pn0twfdhlrpxh7h0000gn/T//ccjsgxbi.s:665    .text.RNDIS_Device_ProcessControlRequest:000002fc .Loc.148
/var/folders/bq/146k_07x5pn0twfdhlrpxh7h0000gn/T//ccjsgxbi.s:670    .text.RNDIS_Device_ProcessControlRequest:00000302 .Loc.149
/var/folders/bq/146k_07x5pn0twfdhlrpxh7h0000gn/T//ccjsgxbi.s:674    .text.RNDIS_Device_ProcessControlRequest:00000308 .Loc.150
/var/folders/bq/146k_07x5pn0twfdhlrpxh7h0000gn/T//ccjsgxbi.s:675    .text.RNDIS_Device_ProcessControlRequest:00000308 .Loc.151
/var/folders/bq/146k_07x5pn0twfdhlrpxh7h0000gn/T//ccjsgxbi.s:679    .text.RNDIS_Device_ProcessControlRequest:0000030a .Loc.152
/var/folders/bq/146k_07x5pn0twfdhlrpxh7h0000gn/T//ccjsgxbi.s:680    .text.RNDIS_Device_ProcessControlRequest:0000030a .Loc.153
/var/folders/bq/146k_07x5pn0twfdhlrpxh7h0000gn/T//ccjsgxbi.s:681    .text.RNDIS_Device_ProcessControlRequest:0000030a .Loc.154
/var/folders/bq/146k_07x5pn0twfdhlrpxh7h0000gn/T//ccjsgxbi.s:687    .text.RNDIS_Device_ProcessControlRequest:00000312 .Loc.155
/var/folders/bq/146k_07x5pn0twfdhlrpxh7h0000gn/T//ccjsgxbi.s:691    .text.RNDIS_Device_ProcessControlRequest:00000314 .Loc.156
/var/folders/bq/146k_07x5pn0twfdhlrpxh7h0000gn/T//ccjsgxbi.s:692    .text.RNDIS_Device_ProcessControlRequest:00000314 .Loc.157
/var/folders/bq/146k_07x5pn0twfdhlrpxh7h0000gn/T//ccjsgxbi.s:702    .text.RNDIS_Device_ProcessControlRequest:00000324 .Loc.158
/var/folders/bq/146k_07x5pn0twfdhlrpxh7h0000gn/T//ccjsgxbi.s:704    .text.RNDIS_Device_ProcessControlRequest:00000324 .Loc.159
/var/folders/bq/146k_07x5pn0twfdhlrpxh7h0000gn/T//ccjsgxbi.s:710    .text.RNDIS_Device_ProcessControlRequest:0000032a .Loc.160
/var/folders/bq/146k_07x5pn0twfdhlrpxh7h0000gn/T//ccjsgxbi.s:711    .text.RNDIS_Device_ProcessControlRequest:0000032a .Loc.161
/var/folders/bq/146k_07x5pn0twfdhlrpxh7h0000gn/T//ccjsgxbi.s:712    .text.RNDIS_Device_ProcessControlRequest:0000032a .Loc.162
/var/folders/bq/146k_07x5pn0twfdhlrpxh7h0000gn/T//ccjsgxbi.s:718    .text.RNDIS_Device_ProcessControlRequest:00000332 .Loc.163
/var/folders/bq/146k_07x5pn0twfdhlrpxh7h0000gn/T//ccjsgxbi.s:722    .text.RNDIS_Device_ProcessControlRequest:00000334 .Loc.164
/var/folders/bq/146k_07x5pn0twfdhlrpxh7h0000gn/T//ccjsgxbi.s:723    .text.RNDIS_Device_ProcessControlRequest:00000334 .Loc.165
/var/folders/bq/146k_07x5pn0twfdhlrpxh7h0000gn/T//ccjsgxbi.s:724    .text.RNDIS_Device_ProcessControlRequest:00000334 .Loc.166
/var/folders/bq/146k_07x5pn0twfdhlrpxh7h0000gn/T//ccjsgxbi.s:728    .text.RNDIS_Device_ProcessControlRequest:0000033a .Loc.167
/var/folders/bq/146k_07x5pn0twfdhlrpxh7h0000gn/T//ccjsgxbi.s:734    .text.RNDIS_Device_ProcessControlRequest:00000342 .Loc.168
/var/folders/bq/146k_07x5pn0twfdhlrpxh7h0000gn/T//ccjsgxbi.s:738    .text.RNDIS_Device_ProcessControlRequest:00000344 .Loc.169
/var/folders/bq/146k_07x5pn0twfdhlrpxh7h0000gn/T//ccjsgxbi.s:739    .text.RNDIS_Device_ProcessControlRequest:00000344 .Loc.170
/var/folders/bq/146k_07x5pn0twfdhlrpxh7h0000gn/T//ccjsgxbi.s:740    .text.RNDIS_Device_ProcessControlRequest:00000344 .Loc.171
/var/folders/bq/146k_07x5pn0twfdhlrpxh7h0000gn/T//ccjsgxbi.s:746    .text.RNDIS_Device_ProcessControlRequest:0000034c .Loc.172
/var/folders/bq/146k_07x5pn0twfdhlrpxh7h0000gn/T//ccjsgxbi.s:750    .text.RNDIS_Device_ProcessControlRequest:0000034e .Loc.173
/var/folders/bq/146k_07x5pn0twfdhlrpxh7h0000gn/T//ccjsgxbi.s:753    .text.RNDIS_Device_ProcessControlRequest:0000034e .Loc.174
/var/folders/bq/146k_07x5pn0twfdhlrpxh7h0000gn/T//ccjsgxbi.s:754    .text.RNDIS_Device_ProcessControlRequest:0000034e .Loc.175
/var/folders/bq/146k_07x5pn0twfdhlrpxh7h0000gn/T//ccjsgxbi.s:760    .text.RNDIS_Device_ProcessControlRequest:00000358 .Loc.176
/var/folders/bq/146k_07x5pn0twfdhlrpxh7h0000gn/T//ccjsgxbi.s:762    .text.RNDIS_Device_ProcessControlRequest:00000358 .Loc.177
/var/folders/bq/146k_07x5pn0twfdhlrpxh7h0000gn/T//ccjsgxbi.s:763    .text.RNDIS_Device_ProcessControlRequest:00000358 .Loc.178
/var/folders/bq/146k_07x5pn0twfdhlrpxh7h0000gn/T//ccjsgxbi.s:764    .text.RNDIS_Device_ProcessControlRequest:00000358 .Loc.179
/var/folders/bq/146k_07x5pn0twfdhlrpxh7h0000gn/T//ccjsgxbi.s:770    .text.RNDIS_Device_ProcessControlRequest:00000360 .Loc.180
/var/folders/bq/146k_07x5pn0twfdhlrpxh7h0000gn/T//ccjsgxbi.s:771    .text.RNDIS_Device_ProcessControlRequest:00000360 .Loc.181
/var/folders/bq/146k_07x5pn0twfdhlrpxh7h0000gn/T//ccjsgxbi.s:780    .text.RNDIS_Device_ProcessControlRequest:00000370 .Loc.182
/var/folders/bq/146k_07x5pn0twfdhlrpxh7h0000gn/T//ccjsgxbi.s:781    .text.RNDIS_Device_ProcessControlRequest:00000370 .Loc.183
/var/folders/bq/146k_07x5pn0twfdhlrpxh7h0000gn/T//ccjsgxbi.s:790    .text.RNDIS_Device_ProcessControlRequest:00000380 .Loc.184
/var/folders/bq/146k_07x5pn0twfdhlrpxh7h0000gn/T//ccjsgxbi.s:791    .text.RNDIS_Device_ProcessControlRequest:00000380 .Loc.185
/var/folders/bq/146k_07x5pn0twfdhlrpxh7h0000gn/T//ccjsgxbi.s:793    .text.RNDIS_Device_ProcessControlRequest:00000380 .Loc.186
/var/folders/bq/146k_07x5pn0twfdhlrpxh7h0000gn/T//ccjsgxbi.s:796    .text.RNDIS_Device_ProcessControlRequest:00000380 .Loc.187
/var/folders/bq/146k_07x5pn0twfdhlrpxh7h0000gn/T//ccjsgxbi.s:798    .text.RNDIS_Device_ProcessControlRequest:00000380 .Loc.188
/var/folders/bq/146k_07x5pn0twfdhlrpxh7h0000gn/T//ccjsgxbi.s:799    .text.RNDIS_Device_ProcessControlRequest:00000380 .Loc.189
/var/folders/bq/146k_07x5pn0twfdhlrpxh7h0000gn/T//ccjsgxbi.s:813    .text.RNDIS_Device_ProcessControlRequest:00000396 .Loc.190
/var/folders/bq/146k_07x5pn0twfdhlrpxh7h0000gn/T//ccjsgxbi.s:814    .text.RNDIS_Device_ProcessControlRequest:00000396 .Loc.191
/var/folders/bq/146k_07x5pn0twfdhlrpxh7h0000gn/T//ccjsgxbi.s:817    .text.RNDIS_Device_ProcessControlRequest:00000396 .Loc.192
/var/folders/bq/146k_07x5pn0twfdhlrpxh7h0000gn/T//ccjsgxbi.s:822    .text.RNDIS_Device_ProcessControlRequest:0000039c .Loc.193
/var/folders/bq/146k_07x5pn0twfdhlrpxh7h0000gn/T//ccjsgxbi.s:828    .text.RNDIS_Device_ProcessControlRequest:000003a4 .Loc.194
/var/folders/bq/146k_07x5pn0twfdhlrpxh7h0000gn/T//ccjsgxbi.s:834    .text.RNDIS_Device_ProcessControlRequest:000003a6 .Loc.195
/var/folders/bq/146k_07x5pn0twfdhlrpxh7h0000gn/T//ccjsgxbi.s:837    .text.RNDIS_Device_ProcessControlRequest:000003a6 .Loc.196
/var/folders/bq/146k_07x5pn0twfdhlrpxh7h0000gn/T//ccjsgxbi.s:843    .text.RNDIS_Device_ProcessControlRequest:000003ae .Loc.197
/var/folders/bq/146k_07x5pn0twfdhlrpxh7h0000gn/T//ccjsgxbi.s:849    .text.RNDIS_Device_ProcessControlRequest:000003b4 .Loc.198
/var/folders/bq/146k_07x5pn0twfdhlrpxh7h0000gn/T//ccjsgxbi.s:857    .text.RNDIS_Device_ProcessControlRequest:000003c2 .Loc.199
/var/folders/bq/146k_07x5pn0twfdhlrpxh7h0000gn/T//ccjsgxbi.s:865    .text.RNDIS_Device_ProcessControlRequest:000003d0 .Loc.200
/var/folders/bq/146k_07x5pn0twfdhlrpxh7h0000gn/T//ccjsgxbi.s:866    .text.RNDIS_Device_ProcessControlRequest:000003d0 .Loc.201
/var/folders/bq/146k_07x5pn0twfdhlrpxh7h0000gn/T//ccjsgxbi.s:873    .text.RNDIS_Device_ProcessControlRequest:000003d8 .Loc.202
/var/folders/bq/146k_07x5pn0twfdhlrpxh7h0000gn/T//ccjsgxbi.s:876    .text.RNDIS_Device_ProcessControlRequest:000003d8 .Loc.203
/var/folders/bq/146k_07x5pn0twfdhlrpxh7h0000gn/T//ccjsgxbi.s:882    .text.RNDIS_Device_ProcessControlRequest:000003e0 .Loc.204
/var/folders/bq/146k_07x5pn0twfdhlrpxh7h0000gn/T//ccjsgxbi.s:886    .text.RNDIS_Device_ProcessControlRequest:000003e2 .Loc.205
/var/folders/bq/146k_07x5pn0twfdhlrpxh7h0000gn/T//ccjsgxbi.s:887    .text.RNDIS_Device_ProcessControlRequest:000003e2 .Loc.206
/var/folders/bq/146k_07x5pn0twfdhlrpxh7h0000gn/T//ccjsgxbi.s:893    .text.RNDIS_Device_ProcessControlRequest:000003ec .Loc.207
/var/folders/bq/146k_07x5pn0twfdhlrpxh7h0000gn/T//ccjsgxbi.s:895    .text.RNDIS_Device_ProcessControlRequest:000003ec .Loc.208
/var/folders/bq/146k_07x5pn0twfdhlrpxh7h0000gn/T//ccjsgxbi.s:896    .text.RNDIS_Device_ProcessControlRequest:000003ec .Loc.209
/var/folders/bq/146k_07x5pn0twfdhlrpxh7h0000gn/T//ccjsgxbi.s:905    .text.RNDIS_Device_ProcessControlRequest:000003fc .Loc.210
/var/folders/bq/146k_07x5pn0twfdhlrpxh7h0000gn/T//ccjsgxbi.s:906    .text.RNDIS_Device_ProcessControlRequest:000003fc .Loc.211
/var/folders/bq/146k_07x5pn0twfdhlrpxh7h0000gn/T//ccjsgxbi.s:915    .text.RNDIS_Device_ProcessControlRequest:0000040c .Loc.212
/var/folders/bq/146k_07x5pn0twfdhlrpxh7h0000gn/T//ccjsgxbi.s:916    .text.RNDIS_Device_ProcessControlRequest:0000040c .Loc.213
/var/folders/bq/146k_07x5pn0twfdhlrpxh7h0000gn/T//ccjsgxbi.s:921    .text.RNDIS_Device_ProcessControlRequest:00000414 .Loc.214
/var/folders/bq/146k_07x5pn0twfdhlrpxh7h0000gn/T//ccjsgxbi.s:924    .text.RNDIS_Device_ProcessControlRequest:00000414 .Loc.215
/var/folders/bq/146k_07x5pn0twfdhlrpxh7h0000gn/T//ccjsgxbi.s:925    .text.RNDIS_Device_ProcessControlRequest:00000414 .Loc.216
/var/folders/bq/146k_07x5pn0twfdhlrpxh7h0000gn/T//ccjsgxbi.s:926    .text.RNDIS_Device_ProcessControlRequest:00000414 .Loc.217
/var/folders/bq/146k_07x5pn0twfdhlrpxh7h0000gn/T//ccjsgxbi.s:931    .text.RNDIS_Device_ProcessControlRequest:0000041c .Loc.218
/var/folders/bq/146k_07x5pn0twfdhlrpxh7h0000gn/T//ccjsgxbi.s:935    .text.RNDIS_Device_ProcessControlRequest:0000041e .Loc.219
/var/folders/bq/146k_07x5pn0twfdhlrpxh7h0000gn/T//ccjsgxbi.s:939    .text.RNDIS_Device_ProcessControlRequest:0000041e .Loc.220
/var/folders/bq/146k_07x5pn0twfdhlrpxh7h0000gn/T//ccjsgxbi.s:940    .text.RNDIS_Device_ProcessControlRequest:0000041e .Loc.221
/var/folders/bq/146k_07x5pn0twfdhlrpxh7h0000gn/T//ccjsgxbi.s:943    .text.RNDIS_Device_ProcessControlRequest:00000426 L0
/var/folders/bq/146k_07x5pn0twfdhlrpxh7h0000gn/T//ccjsgxbi.s:946    .text.RNDIS_Device_ProcessControlRequest:00000428 .Loc.222
/var/folders/bq/146k_07x5pn0twfdhlrpxh7h0000gn/T//ccjsgxbi.s:949    .text.RNDIS_Device_ProcessControlRequest:00000428 .Loc.223
/var/folders/bq/146k_07x5pn0twfdhlrpxh7h0000gn/T//ccjsgxbi.s:951    .text.RNDIS_Device_ProcessControlRequest:00000428 .Loc.224
/var/folders/bq/146k_07x5pn0twfdhlrpxh7h0000gn/T//ccjsgxbi.s:952    .text.RNDIS_Device_ProcessControlRequest:00000428 .Loc.225
/var/folders/bq/146k_07x5pn0twfdhlrpxh7h0000gn/T//ccjsgxbi.s:958    .text.RNDIS_Device_ProcessControlRequest:00000432 .Loc.226
/var/folders/bq/146k_07x5pn0twfdhlrpxh7h0000gn/T//ccjsgxbi.s:959    .text.RNDIS_Device_ProcessControlRequest:00000432 .Loc.227
/var/folders/bq/146k_07x5pn0twfdhlrpxh7h0000gn/T//ccjsgxbi.s:963    .text.RNDIS_Device_ProcessControlRequest:00000436 .Loc.228
/var/folders/bq/146k_07x5pn0twfdhlrpxh7h0000gn/T//ccjsgxbi.s:964    .text.RNDIS_Device_ProcessControlRequest:00000436 .Loc.229
/var/folders/bq/146k_07x5pn0twfdhlrpxh7h0000gn/T//ccjsgxbi.s:973    .text.RNDIS_Device_ProcessControlRequest:00000446 .Loc.230
/var/folders/bq/146k_07x5pn0twfdhlrpxh7h0000gn/T//ccjsgxbi.s:974    .text.RNDIS_Device_ProcessControlRequest:00000446 .Loc.231
/var/folders/bq/146k_07x5pn0twfdhlrpxh7h0000gn/T//ccjsgxbi.s:976    .text.RNDIS_Device_ProcessControlRequest:00000448 .Loc.232
/var/folders/bq/146k_07x5pn0twfdhlrpxh7h0000gn/T//ccjsgxbi.s:977    .text.RNDIS_Device_ProcessControlRequest:00000448 .Loc.233
/var/folders/bq/146k_07x5pn0twfdhlrpxh7h0000gn/T//ccjsgxbi.s:987    .text.RNDIS_Device_ProcessControlRequest:00000458 .Loc.234
/var/folders/bq/146k_07x5pn0twfdhlrpxh7h0000gn/T//ccjsgxbi.s:992    .text.RNDIS_Device_ProcessControlRequest:00000460 .Loc.235
/var/folders/bq/146k_07x5pn0twfdhlrpxh7h0000gn/T//ccjsgxbi.s:995    .text.RNDIS_Device_ProcessControlRequest:00000460 .Loc.236
/var/folders/bq/146k_07x5pn0twfdhlrpxh7h0000gn/T//ccjsgxbi.s:997    .text.RNDIS_Device_ProcessControlRequest:00000460 .Loc.237
/var/folders/bq/146k_07x5pn0twfdhlrpxh7h0000gn/T//ccjsgxbi.s:998    .text.RNDIS_Device_ProcessControlRequest:00000460 .Loc.238
/var/folders/bq/146k_07x5pn0twfdhlrpxh7h0000gn/T//ccjsgxbi.s:1004   .text.RNDIS_Device_ProcessControlRequest:0000046a .Loc.239
/var/folders/bq/146k_07x5pn0twfdhlrpxh7h0000gn/T//ccjsgxbi.s:1005   .text.RNDIS_Device_ProcessControlRequest:0000046a .Loc.240
/var/folders/bq/146k_07x5pn0twfdhlrpxh7h0000gn/T//ccjsgxbi.s:1012   .text.RNDIS_Device_ProcessControlRequest:00000474 L0
/var/folders/bq/146k_07x5pn0twfdhlrpxh7h0000gn/T//ccjsgxbi.s:1018   .text.RNDIS_Device_ConfigureEndpoints:00000000 RNDIS_Device_ConfigureEndpoints
/var/folders/bq/146k_07x5pn0twfdhlrpxh7h0000gn/T//ccjsgxbi.s:1021   .text.RNDIS_Device_ConfigureEndpoints:00000000 .Loc.241
/var/folders/bq/146k_07x5pn0twfdhlrpxh7h0000gn/T//ccjsgxbi.s:1022   .text.RNDIS_Device_ConfigureEndpoints:00000000 L0
/var/folders/bq/146k_07x5pn0twfdhlrpxh7h0000gn/T//ccjsgxbi.s:1023   .text.RNDIS_Device_ConfigureEndpoints:00000000 .Loc.242
/var/folders/bq/146k_07x5pn0twfdhlrpxh7h0000gn/T//ccjsgxbi.s:1045   .text.RNDIS_Device_ConfigureEndpoints:0000000a .Loc.243
/var/folders/bq/146k_07x5pn0twfdhlrpxh7h0000gn/T//ccjsgxbi.s:1051   .text.RNDIS_Device_ConfigureEndpoints:00000012 .Loc.244
/var/folders/bq/146k_07x5pn0twfdhlrpxh7h0000gn/T//ccjsgxbi.s:1059   .text.RNDIS_Device_ConfigureEndpoints:0000001e .Loc.245
/var/folders/bq/146k_07x5pn0twfdhlrpxh7h0000gn/T//ccjsgxbi.s:1060   .text.RNDIS_Device_ConfigureEndpoints:0000001e .Loc.246
/var/folders/bq/146k_07x5pn0twfdhlrpxh7h0000gn/T//ccjsgxbi.s:1068   .text.RNDIS_Device_ConfigureEndpoints:0000002a .Loc.247
/var/folders/bq/146k_07x5pn0twfdhlrpxh7h0000gn/T//ccjsgxbi.s:1073   .text.RNDIS_Device_ConfigureEndpoints:0000002c .Loc.248
/var/folders/bq/146k_07x5pn0twfdhlrpxh7h0000gn/T//ccjsgxbi.s:1075   .text.RNDIS_Device_ConfigureEndpoints:0000002c .Loc.249
/var/folders/bq/146k_07x5pn0twfdhlrpxh7h0000gn/T//ccjsgxbi.s:1076   .text.RNDIS_Device_ConfigureEndpoints:0000002c .Loc.250
/var/folders/bq/146k_07x5pn0twfdhlrpxh7h0000gn/T//ccjsgxbi.s:1079   .text.RNDIS_Device_ConfigureEndpoints:00000030 .Loc.251
/var/folders/bq/146k_07x5pn0twfdhlrpxh7h0000gn/T//ccjsgxbi.s:1087   .text.RNDIS_Device_ConfigureEndpoints:0000003e .Loc.252
/var/folders/bq/146k_07x5pn0twfdhlrpxh7h0000gn/T//ccjsgxbi.s:1090   .text.RNDIS_Device_ConfigureEndpoints:0000003e .Loc.253
/var/folders/bq/146k_07x5pn0twfdhlrpxh7h0000gn/T//ccjsgxbi.s:1093   .text.RNDIS_Device_ConfigureEndpoints:00000042 .Loc.254
/var/folders/bq/146k_07x5pn0twfdhlrpxh7h0000gn/T//ccjsgxbi.s:1094   .text.RNDIS_Device_ConfigureEndpoints:00000042 .Loc.255
/var/folders/bq/146k_07x5pn0twfdhlrpxh7h0000gn/T//ccjsgxbi.s:1102   .text.RNDIS_Device_ConfigureEndpoints:0000004e .Loc.256
/var/folders/bq/146k_07x5pn0twfdhlrpxh7h0000gn/T//ccjsgxbi.s:1107   .text.RNDIS_Device_ConfigureEndpoints:00000050 .Loc.257
/var/folders/bq/146k_07x5pn0twfdhlrpxh7h0000gn/T//ccjsgxbi.s:1109   .text.RNDIS_Device_ConfigureEndpoints:00000050 .Loc.258
/var/folders/bq/146k_07x5pn0twfdhlrpxh7h0000gn/T//ccjsgxbi.s:1110   .text.RNDIS_Device_ConfigureEndpoints:00000050 .Loc.259
/var/folders/bq/146k_07x5pn0twfdhlrpxh7h0000gn/T//ccjsgxbi.s:1113   .text.RNDIS_Device_ConfigureEndpoints:00000054 .Loc.260
/var/folders/bq/146k_07x5pn0twfdhlrpxh7h0000gn/T//ccjsgxbi.s:1121   .text.RNDIS_Device_ConfigureEndpoints:00000062 .Loc.261
/var/folders/bq/146k_07x5pn0twfdhlrpxh7h0000gn/T//ccjsgxbi.s:1124   .text.RNDIS_Device_ConfigureEndpoints:00000062 .Loc.262
/var/folders/bq/146k_07x5pn0twfdhlrpxh7h0000gn/T//ccjsgxbi.s:1127   .text.RNDIS_Device_ConfigureEndpoints:00000066 .Loc.263
/var/folders/bq/146k_07x5pn0twfdhlrpxh7h0000gn/T//ccjsgxbi.s:1128   .text.RNDIS_Device_ConfigureEndpoints:00000066 .Loc.264
/var/folders/bq/146k_07x5pn0twfdhlrpxh7h0000gn/T//ccjsgxbi.s:1136   .text.RNDIS_Device_ConfigureEndpoints:00000072 .Loc.265
/var/folders/bq/146k_07x5pn0twfdhlrpxh7h0000gn/T//ccjsgxbi.s:1141   .text.RNDIS_Device_ConfigureEndpoints:00000074 .Loc.266
/var/folders/bq/146k_07x5pn0twfdhlrpxh7h0000gn/T//ccjsgxbi.s:1143   .text.RNDIS_Device_ConfigureEndpoints:00000074 .Loc.267
/var/folders/bq/146k_07x5pn0twfdhlrpxh7h0000gn/T//ccjsgxbi.s:1144   .text.RNDIS_Device_ConfigureEndpoints:00000074 .Loc.268
/var/folders/bq/146k_07x5pn0twfdhlrpxh7h0000gn/T//ccjsgxbi.s:1147   .text.RNDIS_Device_ConfigureEndpoints:00000078 .Loc.269
/var/folders/bq/146k_07x5pn0twfdhlrpxh7h0000gn/T//ccjsgxbi.s:1156   .text.RNDIS_Device_ConfigureEndpoints:00000082 .Loc.270
/var/folders/bq/146k_07x5pn0twfdhlrpxh7h0000gn/T//ccjsgxbi.s:1160   .text.RNDIS_Device_ConfigureEndpoints:00000086 .Loc.271
/var/folders/bq/146k_07x5pn0twfdhlrpxh7h0000gn/T//ccjsgxbi.s:1163   .text.RNDIS_Device_ConfigureEndpoints:00000088 .Loc.272
/var/folders/bq/146k_07x5pn0twfdhlrpxh7h0000gn/T//ccjsgxbi.s:1167   .text.RNDIS_Device_ConfigureEndpoints:0000008a .Loc.273
/var/folders/bq/146k_07x5pn0twfdhlrpxh7h0000gn/T//ccjsgxbi.s:1171   .text.RNDIS_Device_ConfigureEndpoints:0000008e .Loc.274
/var/folders/bq/146k_07x5pn0twfdhlrpxh7h0000gn/T//ccjsgxbi.s:1174   .text.RNDIS_Device_ConfigureEndpoints:0000008e .Loc.275
/var/folders/bq/146k_07x5pn0twfdhlrpxh7h0000gn/T//ccjsgxbi.s:1180   .text.RNDIS_Device_ConfigureEndpoints:00000094 .Loc.276
/var/folders/bq/146k_07x5pn0twfdhlrpxh7h0000gn/T//ccjsgxbi.s:1184   .text.RNDIS_Device_ConfigureEndpoints:0000009a L0
/var/folders/bq/146k_07x5pn0twfdhlrpxh7h0000gn/T//ccjsgxbi.s:1197   .text.RNDIS_Device_USBTask:00000000 RNDIS_Device_USBTask
/var/folders/bq/146k_07x5pn0twfdhlrpxh7h0000gn/T//ccjsgxbi.s:1200   .text.RNDIS_Device_USBTask:00000000 .Loc.277
/var/folders/bq/146k_07x5pn0twfdhlrpxh7h0000gn/T//ccjsgxbi.s:1201   .text.RNDIS_Device_USBTask:00000000 L0
/var/folders/bq/146k_07x5pn0twfdhlrpxh7h0000gn/T//ccjsgxbi.s:1202   .text.RNDIS_Device_USBTask:00000000 .Loc.278
/var/folders/bq/146k_07x5pn0twfdhlrpxh7h0000gn/T//ccjsgxbi.s:1244   .text.RNDIS_Device_USBTask:0000001e .Loc.279
/var/folders/bq/146k_07x5pn0twfdhlrpxh7h0000gn/T//ccjsgxbi.s:1245   .text.RNDIS_Device_USBTask:0000001e .Loc.280
/var/folders/bq/146k_07x5pn0twfdhlrpxh7h0000gn/T//ccjsgxbi.s:1248   .text.RNDIS_Device_USBTask:00000020 .Loc.281
/var/folders/bq/146k_07x5pn0twfdhlrpxh7h0000gn/T//ccjsgxbi.s:1250   .text.RNDIS_Device_USBTask:00000024 L0
/var/folders/bq/146k_07x5pn0twfdhlrpxh7h0000gn/T//ccjsgxbi.s:1252   .text.RNDIS_Device_USBTask:00000026 .Loc.282
/var/folders/bq/146k_07x5pn0twfdhlrpxh7h0000gn/T//ccjsgxbi.s:1254   .text.RNDIS_Device_USBTask:00000026 .Loc.283
/var/folders/bq/146k_07x5pn0twfdhlrpxh7h0000gn/T//ccjsgxbi.s:1261   .text.RNDIS_Device_USBTask:0000002c .Loc.284
/var/folders/bq/146k_07x5pn0twfdhlrpxh7h0000gn/T//ccjsgxbi.s:1263   .text.RNDIS_Device_USBTask:0000002c .Loc.285
/var/folders/bq/146k_07x5pn0twfdhlrpxh7h0000gn/T//ccjsgxbi.s:1264   .text.RNDIS_Device_USBTask:0000002c .Loc.286
/var/folders/bq/146k_07x5pn0twfdhlrpxh7h0000gn/T//ccjsgxbi.s:1267   .text.RNDIS_Device_USBTask:00000030 .Loc.287
/var/folders/bq/146k_07x5pn0twfdhlrpxh7h0000gn/T//ccjsgxbi.s:1270   .text.RNDIS_Device_USBTask:00000030 .Loc.288
/var/folders/bq/146k_07x5pn0twfdhlrpxh7h0000gn/T//ccjsgxbi.s:1273   .text.RNDIS_Device_USBTask:00000030 .Loc.289
/var/folders/bq/146k_07x5pn0twfdhlrpxh7h0000gn/T//ccjsgxbi.s:1275   .text.RNDIS_Device_USBTask:00000030 .Loc.290
/var/folders/bq/146k_07x5pn0twfdhlrpxh7h0000gn/T//ccjsgxbi.s:1276   .text.RNDIS_Device_USBTask:00000030 .Loc.291
/var/folders/bq/146k_07x5pn0twfdhlrpxh7h0000gn/T//ccjsgxbi.s:1280   .text.RNDIS_Device_USBTask:00000034 .Loc.292
/var/folders/bq/146k_07x5pn0twfdhlrpxh7h0000gn/T//ccjsgxbi.s:1283   .text.RNDIS_Device_USBTask:00000038 .Loc.293
/var/folders/bq/146k_07x5pn0twfdhlrpxh7h0000gn/T//ccjsgxbi.s:1288   .text.RNDIS_Device_USBTask:00000040 .Loc.294
/var/folders/bq/146k_07x5pn0twfdhlrpxh7h0000gn/T//ccjsgxbi.s:1294   .text.RNDIS_Device_USBTask:00000048 .Loc.295
/var/folders/bq/146k_07x5pn0twfdhlrpxh7h0000gn/T//ccjsgxbi.s:1295   .text.RNDIS_Device_USBTask:00000048 .Loc.296
/var/folders/bq/146k_07x5pn0twfdhlrpxh7h0000gn/T//ccjsgxbi.s:1306   .text.RNDIS_Device_USBTask:0000005a .Loc.297
/var/folders/bq/146k_07x5pn0twfdhlrpxh7h0000gn/T//ccjsgxbi.s:1315   .text.RNDIS_Device_USBTask:0000006a .Loc.298
/var/folders/bq/146k_07x5pn0twfdhlrpxh7h0000gn/T//ccjsgxbi.s:1318   .text.RNDIS_Device_USBTask:0000006a .Loc.299
/var/folders/bq/146k_07x5pn0twfdhlrpxh7h0000gn/T//ccjsgxbi.s:1320   .text.RNDIS_Device_USBTask:0000006a .Loc.300
/var/folders/bq/146k_07x5pn0twfdhlrpxh7h0000gn/T//ccjsgxbi.s:1321   .text.RNDIS_Device_USBTask:0000006a .Loc.301
/var/folders/bq/146k_07x5pn0twfdhlrpxh7h0000gn/T//ccjsgxbi.s:1327   .text.RNDIS_Device_USBTask:00000074 .Loc.302
/var/folders/bq/146k_07x5pn0twfdhlrpxh7h0000gn/T//ccjsgxbi.s:1328   .text.RNDIS_Device_USBTask:00000074 .Loc.303
/var/folders/bq/146k_07x5pn0twfdhlrpxh7h0000gn/T//ccjsgxbi.s:1333   .text.RNDIS_Device_USBTask:00000078 .Loc.304
/var/folders/bq/146k_07x5pn0twfdhlrpxh7h0000gn/T//ccjsgxbi.s:1334   .text.RNDIS_Device_USBTask:00000078 .Loc.305
/var/folders/bq/146k_07x5pn0twfdhlrpxh7h0000gn/T//ccjsgxbi.s:1338   .text.RNDIS_Device_USBTask:0000007e .Loc.306
/var/folders/bq/146k_07x5pn0twfdhlrpxh7h0000gn/T//ccjsgxbi.s:1342   .text.RNDIS_Device_USBTask:00000084 .Loc.307
/var/folders/bq/146k_07x5pn0twfdhlrpxh7h0000gn/T//ccjsgxbi.s:1353   .text.RNDIS_Device_USBTask:00000096 .Loc.308
/var/folders/bq/146k_07x5pn0twfdhlrpxh7h0000gn/T//ccjsgxbi.s:1354   .text.RNDIS_Device_USBTask:00000096 .Loc.309
/var/folders/bq/146k_07x5pn0twfdhlrpxh7h0000gn/T//ccjsgxbi.s:1359   .text.RNDIS_Device_USBTask:00000098 .Loc.310
/var/folders/bq/146k_07x5pn0twfdhlrpxh7h0000gn/T//ccjsgxbi.s:1361   .text.RNDIS_Device_USBTask:00000098 .Loc.311
/var/folders/bq/146k_07x5pn0twfdhlrpxh7h0000gn/T//ccjsgxbi.s:1362   .text.RNDIS_Device_USBTask:00000098 .Loc.312
/var/folders/bq/146k_07x5pn0twfdhlrpxh7h0000gn/T//ccjsgxbi.s:1365   .text.RNDIS_Device_USBTask:0000009c .Loc.313
/var/folders/bq/146k_07x5pn0twfdhlrpxh7h0000gn/T//ccjsgxbi.s:1368   .text.RNDIS_Device_USBTask:0000009c .Loc.314
/var/folders/bq/146k_07x5pn0twfdhlrpxh7h0000gn/T//ccjsgxbi.s:1371   .text.RNDIS_Device_USBTask:0000009c .Loc.315
/var/folders/bq/146k_07x5pn0twfdhlrpxh7h0000gn/T//ccjsgxbi.s:1373   .text.RNDIS_Device_USBTask:0000009c .Loc.316
/var/folders/bq/146k_07x5pn0twfdhlrpxh7h0000gn/T//ccjsgxbi.s:1374   .text.RNDIS_Device_USBTask:0000009c .Loc.317
/var/folders/bq/146k_07x5pn0twfdhlrpxh7h0000gn/T//ccjsgxbi.s:1378   .text.RNDIS_Device_USBTask:000000a0 .Loc.318
/var/folders/bq/146k_07x5pn0twfdhlrpxh7h0000gn/T//ccjsgxbi.s:1381   .text.RNDIS_Device_USBTask:000000a4 .Loc.319
/var/folders/bq/146k_07x5pn0twfdhlrpxh7h0000gn/T//ccjsgxbi.s:1387   .text.RNDIS_Device_USBTask:000000ae .Loc.320
/var/folders/bq/146k_07x5pn0twfdhlrpxh7h0000gn/T//ccjsgxbi.s:1392   .text.RNDIS_Device_USBTask:000000b6 .Loc.321
/var/folders/bq/146k_07x5pn0twfdhlrpxh7h0000gn/T//ccjsgxbi.s:1401   .text.RNDIS_Device_USBTask:000000c6 .Loc.322
/var/folders/bq/146k_07x5pn0twfdhlrpxh7h0000gn/T//ccjsgxbi.s:1402   .text.RNDIS_Device_USBTask:000000c6 .Loc.323
/var/folders/bq/146k_07x5pn0twfdhlrpxh7h0000gn/T//ccjsgxbi.s:1407   .text.RNDIS_Device_USBTask:000000ce .Loc.324
/var/folders/bq/146k_07x5pn0twfdhlrpxh7h0000gn/T//ccjsgxbi.s:1414   .text.RNDIS_Device_USBTask:000000da .Loc.325
/var/folders/bq/146k_07x5pn0twfdhlrpxh7h0000gn/T//ccjsgxbi.s:1417   .text.RNDIS_Device_USBTask:000000da .Loc.326
/var/folders/bq/146k_07x5pn0twfdhlrpxh7h0000gn/T//ccjsgxbi.s:1419   .text.RNDIS_Device_USBTask:000000da .Loc.327
/var/folders/bq/146k_07x5pn0twfdhlrpxh7h0000gn/T//ccjsgxbi.s:1420   .text.RNDIS_Device_USBTask:000000da .Loc.328
/var/folders/bq/146k_07x5pn0twfdhlrpxh7h0000gn/T//ccjsgxbi.s:1426   .text.RNDIS_Device_USBTask:000000e4 .Loc.329
/var/folders/bq/146k_07x5pn0twfdhlrpxh7h0000gn/T//ccjsgxbi.s:1430   .text.RNDIS_Device_USBTask:000000e4 .Loc.330
/var/folders/bq/146k_07x5pn0twfdhlrpxh7h0000gn/T//ccjsgxbi.s:1432   .text.RNDIS_Device_USBTask:000000e4 .Loc.331
/var/folders/bq/146k_07x5pn0twfdhlrpxh7h0000gn/T//ccjsgxbi.s:1444   .text.RNDIS_Device_USBTask:000000f8 .Loc.332
/var/folders/bq/146k_07x5pn0twfdhlrpxh7h0000gn/T//ccjsgxbi.s:1451   .text.RNDIS_Device_USBTask:000000fe .Loc.333
/var/folders/bq/146k_07x5pn0twfdhlrpxh7h0000gn/T//ccjsgxbi.s:1459   .text.RNDIS_Device_USBTask:0000010c .Loc.334
/var/folders/bq/146k_07x5pn0twfdhlrpxh7h0000gn/T//ccjsgxbi.s:1462   .text.RNDIS_Device_USBTask:0000010c .Loc.335
/var/folders/bq/146k_07x5pn0twfdhlrpxh7h0000gn/T//ccjsgxbi.s:1464   .text.RNDIS_Device_USBTask:0000010c .Loc.336
/var/folders/bq/146k_07x5pn0twfdhlrpxh7h0000gn/T//ccjsgxbi.s:1465   .text.RNDIS_Device_USBTask:0000010c .Loc.337
/var/folders/bq/146k_07x5pn0twfdhlrpxh7h0000gn/T//ccjsgxbi.s:1471   .text.RNDIS_Device_USBTask:00000116 .Loc.338
/var/folders/bq/146k_07x5pn0twfdhlrpxh7h0000gn/T//ccjsgxbi.s:1472   .text.RNDIS_Device_USBTask:00000116 .Loc.339
/var/folders/bq/146k_07x5pn0twfdhlrpxh7h0000gn/T//ccjsgxbi.s:1480   .text.RNDIS_Device_USBTask:00000124 .Loc.340
/var/folders/bq/146k_07x5pn0twfdhlrpxh7h0000gn/T//ccjsgxbi.s:1481   .text.RNDIS_Device_USBTask:00000124 .Loc.341
/var/folders/bq/146k_07x5pn0twfdhlrpxh7h0000gn/T//ccjsgxbi.s:1486   .text.RNDIS_Device_USBTask:0000012a .Loc.342
/var/folders/bq/146k_07x5pn0twfdhlrpxh7h0000gn/T//ccjsgxbi.s:1493   .text.RNDIS_Device_USBTask:00000130 .Loc.343
/var/folders/bq/146k_07x5pn0twfdhlrpxh7h0000gn/T//ccjsgxbi.s:1495   .text.RNDIS_Device_USBTask:00000130 .Loc.344
/var/folders/bq/146k_07x5pn0twfdhlrpxh7h0000gn/T//ccjsgxbi.s:1496   .text.RNDIS_Device_USBTask:00000130 .Loc.345
/var/folders/bq/146k_07x5pn0twfdhlrpxh7h0000gn/T//ccjsgxbi.s:1499   .text.RNDIS_Device_USBTask:00000134 .Loc.346
/var/folders/bq/146k_07x5pn0twfdhlrpxh7h0000gn/T//ccjsgxbi.s:1502   .text.RNDIS_Device_USBTask:00000134 .Loc.347
/var/folders/bq/146k_07x5pn0twfdhlrpxh7h0000gn/T//ccjsgxbi.s:1505   .text.RNDIS_Device_USBTask:00000134 .Loc.348
/var/folders/bq/146k_07x5pn0twfdhlrpxh7h0000gn/T//ccjsgxbi.s:1507   .text.RNDIS_Device_USBTask:00000134 .Loc.349
/var/folders/bq/146k_07x5pn0twfdhlrpxh7h0000gn/T//ccjsgxbi.s:1508   .text.RNDIS_Device_USBTask:00000134 .Loc.350
/var/folders/bq/146k_07x5pn0twfdhlrpxh7h0000gn/T//ccjsgxbi.s:1512   .text.RNDIS_Device_USBTask:00000138 .Loc.351
/var/folders/bq/146k_07x5pn0twfdhlrpxh7h0000gn/T//ccjsgxbi.s:1515   .text.RNDIS_Device_USBTask:0000013c .Loc.352
/var/folders/bq/146k_07x5pn0twfdhlrpxh7h0000gn/T//ccjsgxbi.s:1521   .text.RNDIS_Device_USBTask:00000146 .Loc.353
/var/folders/bq/146k_07x5pn0twfdhlrpxh7h0000gn/T//ccjsgxbi.s:1526   .text.RNDIS_Device_USBTask:0000014e .Loc.354
/var/folders/bq/146k_07x5pn0twfdhlrpxh7h0000gn/T//ccjsgxbi.s:1535   .text.RNDIS_Device_USBTask:0000015c .Loc.355
/var/folders/bq/146k_07x5pn0twfdhlrpxh7h0000gn/T//ccjsgxbi.s:1536   .text.RNDIS_Device_USBTask:0000015c .Loc.356
/var/folders/bq/146k_07x5pn0twfdhlrpxh7h0000gn/T//ccjsgxbi.s:1545   .text.RNDIS_Device_USBTask:0000016c .Loc.357
/var/folders/bq/146k_07x5pn0twfdhlrpxh7h0000gn/T//ccjsgxbi.s:1546   .text.RNDIS_Device_USBTask:0000016c .Loc.358
/var/folders/bq/146k_07x5pn0twfdhlrpxh7h0000gn/T//ccjsgxbi.s:1552   .text.RNDIS_Device_USBTask:00000176 .Loc.359
/var/folders/bq/146k_07x5pn0twfdhlrpxh7h0000gn/T//ccjsgxbi.s:1562   .text.RNDIS_Device_USBTask:00000188 .Loc.360
/var/folders/bq/146k_07x5pn0twfdhlrpxh7h0000gn/T//ccjsgxbi.s:1563   .text.RNDIS_Device_USBTask:00000188 .Loc.361
/var/folders/bq/146k_07x5pn0twfdhlrpxh7h0000gn/T//ccjsgxbi.s:1572   .text.RNDIS_Device_USBTask:00000198 .Loc.362
/var/folders/bq/146k_07x5pn0twfdhlrpxh7h0000gn/T//ccjsgxbi.s:1573   .text.RNDIS_Device_USBTask:00000198 .Loc.363
/var/folders/bq/146k_07x5pn0twfdhlrpxh7h0000gn/T//ccjsgxbi.s:1580   .text.RNDIS_Device_USBTask:000001a4 .Loc.364
/var/folders/bq/146k_07x5pn0twfdhlrpxh7h0000gn/T//ccjsgxbi.s:1589   .text.RNDIS_Device_USBTask:000001b4 .Loc.365
/var/folders/bq/146k_07x5pn0twfdhlrpxh7h0000gn/T//ccjsgxbi.s:1599   .text.RNDIS_Device_USBTask:000001c6 .Loc.366
/var/folders/bq/146k_07x5pn0twfdhlrpxh7h0000gn/T//ccjsgxbi.s:1602   .text.RNDIS_Device_USBTask:000001c6 .Loc.367
/var/folders/bq/146k_07x5pn0twfdhlrpxh7h0000gn/T//ccjsgxbi.s:1604   .text.RNDIS_Device_USBTask:000001c6 .Loc.368
/var/folders/bq/146k_07x5pn0twfdhlrpxh7h0000gn/T//ccjsgxbi.s:1605   .text.RNDIS_Device_USBTask:000001c6 .Loc.369
/var/folders/bq/146k_07x5pn0twfdhlrpxh7h0000gn/T//ccjsgxbi.s:1611   .text.RNDIS_Device_USBTask:000001d0 .Loc.370
/var/folders/bq/146k_07x5pn0twfdhlrpxh7h0000gn/T//ccjsgxbi.s:1612   .text.RNDIS_Device_USBTask:000001d0 .Loc.371
/var/folders/bq/146k_07x5pn0twfdhlrpxh7h0000gn/T//ccjsgxbi.s:1617   .text.RNDIS_Device_USBTask:000001d6 L0
/var/folders/bq/146k_07x5pn0twfdhlrpxh7h0000gn/T//ccjsgxbi.s:1015   .text.RNDIS_Device_ProcessControlRequest:00000474 L0
/var/folders/bq/146k_07x5pn0twfdhlrpxh7h0000gn/T//ccjsgxbi.s:1187   .text.RNDIS_Device_ConfigureEndpoints:0000009a L0
/var/folders/bq/146k_07x5pn0twfdhlrpxh7h0000gn/T//ccjsgxbi.s:1620   .text.RNDIS_Device_USBTask:000001d6 L0
                     .debug_frame:00000000 L0
/var/folders/bq/146k_07x5pn0twfdhlrpxh7h0000gn/T//ccjsgxbi.s:76     .text.RNDIS_Device_ProcessControlRequest:00000030 .L1
/var/folders/bq/146k_07x5pn0twfdhlrpxh7h0000gn/T//ccjsgxbi.s:85     .text.RNDIS_Device_ProcessControlRequest:0000003a .L3
/var/folders/bq/146k_07x5pn0twfdhlrpxh7h0000gn/T//ccjsgxbi.s:934    .text.RNDIS_Device_ProcessControlRequest:0000041e .L4
/var/folders/bq/146k_07x5pn0twfdhlrpxh7h0000gn/T//ccjsgxbi.s:749    .text.RNDIS_Device_ProcessControlRequest:0000034e .L5
/var/folders/bq/146k_07x5pn0twfdhlrpxh7h0000gn/T//ccjsgxbi.s:164    .text.RNDIS_Device_ProcessControlRequest:0000009e .L6
/var/folders/bq/146k_07x5pn0twfdhlrpxh7h0000gn/T//ccjsgxbi.s:328    .text.RNDIS_Device_ProcessControlRequest:00000178 .L7
/var/folders/bq/146k_07x5pn0twfdhlrpxh7h0000gn/T//ccjsgxbi.s:351    .text.RNDIS_Device_ProcessControlRequest:00000190 .L8
/var/folders/bq/146k_07x5pn0twfdhlrpxh7h0000gn/T//ccjsgxbi.s:214    .text.RNDIS_Device_ProcessControlRequest:000000de .L9
/var/folders/bq/146k_07x5pn0twfdhlrpxh7h0000gn/T//ccjsgxbi.s:885    .text.RNDIS_Device_ProcessControlRequest:000003e2 .L11
/var/folders/bq/146k_07x5pn0twfdhlrpxh7h0000gn/T//ccjsgxbi.s:147    .text.RNDIS_Device_ProcessControlRequest:00000092 .L10
/var/folders/bq/146k_07x5pn0twfdhlrpxh7h0000gn/T//ccjsgxbi.s:923    .text.RNDIS_Device_ProcessControlRequest:00000414 .L41
/var/folders/bq/146k_07x5pn0twfdhlrpxh7h0000gn/T//ccjsgxbi.s:458    .text.RNDIS_Device_ProcessControlRequest:000001fc .L13
/var/folders/bq/146k_07x5pn0twfdhlrpxh7h0000gn/T//ccjsgxbi.s:532    .text.RNDIS_Device_ProcessControlRequest:00000264 .L14
/var/folders/bq/146k_07x5pn0twfdhlrpxh7h0000gn/T//ccjsgxbi.s:435    .jumptables.gcc.RNDIS_Device_ProcessControlRequest:00000000 .L16
/var/folders/bq/146k_07x5pn0twfdhlrpxh7h0000gn/T//ccjsgxbi.s:511    .text.RNDIS_Device_ProcessControlRequest:00000244 .L24
/var/folders/bq/146k_07x5pn0twfdhlrpxh7h0000gn/T//ccjsgxbi.s:690    .text.RNDIS_Device_ProcessControlRequest:00000314 .L25
/var/folders/bq/146k_07x5pn0twfdhlrpxh7h0000gn/T//ccjsgxbi.s:493    .text.RNDIS_Device_ProcessControlRequest:00000236 .L15
/var/folders/bq/146k_07x5pn0twfdhlrpxh7h0000gn/T//ccjsgxbi.s:579    .text.RNDIS_Device_ProcessControlRequest:00000296 .L27
/var/folders/bq/146k_07x5pn0twfdhlrpxh7h0000gn/T//ccjsgxbi.s:709    .text.RNDIS_Device_ProcessControlRequest:0000032a .L26
/var/folders/bq/146k_07x5pn0twfdhlrpxh7h0000gn/T//ccjsgxbi.s:504    .text.RNDIS_Device_ProcessControlRequest:0000023e .L39
/var/folders/bq/146k_07x5pn0twfdhlrpxh7h0000gn/T//ccjsgxbi.s:634    .text.RNDIS_Device_ProcessControlRequest:000002dc .L38
/var/folders/bq/146k_07x5pn0twfdhlrpxh7h0000gn/T//ccjsgxbi.s:661    .text.RNDIS_Device_ProcessControlRequest:000002f6 .L01
/var/folders/bq/146k_07x5pn0twfdhlrpxh7h0000gn/T//ccjsgxbi.s:697    .text.RNDIS_Device_ProcessControlRequest:0000031c .L02
/var/folders/bq/146k_07x5pn0twfdhlrpxh7h0000gn/T//ccjsgxbi.s:831    .text.RNDIS_Device_ProcessControlRequest:000003a6 .L28
/var/folders/bq/146k_07x5pn0twfdhlrpxh7h0000gn/T//ccjsgxbi.s:872    .text.RNDIS_Device_ProcessControlRequest:000003d8 .L31
/var/folders/bq/146k_07x5pn0twfdhlrpxh7h0000gn/T//ccjsgxbi.s:812    .text.RNDIS_Device_ProcessControlRequest:00000396 .L40
/var/folders/bq/146k_07x5pn0twfdhlrpxh7h0000gn/T//ccjsgxbi.s:821    .text.RNDIS_Device_ProcessControlRequest:0000039c .L29
/var/folders/bq/146k_07x5pn0twfdhlrpxh7h0000gn/T//ccjsgxbi.s:986    .text.RNDIS_Device_ProcessControlRequest:00000458 .L30
/var/folders/bq/146k_07x5pn0twfdhlrpxh7h0000gn/T//ccjsgxbi.s:563    .text.RNDIS_Device_ProcessControlRequest:00000286 .L23
/var/folders/bq/146k_07x5pn0twfdhlrpxh7h0000gn/T//ccjsgxbi.s:642    .text.RNDIS_Device_ProcessControlRequest:000002e6 .L21
/var/folders/bq/146k_07x5pn0twfdhlrpxh7h0000gn/T//ccjsgxbi.s:678    .text.RNDIS_Device_ProcessControlRequest:0000030a .L22
/var/folders/bq/146k_07x5pn0twfdhlrpxh7h0000gn/T//ccjsgxbi.s:623    .text.RNDIS_Device_ProcessControlRequest:000002d4 .L20
/var/folders/bq/146k_07x5pn0twfdhlrpxh7h0000gn/T//ccjsgxbi.s:654    .text.RNDIS_Device_ProcessControlRequest:000002f0 .L19
/var/folders/bq/146k_07x5pn0twfdhlrpxh7h0000gn/T//ccjsgxbi.s:721    .text.RNDIS_Device_ProcessControlRequest:00000334 .L18
/var/folders/bq/146k_07x5pn0twfdhlrpxh7h0000gn/T//ccjsgxbi.s:737    .text.RNDIS_Device_ProcessControlRequest:00000344 .L17
/var/folders/bq/146k_07x5pn0twfdhlrpxh7h0000gn/T//ccjsgxbi.s:1054   .text.RNDIS_Device_ConfigureEndpoints:00000016 .L03
/var/folders/bq/146k_07x5pn0twfdhlrpxh7h0000gn/T//ccjsgxbi.s:1170   .text.RNDIS_Device_ConfigureEndpoints:0000008e .L45
/var/folders/bq/146k_07x5pn0twfdhlrpxh7h0000gn/T//ccjsgxbi.s:1428   .text.RNDIS_Device_USBTask:000000e4 .L55
/var/folders/bq/146k_07x5pn0twfdhlrpxh7h0000gn/T//ccjsgxbi.s:1331   .text.RNDIS_Device_USBTask:00000078 .L58
/var/folders/bq/146k_07x5pn0twfdhlrpxh7h0000gn/T//ccjsgxbi.s:1188   .rodata:00000000 .LC0
/var/folders/bq/146k_07x5pn0twfdhlrpxh7h0000gn/T//ccjsgxbi.s:1301   .text.RNDIS_Device_USBTask:00000052 .L04
/var/folders/bq/146k_07x5pn0twfdhlrpxh7h0000gn/T//ccjsgxbi.s:1485   .text.RNDIS_Device_USBTask:0000012a .L60
/var/folders/bq/146k_07x5pn0twfdhlrpxh7h0000gn/T//ccjsgxbi.s:1449   .text.RNDIS_Device_USBTask:000000fe .L61
/var/folders/bq/146k_07x5pn0twfdhlrpxh7h0000gn/T//ccjsgxbi.s:1531   .text.RNDIS_Device_USBTask:00000156 .L05
/var/folders/bq/146k_07x5pn0twfdhlrpxh7h0000gn/T//ccjsgxbi.s:4257   .debug_abbrev:00000000 .Ldebug_abbrev0
/var/folders/bq/146k_07x5pn0twfdhlrpxh7h0000gn/T//ccjsgxbi.s:7261   .debug_ranges:00000000 .Ldebug_ranges0
/var/folders/bq/146k_07x5pn0twfdhlrpxh7h0000gn/T//ccjsgxbi.s:7305   .debug_line:00000000 .Ldebug_line0
/var/folders/bq/146k_07x5pn0twfdhlrpxh7h0000gn/T//ccjsgxbi.s:1199   .text.RNDIS_Device_USBTask:00000000 .LFB67
/var/folders/bq/146k_07x5pn0twfdhlrpxh7h0000gn/T//ccjsgxbi.s:1618   .text.RNDIS_Device_USBTask:000001d6 .LFE67
/var/folders/bq/146k_07x5pn0twfdhlrpxh7h0000gn/T//ccjsgxbi.s:5113   .debug_loc:00000000 .LLST47
/var/folders/bq/146k_07x5pn0twfdhlrpxh7h0000gn/T//ccjsgxbi.s:5177   .debug_loc:00000083 .LLST48
/var/folders/bq/146k_07x5pn0twfdhlrpxh7h0000gn/T//ccjsgxbi.s:5168   .debug_loc:0000007b .LVUS48
/var/folders/bq/146k_07x5pn0twfdhlrpxh7h0000gn/T//ccjsgxbi.s:5219   .debug_loc:000000cd .LLST49
/var/folders/bq/146k_07x5pn0twfdhlrpxh7h0000gn/T//ccjsgxbi.s:5214   .debug_loc:000000c9 .LVUS49
/var/folders/bq/146k_07x5pn0twfdhlrpxh7h0000gn/T//ccjsgxbi.s:1293   .text.RNDIS_Device_USBTask:00000048 .LBB113
/var/folders/bq/146k_07x5pn0twfdhlrpxh7h0000gn/T//ccjsgxbi.s:1332   .text.RNDIS_Device_USBTask:00000078 .LBE113
/var/folders/bq/146k_07x5pn0twfdhlrpxh7h0000gn/T//ccjsgxbi.s:1317   .text.RNDIS_Device_USBTask:0000006a .LBI114
/var/folders/bq/146k_07x5pn0twfdhlrpxh7h0000gn/T//ccjsgxbi.s:1316   .text.RNDIS_Device_USBTask:0000006a .LBB114
/var/folders/bq/146k_07x5pn0twfdhlrpxh7h0000gn/T//ccjsgxbi.s:1326   .text.RNDIS_Device_USBTask:00000074 .LBE114
/var/folders/bq/146k_07x5pn0twfdhlrpxh7h0000gn/T//ccjsgxbi.s:1314   .text.RNDIS_Device_USBTask:0000006a .LVL84
/var/folders/bq/146k_07x5pn0twfdhlrpxh7h0000gn/T//ccjsgxbi.s:1358   .text.RNDIS_Device_USBTask:00000098 .LBI117
/var/folders/bq/146k_07x5pn0twfdhlrpxh7h0000gn/T//ccjsgxbi.s:1357   .text.RNDIS_Device_USBTask:00000098 .LBB117
/var/folders/bq/146k_07x5pn0twfdhlrpxh7h0000gn/T//ccjsgxbi.s:1367   .text.RNDIS_Device_USBTask:0000009c .LBE117
/var/folders/bq/146k_07x5pn0twfdhlrpxh7h0000gn/T//ccjsgxbi.s:5237   .debug_loc:000000f1 .LLST51
/var/folders/bq/146k_07x5pn0twfdhlrpxh7h0000gn/T//ccjsgxbi.s:5234   .debug_loc:000000ef .LVUS51
/var/folders/bq/146k_07x5pn0twfdhlrpxh7h0000gn/T//ccjsgxbi.s:1370   .text.RNDIS_Device_USBTask:0000009c .LBI119
/var/folders/bq/146k_07x5pn0twfdhlrpxh7h0000gn/T//ccjsgxbi.s:1369   .text.RNDIS_Device_USBTask:0000009c .LBB119
/var/folders/bq/146k_07x5pn0twfdhlrpxh7h0000gn/T//ccjsgxbi.s:1377   .text.RNDIS_Device_USBTask:000000a0 .LBE119
/var/folders/bq/146k_07x5pn0twfdhlrpxh7h0000gn/T//ccjsgxbi.s:1416   .text.RNDIS_Device_USBTask:000000da .LBI121
/var/folders/bq/146k_07x5pn0twfdhlrpxh7h0000gn/T//ccjsgxbi.s:1415   .text.RNDIS_Device_USBTask:000000da .LBB121
/var/folders/bq/146k_07x5pn0twfdhlrpxh7h0000gn/T//ccjsgxbi.s:1425   .text.RNDIS_Device_USBTask:000000e4 .LBE121
/var/folders/bq/146k_07x5pn0twfdhlrpxh7h0000gn/T//ccjsgxbi.s:1461   .text.RNDIS_Device_USBTask:0000010c .LBI123
/var/folders/bq/146k_07x5pn0twfdhlrpxh7h0000gn/T//ccjsgxbi.s:1460   .text.RNDIS_Device_USBTask:0000010c .LBB123
/var/folders/bq/146k_07x5pn0twfdhlrpxh7h0000gn/T//ccjsgxbi.s:1470   .text.RNDIS_Device_USBTask:00000116 .LBE123
/var/folders/bq/146k_07x5pn0twfdhlrpxh7h0000gn/T//ccjsgxbi.s:1492   .text.RNDIS_Device_USBTask:00000130 .LBI125
/var/folders/bq/146k_07x5pn0twfdhlrpxh7h0000gn/T//ccjsgxbi.s:1491   .text.RNDIS_Device_USBTask:00000130 .LBB125
/var/folders/bq/146k_07x5pn0twfdhlrpxh7h0000gn/T//ccjsgxbi.s:1501   .text.RNDIS_Device_USBTask:00000134 .LBE125
/var/folders/bq/146k_07x5pn0twfdhlrpxh7h0000gn/T//ccjsgxbi.s:5247   .debug_loc:00000106 .LLST52
/var/folders/bq/146k_07x5pn0twfdhlrpxh7h0000gn/T//ccjsgxbi.s:5244   .debug_loc:00000104 .LVUS52
/var/folders/bq/146k_07x5pn0twfdhlrpxh7h0000gn/T//ccjsgxbi.s:1504   .text.RNDIS_Device_USBTask:00000134 .LBI127
/var/folders/bq/146k_07x5pn0twfdhlrpxh7h0000gn/T//ccjsgxbi.s:1503   .text.RNDIS_Device_USBTask:00000134 .LBB127
/var/folders/bq/146k_07x5pn0twfdhlrpxh7h0000gn/T//ccjsgxbi.s:1511   .text.RNDIS_Device_USBTask:00000138 .LBE127
/var/folders/bq/146k_07x5pn0twfdhlrpxh7h0000gn/T//ccjsgxbi.s:1601   .text.RNDIS_Device_USBTask:000001c6 .LBI129
/var/folders/bq/146k_07x5pn0twfdhlrpxh7h0000gn/T//ccjsgxbi.s:1600   .text.RNDIS_Device_USBTask:000001c6 .LBB129
/var/folders/bq/146k_07x5pn0twfdhlrpxh7h0000gn/T//ccjsgxbi.s:1610   .text.RNDIS_Device_USBTask:000001d0 .LBE129
/var/folders/bq/146k_07x5pn0twfdhlrpxh7h0000gn/T//ccjsgxbi.s:1400   .text.RNDIS_Device_USBTask:000000c6 .LVL87
/var/folders/bq/146k_07x5pn0twfdhlrpxh7h0000gn/T//ccjsgxbi.s:1458   .text.RNDIS_Device_USBTask:0000010c .LVL91
/var/folders/bq/146k_07x5pn0twfdhlrpxh7h0000gn/T//ccjsgxbi.s:1588   .text.RNDIS_Device_USBTask:000001b4 .LVL94
/var/folders/bq/146k_07x5pn0twfdhlrpxh7h0000gn/T//ccjsgxbi.s:1598   .text.RNDIS_Device_USBTask:000001c6 .LVL95
/var/folders/bq/146k_07x5pn0twfdhlrpxh7h0000gn/T//ccjsgxbi.s:1260   .text.RNDIS_Device_USBTask:0000002c .LBI109
/var/folders/bq/146k_07x5pn0twfdhlrpxh7h0000gn/T//ccjsgxbi.s:1259   .text.RNDIS_Device_USBTask:0000002c .LBB109
/var/folders/bq/146k_07x5pn0twfdhlrpxh7h0000gn/T//ccjsgxbi.s:1269   .text.RNDIS_Device_USBTask:00000030 .LBE109
/var/folders/bq/146k_07x5pn0twfdhlrpxh7h0000gn/T//ccjsgxbi.s:5257   .debug_loc:0000011b .LLST50
/var/folders/bq/146k_07x5pn0twfdhlrpxh7h0000gn/T//ccjsgxbi.s:5254   .debug_loc:00000119 .LVUS50
/var/folders/bq/146k_07x5pn0twfdhlrpxh7h0000gn/T//ccjsgxbi.s:1272   .text.RNDIS_Device_USBTask:00000030 .LBI111
/var/folders/bq/146k_07x5pn0twfdhlrpxh7h0000gn/T//ccjsgxbi.s:1271   .text.RNDIS_Device_USBTask:00000030 .LBB111
/var/folders/bq/146k_07x5pn0twfdhlrpxh7h0000gn/T//ccjsgxbi.s:1279   .text.RNDIS_Device_USBTask:00000034 .LBE111
/var/folders/bq/146k_07x5pn0twfdhlrpxh7h0000gn/T//ccjsgxbi.s:1020   .text.RNDIS_Device_ConfigureEndpoints:00000000 .LFB66
/var/folders/bq/146k_07x5pn0twfdhlrpxh7h0000gn/T//ccjsgxbi.s:1185   .text.RNDIS_Device_ConfigureEndpoints:0000009a .LFE66
/var/folders/bq/146k_07x5pn0twfdhlrpxh7h0000gn/T//ccjsgxbi.s:5264   .debug_loc:0000012e .LLST30
/var/folders/bq/146k_07x5pn0twfdhlrpxh7h0000gn/T//ccjsgxbi.s:5308   .debug_loc:00000181 .LLST31
/var/folders/bq/146k_07x5pn0twfdhlrpxh7h0000gn/T//ccjsgxbi.s:5297   .debug_loc:00000177 .LVUS31
/var/folders/bq/146k_07x5pn0twfdhlrpxh7h0000gn/T//ccjsgxbi.s:1072   .text.RNDIS_Device_ConfigureEndpoints:0000002c .LBI101
/var/folders/bq/146k_07x5pn0twfdhlrpxh7h0000gn/T//ccjsgxbi.s:1071   .text.RNDIS_Device_ConfigureEndpoints:0000002c .LBB101
/var/folders/bq/146k_07x5pn0twfdhlrpxh7h0000gn/T//ccjsgxbi.s:1089   .text.RNDIS_Device_ConfigureEndpoints:0000003e .LBE101
/var/folders/bq/146k_07x5pn0twfdhlrpxh7h0000gn/T//ccjsgxbi.s:5355   .debug_loc:000001d7 .LLST32
/var/folders/bq/146k_07x5pn0twfdhlrpxh7h0000gn/T//ccjsgxbi.s:5352   .debug_loc:000001d5 .LVUS32
/var/folders/bq/146k_07x5pn0twfdhlrpxh7h0000gn/T//ccjsgxbi.s:5365   .debug_loc:000001ec .LLST33
/var/folders/bq/146k_07x5pn0twfdhlrpxh7h0000gn/T//ccjsgxbi.s:5362   .debug_loc:000001ea .LVUS33
/var/folders/bq/146k_07x5pn0twfdhlrpxh7h0000gn/T//ccjsgxbi.s:5380   .debug_loc:00000206 .LLST34
/var/folders/bq/146k_07x5pn0twfdhlrpxh7h0000gn/T//ccjsgxbi.s:5377   .debug_loc:00000204 .LVUS34
/var/folders/bq/146k_07x5pn0twfdhlrpxh7h0000gn/T//ccjsgxbi.s:5391   .debug_loc:0000021c .LLST35
/var/folders/bq/146k_07x5pn0twfdhlrpxh7h0000gn/T//ccjsgxbi.s:5388   .debug_loc:0000021a .LVUS35
/var/folders/bq/146k_07x5pn0twfdhlrpxh7h0000gn/T//ccjsgxbi.s:5402   .debug_loc:00000232 .LLST36
/var/folders/bq/146k_07x5pn0twfdhlrpxh7h0000gn/T//ccjsgxbi.s:5399   .debug_loc:00000230 .LVUS36
/var/folders/bq/146k_07x5pn0twfdhlrpxh7h0000gn/T//ccjsgxbi.s:1078   .text.RNDIS_Device_ConfigureEndpoints:00000030 .LVL68
/var/folders/bq/146k_07x5pn0twfdhlrpxh7h0000gn/T//ccjsgxbi.s:1086   .text.RNDIS_Device_ConfigureEndpoints:0000003e .LVL69
/var/folders/bq/146k_07x5pn0twfdhlrpxh7h0000gn/T//ccjsgxbi.s:1106   .text.RNDIS_Device_ConfigureEndpoints:00000050 .LBI103
/var/folders/bq/146k_07x5pn0twfdhlrpxh7h0000gn/T//ccjsgxbi.s:1105   .text.RNDIS_Device_ConfigureEndpoints:00000050 .LBB103
/var/folders/bq/146k_07x5pn0twfdhlrpxh7h0000gn/T//ccjsgxbi.s:1123   .text.RNDIS_Device_ConfigureEndpoints:00000062 .LBE103
/var/folders/bq/146k_07x5pn0twfdhlrpxh7h0000gn/T//ccjsgxbi.s:5412   .debug_loc:00000247 .LLST37
/var/folders/bq/146k_07x5pn0twfdhlrpxh7h0000gn/T//ccjsgxbi.s:5409   .debug_loc:00000245 .LVUS37
/var/folders/bq/146k_07x5pn0twfdhlrpxh7h0000gn/T//ccjsgxbi.s:5422   .debug_loc:0000025c .LLST38
/var/folders/bq/146k_07x5pn0twfdhlrpxh7h0000gn/T//ccjsgxbi.s:5419   .debug_loc:0000025a .LVUS38
/var/folders/bq/146k_07x5pn0twfdhlrpxh7h0000gn/T//ccjsgxbi.s:5437   .debug_loc:00000276 .LLST39
/var/folders/bq/146k_07x5pn0twfdhlrpxh7h0000gn/T//ccjsgxbi.s:5434   .debug_loc:00000274 .LVUS39
/var/folders/bq/146k_07x5pn0twfdhlrpxh7h0000gn/T//ccjsgxbi.s:5448   .debug_loc:0000028c .LLST40
/var/folders/bq/146k_07x5pn0twfdhlrpxh7h0000gn/T//ccjsgxbi.s:5445   .debug_loc:0000028a .LVUS40
/var/folders/bq/146k_07x5pn0twfdhlrpxh7h0000gn/T//ccjsgxbi.s:5459   .debug_loc:000002a2 .LLST41
/var/folders/bq/146k_07x5pn0twfdhlrpxh7h0000gn/T//ccjsgxbi.s:5456   .debug_loc:000002a0 .LVUS41
/var/folders/bq/146k_07x5pn0twfdhlrpxh7h0000gn/T//ccjsgxbi.s:1112   .text.RNDIS_Device_ConfigureEndpoints:00000054 .LVL71
/var/folders/bq/146k_07x5pn0twfdhlrpxh7h0000gn/T//ccjsgxbi.s:1120   .text.RNDIS_Device_ConfigureEndpoints:00000062 .LVL72
/var/folders/bq/146k_07x5pn0twfdhlrpxh7h0000gn/T//ccjsgxbi.s:1140   .text.RNDIS_Device_ConfigureEndpoints:00000074 .LBI105
/var/folders/bq/146k_07x5pn0twfdhlrpxh7h0000gn/T//ccjsgxbi.s:5469   .debug_loc:000002b7 .LLST42
/var/folders/bq/146k_07x5pn0twfdhlrpxh7h0000gn/T//ccjsgxbi.s:5466   .debug_loc:000002b5 .LVUS42
/var/folders/bq/146k_07x5pn0twfdhlrpxh7h0000gn/T//ccjsgxbi.s:5479   .debug_loc:000002cc .LLST43
/var/folders/bq/146k_07x5pn0twfdhlrpxh7h0000gn/T//ccjsgxbi.s:5476   .debug_loc:000002ca .LVUS43
/var/folders/bq/146k_07x5pn0twfdhlrpxh7h0000gn/T//ccjsgxbi.s:5494   .debug_loc:000002e6 .LLST44
/var/folders/bq/146k_07x5pn0twfdhlrpxh7h0000gn/T//ccjsgxbi.s:5491   .debug_loc:000002e4 .LVUS44
/var/folders/bq/146k_07x5pn0twfdhlrpxh7h0000gn/T//ccjsgxbi.s:5505   .debug_loc:000002fc .LLST45
/var/folders/bq/146k_07x5pn0twfdhlrpxh7h0000gn/T//ccjsgxbi.s:5502   .debug_loc:000002fa .LVUS45
/var/folders/bq/146k_07x5pn0twfdhlrpxh7h0000gn/T//ccjsgxbi.s:5518   .debug_loc:00000314 .LLST46
/var/folders/bq/146k_07x5pn0twfdhlrpxh7h0000gn/T//ccjsgxbi.s:5513   .debug_loc:00000310 .LVUS46
/var/folders/bq/146k_07x5pn0twfdhlrpxh7h0000gn/T//ccjsgxbi.s:1146   .text.RNDIS_Device_ConfigureEndpoints:00000078 .LVL74
/var/folders/bq/146k_07x5pn0twfdhlrpxh7h0000gn/T//ccjsgxbi.s:1169   .text.RNDIS_Device_ConfigureEndpoints:0000008e .LVL77
/var/folders/bq/146k_07x5pn0twfdhlrpxh7h0000gn/T//ccjsgxbi.s:15     .text.RNDIS_Device_ProcessControlRequest:00000000 .LFB65
/var/folders/bq/146k_07x5pn0twfdhlrpxh7h0000gn/T//ccjsgxbi.s:1013   .text.RNDIS_Device_ProcessControlRequest:00000474 .LFE65
/var/folders/bq/146k_07x5pn0twfdhlrpxh7h0000gn/T//ccjsgxbi.s:5529   .debug_loc:00000332 .LLST0
/var/folders/bq/146k_07x5pn0twfdhlrpxh7h0000gn/T//ccjsgxbi.s:5583   .debug_loc:0000038f .LLST1
/var/folders/bq/146k_07x5pn0twfdhlrpxh7h0000gn/T//ccjsgxbi.s:5562   .debug_loc:0000037b .LVUS1
/var/folders/bq/146k_07x5pn0twfdhlrpxh7h0000gn/T//ccjsgxbi.s:945    .text.RNDIS_Device_ProcessControlRequest:00000428 .LBB78
/var/folders/bq/146k_07x5pn0twfdhlrpxh7h0000gn/T//ccjsgxbi.s:1011   .text.RNDIS_Device_ProcessControlRequest:00000474 .LBE78
/var/folders/bq/146k_07x5pn0twfdhlrpxh7h0000gn/T//ccjsgxbi.s:5671   .debug_loc:00000433 .LLST29
/var/folders/bq/146k_07x5pn0twfdhlrpxh7h0000gn/T//ccjsgxbi.s:5666   .debug_loc:0000042f .LVUS29
/var/folders/bq/146k_07x5pn0twfdhlrpxh7h0000gn/T//ccjsgxbi.s:948    .text.RNDIS_Device_ProcessControlRequest:00000428 .LBI79
/var/folders/bq/146k_07x5pn0twfdhlrpxh7h0000gn/T//ccjsgxbi.s:947    .text.RNDIS_Device_ProcessControlRequest:00000428 .LBB79
/var/folders/bq/146k_07x5pn0twfdhlrpxh7h0000gn/T//ccjsgxbi.s:957    .text.RNDIS_Device_ProcessControlRequest:00000432 .LBE79
/var/folders/bq/146k_07x5pn0twfdhlrpxh7h0000gn/T//ccjsgxbi.s:994    .text.RNDIS_Device_ProcessControlRequest:00000460 .LBI81
/var/folders/bq/146k_07x5pn0twfdhlrpxh7h0000gn/T//ccjsgxbi.s:993    .text.RNDIS_Device_ProcessControlRequest:00000460 .LBB81
/var/folders/bq/146k_07x5pn0twfdhlrpxh7h0000gn/T//ccjsgxbi.s:1003   .text.RNDIS_Device_ProcessControlRequest:0000046a .LBE81
/var/folders/bq/146k_07x5pn0twfdhlrpxh7h0000gn/T//ccjsgxbi.s:991    .text.RNDIS_Device_ProcessControlRequest:00000460 .LVL64
/var/folders/bq/146k_07x5pn0twfdhlrpxh7h0000gn/T//ccjsgxbi.s:43     .text.RNDIS_Device_ProcessControlRequest:0000000a .LBI55
/var/folders/bq/146k_07x5pn0twfdhlrpxh7h0000gn/T//ccjsgxbi.s:42     .text.RNDIS_Device_ProcessControlRequest:0000000a .LBB55
/var/folders/bq/146k_07x5pn0twfdhlrpxh7h0000gn/T//ccjsgxbi.s:53     .text.RNDIS_Device_ProcessControlRequest:0000000e .LBE55
/var/folders/bq/146k_07x5pn0twfdhlrpxh7h0000gn/T//ccjsgxbi.s:93     .text.RNDIS_Device_ProcessControlRequest:00000042 .LBI57
/var/folders/bq/146k_07x5pn0twfdhlrpxh7h0000gn/T//ccjsgxbi.s:92     .text.RNDIS_Device_ProcessControlRequest:00000042 .LBB57
/var/folders/bq/146k_07x5pn0twfdhlrpxh7h0000gn/T//ccjsgxbi.s:102    .text.RNDIS_Device_ProcessControlRequest:0000004c .LBE57
/var/folders/bq/146k_07x5pn0twfdhlrpxh7h0000gn/T//ccjsgxbi.s:112    .text.RNDIS_Device_ProcessControlRequest:0000005c .LBI59
/var/folders/bq/146k_07x5pn0twfdhlrpxh7h0000gn/T//ccjsgxbi.s:5702   .debug_loc:00000464 .LLST2
/var/folders/bq/146k_07x5pn0twfdhlrpxh7h0000gn/T//ccjsgxbi.s:5689   .debug_loc:00000458 .LVUS2
/var/folders/bq/146k_07x5pn0twfdhlrpxh7h0000gn/T//ccjsgxbi.s:5768   .debug_loc:000004d6 .LLST3
/var/folders/bq/146k_07x5pn0twfdhlrpxh7h0000gn/T//ccjsgxbi.s:5753   .debug_loc:000004c8 .LVUS3
/var/folders/bq/146k_07x5pn0twfdhlrpxh7h0000gn/T//ccjsgxbi.s:181    .text.RNDIS_Device_ProcessControlRequest:000000b2 .LBB61
/var/folders/bq/146k_07x5pn0twfdhlrpxh7h0000gn/T//ccjsgxbi.s:936    .text.RNDIS_Device_ProcessControlRequest:0000041e .LBE61
/var/folders/bq/146k_07x5pn0twfdhlrpxh7h0000gn/T//ccjsgxbi.s:5821   .debug_loc:00000542 .LLST4
/var/folders/bq/146k_07x5pn0twfdhlrpxh7h0000gn/T//ccjsgxbi.s:5816   .debug_loc:0000053e .LVUS4
/var/folders/bq/146k_07x5pn0twfdhlrpxh7h0000gn/T//ccjsgxbi.s:5841   .debug_loc:00000569 .LLST5
/var/folders/bq/146k_07x5pn0twfdhlrpxh7h0000gn/T//ccjsgxbi.s:5836   .debug_loc:00000565 .LVUS5
/var/folders/bq/146k_07x5pn0twfdhlrpxh7h0000gn/T//ccjsgxbi.s:5859   .debug_loc:0000058e .LLST6
/var/folders/bq/146k_07x5pn0twfdhlrpxh7h0000gn/T//ccjsgxbi.s:5856   .debug_loc:0000058c .LVUS6
/var/folders/bq/146k_07x5pn0twfdhlrpxh7h0000gn/T//ccjsgxbi.s:5871   .debug_loc:000005a5 .LLST7
/var/folders/bq/146k_07x5pn0twfdhlrpxh7h0000gn/T//ccjsgxbi.s:5868   .debug_loc:000005a3 .LVUS7
/var/folders/bq/146k_07x5pn0twfdhlrpxh7h0000gn/T//ccjsgxbi.s:5903   .debug_loc:000005d0 .LLST8
/var/folders/bq/146k_07x5pn0twfdhlrpxh7h0000gn/T//ccjsgxbi.s:5880   .debug_loc:000005ba .LVUS8
/var/folders/bq/146k_07x5pn0twfdhlrpxh7h0000gn/T//ccjsgxbi.s:6010   .debug_loc:0000068c .LLST9
/var/folders/bq/146k_07x5pn0twfdhlrpxh7h0000gn/T//ccjsgxbi.s:6001   .debug_loc:00000684 .LVUS9
/var/folders/bq/146k_07x5pn0twfdhlrpxh7h0000gn/T//ccjsgxbi.s:6106   .debug_loc:0000070c .LLST10
/var/folders/bq/146k_07x5pn0twfdhlrpxh7h0000gn/T//ccjsgxbi.s:6065   .debug_loc:000006e4 .LVUS10
/var/folders/bq/146k_07x5pn0twfdhlrpxh7h0000gn/T//ccjsgxbi.s:6280   .debug_loc:0000084a .LLST11
/var/folders/bq/146k_07x5pn0twfdhlrpxh7h0000gn/T//ccjsgxbi.s:6259   .debug_loc:00000836 .LVUS11
/var/folders/bq/146k_07x5pn0twfdhlrpxh7h0000gn/T//ccjsgxbi.s:6341   .debug_loc:000008d1 .LLST12
/var/folders/bq/146k_07x5pn0twfdhlrpxh7h0000gn/T//ccjsgxbi.s:6338   .debug_loc:000008cf .LVUS12
/var/folders/bq/146k_07x5pn0twfdhlrpxh7h0000gn/T//ccjsgxbi.s:6353   .debug_loc:000008e8 .LLST13
/var/folders/bq/146k_07x5pn0twfdhlrpxh7h0000gn/T//ccjsgxbi.s:6350   .debug_loc:000008e6 .LVUS13
/var/folders/bq/146k_07x5pn0twfdhlrpxh7h0000gn/T//ccjsgxbi.s:6375   .debug_loc:00000909 .LLST14
/var/folders/bq/146k_07x5pn0twfdhlrpxh7h0000gn/T//ccjsgxbi.s:6362   .debug_loc:000008fd .LVUS14
/var/folders/bq/146k_07x5pn0twfdhlrpxh7h0000gn/T//ccjsgxbi.s:6441   .debug_loc:00000979 .LLST15
/var/folders/bq/146k_07x5pn0twfdhlrpxh7h0000gn/T//ccjsgxbi.s:6438   .debug_loc:00000977 .LVUS15
/var/folders/bq/146k_07x5pn0twfdhlrpxh7h0000gn/T//ccjsgxbi.s:6460   .debug_loc:00000997 .LLST16
/var/folders/bq/146k_07x5pn0twfdhlrpxh7h0000gn/T//ccjsgxbi.s:6457   .debug_loc:00000995 .LVUS16
/var/folders/bq/146k_07x5pn0twfdhlrpxh7h0000gn/T//ccjsgxbi.s:6472   .debug_loc:000009ae .LLST17
/var/folders/bq/146k_07x5pn0twfdhlrpxh7h0000gn/T//ccjsgxbi.s:6469   .debug_loc:000009ac .LVUS17
/var/folders/bq/146k_07x5pn0twfdhlrpxh7h0000gn/T//ccjsgxbi.s:6484   .debug_loc:000009c5 .LLST18
/var/folders/bq/146k_07x5pn0twfdhlrpxh7h0000gn/T//ccjsgxbi.s:6481   .debug_loc:000009c3 .LVUS18
/var/folders/bq/146k_07x5pn0twfdhlrpxh7h0000gn/T//ccjsgxbi.s:399    .text.RNDIS_Device_ProcessControlRequest:000001c6 .LBI62
/var/folders/bq/146k_07x5pn0twfdhlrpxh7h0000gn/T//ccjsgxbi.s:6506   .debug_loc:000009e6 .LLST19
/var/folders/bq/146k_07x5pn0twfdhlrpxh7h0000gn/T//ccjsgxbi.s:6493   .debug_loc:000009da .LVUS19
/var/folders/bq/146k_07x5pn0twfdhlrpxh7h0000gn/T//ccjsgxbi.s:6586   .debug_loc:00000a76 .LLST20
/var/folders/bq/146k_07x5pn0twfdhlrpxh7h0000gn/T//ccjsgxbi.s:6545   .debug_loc:00000a4e .LVUS20
/var/folders/bq/146k_07x5pn0twfdhlrpxh7h0000gn/T//ccjsgxbi.s:6755   .debug_loc:00000baf .LLST21
/var/folders/bq/146k_07x5pn0twfdhlrpxh7h0000gn/T//ccjsgxbi.s:6742   .debug_loc:00000ba3 .LVUS21
/var/folders/bq/146k_07x5pn0twfdhlrpxh7h0000gn/T//ccjsgxbi.s:6801   .debug_loc:00000c0b .LLST22
/var/folders/bq/146k_07x5pn0twfdhlrpxh7h0000gn/T//ccjsgxbi.s:6788   .debug_loc:00000bff .LVUS22
/var/folders/bq/146k_07x5pn0twfdhlrpxh7h0000gn/T//ccjsgxbi.s:6907   .debug_loc:00000ca3 .LLST23
/var/folders/bq/146k_07x5pn0twfdhlrpxh7h0000gn/T//ccjsgxbi.s:6882   .debug_loc:00000c8b .LVUS23
/var/folders/bq/146k_07x5pn0twfdhlrpxh7h0000gn/T//ccjsgxbi.s:7033   .debug_loc:00000d79 .LLST24
/var/folders/bq/146k_07x5pn0twfdhlrpxh7h0000gn/T//ccjsgxbi.s:7020   .debug_loc:00000d6d .LVUS24
/var/folders/bq/146k_07x5pn0twfdhlrpxh7h0000gn/T//ccjsgxbi.s:573    .text.RNDIS_Device_ProcessControlRequest:00000292 .LVL30
/var/folders/bq/146k_07x5pn0twfdhlrpxh7h0000gn/T//ccjsgxbi.s:673    .text.RNDIS_Device_ProcessControlRequest:00000308 .LVL38
/var/folders/bq/146k_07x5pn0twfdhlrpxh7h0000gn/T//ccjsgxbi.s:795    .text.RNDIS_Device_ProcessControlRequest:00000380 .LBI68
/var/folders/bq/146k_07x5pn0twfdhlrpxh7h0000gn/T//ccjsgxbi.s:7095   .debug_loc:00000de5 .LLST25
/var/folders/bq/146k_07x5pn0twfdhlrpxh7h0000gn/T//ccjsgxbi.s:7090   .debug_loc:00000de1 .LVUS25
/var/folders/bq/146k_07x5pn0twfdhlrpxh7h0000gn/T//ccjsgxbi.s:7113   .debug_loc:00000e09 .LLST26
/var/folders/bq/146k_07x5pn0twfdhlrpxh7h0000gn/T//ccjsgxbi.s:7108   .debug_loc:00000e05 .LVUS26
/var/folders/bq/146k_07x5pn0twfdhlrpxh7h0000gn/T//ccjsgxbi.s:7155   .debug_loc:00000e45 .LLST27
/var/folders/bq/146k_07x5pn0twfdhlrpxh7h0000gn/T//ccjsgxbi.s:7142   .debug_loc:00000e39 .LVUS27
/var/folders/bq/146k_07x5pn0twfdhlrpxh7h0000gn/T//ccjsgxbi.s:7223   .debug_loc:00000eb7 .LLST28
/var/folders/bq/146k_07x5pn0twfdhlrpxh7h0000gn/T//ccjsgxbi.s:7218   .debug_loc:00000eb3 .LVUS28
/var/folders/bq/146k_07x5pn0twfdhlrpxh7h0000gn/T//ccjsgxbi.s:153    .text.RNDIS_Device_ProcessControlRequest:00000092 .LBI75
/var/folders/bq/146k_07x5pn0twfdhlrpxh7h0000gn/T//ccjsgxbi.s:152    .text.RNDIS_Device_ProcessControlRequest:00000092 .LBB75
/var/folders/bq/146k_07x5pn0twfdhlrpxh7h0000gn/T//ccjsgxbi.s:167    .text.RNDIS_Device_ProcessControlRequest:0000009e .LBE75
/var/folders/bq/146k_07x5pn0twfdhlrpxh7h0000gn/T//ccjsgxbi.s:109    .text.RNDIS_Device_ProcessControlRequest:0000005c .LVL4
/var/folders/bq/146k_07x5pn0twfdhlrpxh7h0000gn/T//ccjsgxbi.s:1204   .text.RNDIS_Device_USBTask:00000002 .LCFI8
/var/folders/bq/146k_07x5pn0twfdhlrpxh7h0000gn/T//ccjsgxbi.s:1208   .text.RNDIS_Device_USBTask:00000004 .LCFI9
/var/folders/bq/146k_07x5pn0twfdhlrpxh7h0000gn/T//ccjsgxbi.s:1212   .text.RNDIS_Device_USBTask:00000006 .LCFI10
/var/folders/bq/146k_07x5pn0twfdhlrpxh7h0000gn/T//ccjsgxbi.s:1216   .text.RNDIS_Device_USBTask:00000008 .LCFI11
/var/folders/bq/146k_07x5pn0twfdhlrpxh7h0000gn/T//ccjsgxbi.s:1220   .text.RNDIS_Device_USBTask:0000000a .LCFI12
/var/folders/bq/146k_07x5pn0twfdhlrpxh7h0000gn/T//ccjsgxbi.s:1224   .text.RNDIS_Device_USBTask:0000000c .LCFI13
/var/folders/bq/146k_07x5pn0twfdhlrpxh7h0000gn/T//ccjsgxbi.s:1229   .text.RNDIS_Device_USBTask:00000010 .LCFI14
/var/folders/bq/146k_07x5pn0twfdhlrpxh7h0000gn/T//ccjsgxbi.s:1232   .text.RNDIS_Device_USBTask:00000012 .LCFI15
/var/folders/bq/146k_07x5pn0twfdhlrpxh7h0000gn/T//ccjsgxbi.s:1198   .text.RNDIS_Device_USBTask:00000000 .LVL79
/var/folders/bq/146k_07x5pn0twfdhlrpxh7h0000gn/T//ccjsgxbi.s:1247   .text.RNDIS_Device_USBTask:00000020 .LVL80
/var/folders/bq/146k_07x5pn0twfdhlrpxh7h0000gn/T//ccjsgxbi.s:1443   .text.RNDIS_Device_USBTask:000000f8 .LVL89
/var/folders/bq/146k_07x5pn0twfdhlrpxh7h0000gn/T//ccjsgxbi.s:1448   .text.RNDIS_Device_USBTask:000000fe .LVL90
/var/folders/bq/146k_07x5pn0twfdhlrpxh7h0000gn/T//ccjsgxbi.s:1253   .text.RNDIS_Device_USBTask:00000026 .LVL81
/var/folders/bq/146k_07x5pn0twfdhlrpxh7h0000gn/T//ccjsgxbi.s:1427   .text.RNDIS_Device_USBTask:000000e4 .LVL88
/var/folders/bq/146k_07x5pn0twfdhlrpxh7h0000gn/T//ccjsgxbi.s:1356   .text.RNDIS_Device_USBTask:00000098 .LVL85
/var/folders/bq/146k_07x5pn0twfdhlrpxh7h0000gn/T//ccjsgxbi.s:1364   .text.RNDIS_Device_USBTask:0000009c .LVL86
/var/folders/bq/146k_07x5pn0twfdhlrpxh7h0000gn/T//ccjsgxbi.s:1490   .text.RNDIS_Device_USBTask:00000130 .LVL92
/var/folders/bq/146k_07x5pn0twfdhlrpxh7h0000gn/T//ccjsgxbi.s:1498   .text.RNDIS_Device_USBTask:00000134 .LVL93
/var/folders/bq/146k_07x5pn0twfdhlrpxh7h0000gn/T//ccjsgxbi.s:1258   .text.RNDIS_Device_USBTask:0000002c .LVL82
/var/folders/bq/146k_07x5pn0twfdhlrpxh7h0000gn/T//ccjsgxbi.s:1266   .text.RNDIS_Device_USBTask:00000030 .LVL83
/var/folders/bq/146k_07x5pn0twfdhlrpxh7h0000gn/T//ccjsgxbi.s:1025   .text.RNDIS_Device_ConfigureEndpoints:00000002 .LCFI4
/var/folders/bq/146k_07x5pn0twfdhlrpxh7h0000gn/T//ccjsgxbi.s:1029   .text.RNDIS_Device_ConfigureEndpoints:00000004 .LCFI5
/var/folders/bq/146k_07x5pn0twfdhlrpxh7h0000gn/T//ccjsgxbi.s:1033   .text.RNDIS_Device_ConfigureEndpoints:00000006 .LCFI6
/var/folders/bq/146k_07x5pn0twfdhlrpxh7h0000gn/T//ccjsgxbi.s:1037   .text.RNDIS_Device_ConfigureEndpoints:00000008 .LCFI7
/var/folders/bq/146k_07x5pn0twfdhlrpxh7h0000gn/T//ccjsgxbi.s:1019   .text.RNDIS_Device_ConfigureEndpoints:00000000 .LVL65
/var/folders/bq/146k_07x5pn0twfdhlrpxh7h0000gn/T//ccjsgxbi.s:1050   .text.RNDIS_Device_ConfigureEndpoints:00000012 .LVL66
/var/folders/bq/146k_07x5pn0twfdhlrpxh7h0000gn/T//ccjsgxbi.s:1138   .text.RNDIS_Device_ConfigureEndpoints:00000074 .LVL73
/var/folders/bq/146k_07x5pn0twfdhlrpxh7h0000gn/T//ccjsgxbi.s:1179   .text.RNDIS_Device_ConfigureEndpoints:00000094 .LVL78
/var/folders/bq/146k_07x5pn0twfdhlrpxh7h0000gn/T//ccjsgxbi.s:1070   .text.RNDIS_Device_ConfigureEndpoints:0000002c .LVL67
/var/folders/bq/146k_07x5pn0twfdhlrpxh7h0000gn/T//ccjsgxbi.s:1104   .text.RNDIS_Device_ConfigureEndpoints:00000050 .LVL70
/var/folders/bq/146k_07x5pn0twfdhlrpxh7h0000gn/T//ccjsgxbi.s:1162   .text.RNDIS_Device_ConfigureEndpoints:00000088 .LVL76
/var/folders/bq/146k_07x5pn0twfdhlrpxh7h0000gn/T//ccjsgxbi.s:1159   .text.RNDIS_Device_ConfigureEndpoints:00000086 .LVL75
/var/folders/bq/146k_07x5pn0twfdhlrpxh7h0000gn/T//ccjsgxbi.s:21     .text.RNDIS_Device_ProcessControlRequest:00000002 .LCFI0
/var/folders/bq/146k_07x5pn0twfdhlrpxh7h0000gn/T//ccjsgxbi.s:25     .text.RNDIS_Device_ProcessControlRequest:00000004 .LCFI1
/var/folders/bq/146k_07x5pn0twfdhlrpxh7h0000gn/T//ccjsgxbi.s:29     .text.RNDIS_Device_ProcessControlRequest:00000006 .LCFI2
/var/folders/bq/146k_07x5pn0twfdhlrpxh7h0000gn/T//ccjsgxbi.s:33     .text.RNDIS_Device_ProcessControlRequest:00000008 .LCFI3
/var/folders/bq/146k_07x5pn0twfdhlrpxh7h0000gn/T//ccjsgxbi.s:14     .text.RNDIS_Device_ProcessControlRequest:00000000 .LVL0
/var/folders/bq/146k_07x5pn0twfdhlrpxh7h0000gn/T//ccjsgxbi.s:50     .text.RNDIS_Device_ProcessControlRequest:0000000e .LVL1
/var/folders/bq/146k_07x5pn0twfdhlrpxh7h0000gn/T//ccjsgxbi.s:75     .text.RNDIS_Device_ProcessControlRequest:00000030 .LVL2
/var/folders/bq/146k_07x5pn0twfdhlrpxh7h0000gn/T//ccjsgxbi.s:84     .text.RNDIS_Device_ProcessControlRequest:0000003a .LVL3
/var/folders/bq/146k_07x5pn0twfdhlrpxh7h0000gn/T//ccjsgxbi.s:146    .text.RNDIS_Device_ProcessControlRequest:00000092 .LVL5
/var/folders/bq/146k_07x5pn0twfdhlrpxh7h0000gn/T//ccjsgxbi.s:163    .text.RNDIS_Device_ProcessControlRequest:0000009e .LVL6
/var/folders/bq/146k_07x5pn0twfdhlrpxh7h0000gn/T//ccjsgxbi.s:322    .text.RNDIS_Device_ProcessControlRequest:00000174 .LVL10
/var/folders/bq/146k_07x5pn0twfdhlrpxh7h0000gn/T//ccjsgxbi.s:327    .text.RNDIS_Device_ProcessControlRequest:00000178 .LVL11
/var/folders/bq/146k_07x5pn0twfdhlrpxh7h0000gn/T//ccjsgxbi.s:345    .text.RNDIS_Device_ProcessControlRequest:0000018c .LVL12
/var/folders/bq/146k_07x5pn0twfdhlrpxh7h0000gn/T//ccjsgxbi.s:350    .text.RNDIS_Device_ProcessControlRequest:00000190 .LVL13
/var/folders/bq/146k_07x5pn0twfdhlrpxh7h0000gn/T//ccjsgxbi.s:962    .text.RNDIS_Device_ProcessControlRequest:00000436 .LVL63
/var/folders/bq/146k_07x5pn0twfdhlrpxh7h0000gn/T//ccjsgxbi.s:933    .text.RNDIS_Device_ProcessControlRequest:0000041e .LVL62
/var/folders/bq/146k_07x5pn0twfdhlrpxh7h0000gn/T//ccjsgxbi.s:223    .text.RNDIS_Device_ProcessControlRequest:000000e8 .LVL9
/var/folders/bq/146k_07x5pn0twfdhlrpxh7h0000gn/T//ccjsgxbi.s:360    .text.RNDIS_Device_ProcessControlRequest:0000019a .LVL14
/var/folders/bq/146k_07x5pn0twfdhlrpxh7h0000gn/T//ccjsgxbi.s:748    .text.RNDIS_Device_ProcessControlRequest:0000034e .LVL49
/var/folders/bq/146k_07x5pn0twfdhlrpxh7h0000gn/T//ccjsgxbi.s:368    .text.RNDIS_Device_ProcessControlRequest:000001a2 .LVL15
/var/folders/bq/146k_07x5pn0twfdhlrpxh7h0000gn/T//ccjsgxbi.s:422    .text.RNDIS_Device_ProcessControlRequest:000001e8 .LVL18
/var/folders/bq/146k_07x5pn0twfdhlrpxh7h0000gn/T//ccjsgxbi.s:457    .text.RNDIS_Device_ProcessControlRequest:000001fc .LVL19
/var/folders/bq/146k_07x5pn0twfdhlrpxh7h0000gn/T//ccjsgxbi.s:486    .text.RNDIS_Device_ProcessControlRequest:0000022c .LVL21
/var/folders/bq/146k_07x5pn0twfdhlrpxh7h0000gn/T//ccjsgxbi.s:510    .text.RNDIS_Device_ProcessControlRequest:00000244 .LVL24
/var/folders/bq/146k_07x5pn0twfdhlrpxh7h0000gn/T//ccjsgxbi.s:524    .text.RNDIS_Device_ProcessControlRequest:0000025a .LVL25
/var/folders/bq/146k_07x5pn0twfdhlrpxh7h0000gn/T//ccjsgxbi.s:546    .text.RNDIS_Device_ProcessControlRequest:00000274 .LVL27
/var/folders/bq/146k_07x5pn0twfdhlrpxh7h0000gn/T//ccjsgxbi.s:562    .text.RNDIS_Device_ProcessControlRequest:00000286 .LVL29
/var/folders/bq/146k_07x5pn0twfdhlrpxh7h0000gn/T//ccjsgxbi.s:622    .text.RNDIS_Device_ProcessControlRequest:000002d4 .LVL32
/var/folders/bq/146k_07x5pn0twfdhlrpxh7h0000gn/T//ccjsgxbi.s:677    .text.RNDIS_Device_ProcessControlRequest:0000030a .LVL39
/var/folders/bq/146k_07x5pn0twfdhlrpxh7h0000gn/T//ccjsgxbi.s:689    .text.RNDIS_Device_ProcessControlRequest:00000314 .LVL41
/var/folders/bq/146k_07x5pn0twfdhlrpxh7h0000gn/T//ccjsgxbi.s:720    .text.RNDIS_Device_ProcessControlRequest:00000334 .LVL45
/var/folders/bq/146k_07x5pn0twfdhlrpxh7h0000gn/T//ccjsgxbi.s:559    .text.RNDIS_Device_ProcessControlRequest:00000284 .LVL28
/var/folders/bq/146k_07x5pn0twfdhlrpxh7h0000gn/T//ccjsgxbi.s:374    .text.RNDIS_Device_ProcessControlRequest:000001a6 .LVL16
/var/folders/bq/146k_07x5pn0twfdhlrpxh7h0000gn/T//ccjsgxbi.s:479    .text.RNDIS_Device_ProcessControlRequest:00000222 .LVL20
/var/folders/bq/146k_07x5pn0twfdhlrpxh7h0000gn/T//ccjsgxbi.s:531    .text.RNDIS_Device_ProcessControlRequest:00000264 .LVL26
/var/folders/bq/146k_07x5pn0twfdhlrpxh7h0000gn/T//ccjsgxbi.s:633    .text.RNDIS_Device_ProcessControlRequest:000002dc .LVL33
/var/folders/bq/146k_07x5pn0twfdhlrpxh7h0000gn/T//ccjsgxbi.s:641    .text.RNDIS_Device_ProcessControlRequest:000002e6 .LVL34
/var/folders/bq/146k_07x5pn0twfdhlrpxh7h0000gn/T//ccjsgxbi.s:650    .text.RNDIS_Device_ProcessControlRequest:000002ee .LVL35
/var/folders/bq/146k_07x5pn0twfdhlrpxh7h0000gn/T//ccjsgxbi.s:653    .text.RNDIS_Device_ProcessControlRequest:000002f0 .LVL36
/var/folders/bq/146k_07x5pn0twfdhlrpxh7h0000gn/T//ccjsgxbi.s:686    .text.RNDIS_Device_ProcessControlRequest:00000312 .LVL40
/var/folders/bq/146k_07x5pn0twfdhlrpxh7h0000gn/T//ccjsgxbi.s:717    .text.RNDIS_Device_ProcessControlRequest:00000332 .LVL44
/var/folders/bq/146k_07x5pn0twfdhlrpxh7h0000gn/T//ccjsgxbi.s:733    .text.RNDIS_Device_ProcessControlRequest:00000342 .LVL46
/var/folders/bq/146k_07x5pn0twfdhlrpxh7h0000gn/T//ccjsgxbi.s:736    .text.RNDIS_Device_ProcessControlRequest:00000344 .LVL47
/var/folders/bq/146k_07x5pn0twfdhlrpxh7h0000gn/T//ccjsgxbi.s:745    .text.RNDIS_Device_ProcessControlRequest:0000034c .LVL48
/var/folders/bq/146k_07x5pn0twfdhlrpxh7h0000gn/T//ccjsgxbi.s:495    .text.RNDIS_Device_ProcessControlRequest:00000236 .LVL22
/var/folders/bq/146k_07x5pn0twfdhlrpxh7h0000gn/T//ccjsgxbi.s:578    .text.RNDIS_Device_ProcessControlRequest:00000296 .LVL31
/var/folders/bq/146k_07x5pn0twfdhlrpxh7h0000gn/T//ccjsgxbi.s:669    .text.RNDIS_Device_ProcessControlRequest:00000302 .LVL37
/var/folders/bq/146k_07x5pn0twfdhlrpxh7h0000gn/T//ccjsgxbi.s:708    .text.RNDIS_Device_ProcessControlRequest:0000032a .LVL43
/var/folders/bq/146k_07x5pn0twfdhlrpxh7h0000gn/T//ccjsgxbi.s:761    .text.RNDIS_Device_ProcessControlRequest:00000358 .LVL50
/var/folders/bq/146k_07x5pn0twfdhlrpxh7h0000gn/T//ccjsgxbi.s:884    .text.RNDIS_Device_ProcessControlRequest:000003e2 .LVL59
/var/folders/bq/146k_07x5pn0twfdhlrpxh7h0000gn/T//ccjsgxbi.s:769    .text.RNDIS_Device_ProcessControlRequest:00000360 .LVL51
/var/folders/bq/146k_07x5pn0twfdhlrpxh7h0000gn/T//ccjsgxbi.s:811    .text.RNDIS_Device_ProcessControlRequest:00000396 .LVL53
/var/folders/bq/146k_07x5pn0twfdhlrpxh7h0000gn/T//ccjsgxbi.s:827    .text.RNDIS_Device_ProcessControlRequest:000003a4 .LVL54
/var/folders/bq/146k_07x5pn0twfdhlrpxh7h0000gn/T//ccjsgxbi.s:830    .text.RNDIS_Device_ProcessControlRequest:000003a6 .LVL55
/var/folders/bq/146k_07x5pn0twfdhlrpxh7h0000gn/T//ccjsgxbi.s:842    .text.RNDIS_Device_ProcessControlRequest:000003ae .LVL56
/var/folders/bq/146k_07x5pn0twfdhlrpxh7h0000gn/T//ccjsgxbi.s:871    .text.RNDIS_Device_ProcessControlRequest:000003d8 .LVL57
/var/folders/bq/146k_07x5pn0twfdhlrpxh7h0000gn/T//ccjsgxbi.s:881    .text.RNDIS_Device_ProcessControlRequest:000003e0 .LVL58
/var/folders/bq/146k_07x5pn0twfdhlrpxh7h0000gn/T//ccjsgxbi.s:792    .text.RNDIS_Device_ProcessControlRequest:00000380 .LVL52
/var/folders/bq/146k_07x5pn0twfdhlrpxh7h0000gn/T//ccjsgxbi.s:894    .text.RNDIS_Device_ProcessControlRequest:000003ec .LVL60
/var/folders/bq/146k_07x5pn0twfdhlrpxh7h0000gn/T//ccjsgxbi.s:922    .text.RNDIS_Device_ProcessControlRequest:00000414 .LVL61
/var/folders/bq/146k_07x5pn0twfdhlrpxh7h0000gn/T//ccjsgxbi.s:190    .text.RNDIS_Device_ProcessControlRequest:000000bc .LVL7
/var/folders/bq/146k_07x5pn0twfdhlrpxh7h0000gn/T//ccjsgxbi.s:213    .text.RNDIS_Device_ProcessControlRequest:000000de .LVL8
/var/folders/bq/146k_07x5pn0twfdhlrpxh7h0000gn/T//ccjsgxbi.s:397    .text.RNDIS_Device_ProcessControlRequest:000001c6 .LVL17
/var/folders/bq/146k_07x5pn0twfdhlrpxh7h0000gn/T//ccjsgxbi.s:503    .text.RNDIS_Device_ProcessControlRequest:0000023e .LVL23
/var/folders/bq/146k_07x5pn0twfdhlrpxh7h0000gn/T//ccjsgxbi.s:1744   .debug_info:00000000 .Ldebug_info0
/var/folders/bq/146k_07x5pn0twfdhlrpxh7h0000gn/T//ccjsgxbi.s:703    .text.RNDIS_Device_ProcessControlRequest:00000324 .LVL42
/var/folders/bq/146k_07x5pn0twfdhlrpxh7h0000gn/T//ccjsgxbi.s:111    .text.RNDIS_Device_ProcessControlRequest:0000005c .LBB59
/var/folders/bq/146k_07x5pn0twfdhlrpxh7h0000gn/T//ccjsgxbi.s:150    .text.RNDIS_Device_ProcessControlRequest:00000092 .LBE59
/var/folders/bq/146k_07x5pn0twfdhlrpxh7h0000gn/T//ccjsgxbi.s:168    .text.RNDIS_Device_ProcessControlRequest:0000009e .LBB77
/var/folders/bq/146k_07x5pn0twfdhlrpxh7h0000gn/T//ccjsgxbi.s:938    .text.RNDIS_Device_ProcessControlRequest:0000041e .LBE77
/var/folders/bq/146k_07x5pn0twfdhlrpxh7h0000gn/T//ccjsgxbi.s:398    .text.RNDIS_Device_ProcessControlRequest:000001c6 .LBB62
/var/folders/bq/146k_07x5pn0twfdhlrpxh7h0000gn/T//ccjsgxbi.s:535    .text.RNDIS_Device_ProcessControlRequest:00000264 .LBE62
/var/folders/bq/146k_07x5pn0twfdhlrpxh7h0000gn/T//ccjsgxbi.s:564    .text.RNDIS_Device_ProcessControlRequest:00000286 .LBB66
/var/folders/bq/146k_07x5pn0twfdhlrpxh7h0000gn/T//ccjsgxbi.s:582    .text.RNDIS_Device_ProcessControlRequest:00000296 .LBE66
/var/folders/bq/146k_07x5pn0twfdhlrpxh7h0000gn/T//ccjsgxbi.s:624    .text.RNDIS_Device_ProcessControlRequest:000002d4 .LBB67
/var/folders/bq/146k_07x5pn0twfdhlrpxh7h0000gn/T//ccjsgxbi.s:752    .text.RNDIS_Device_ProcessControlRequest:0000034e .LBE67
/var/folders/bq/146k_07x5pn0twfdhlrpxh7h0000gn/T//ccjsgxbi.s:794    .text.RNDIS_Device_ProcessControlRequest:00000380 .LBB68
/var/folders/bq/146k_07x5pn0twfdhlrpxh7h0000gn/T//ccjsgxbi.s:816    .text.RNDIS_Device_ProcessControlRequest:00000396 .LBE68
/var/folders/bq/146k_07x5pn0twfdhlrpxh7h0000gn/T//ccjsgxbi.s:832    .text.RNDIS_Device_ProcessControlRequest:000003a6 .LBB72
/var/folders/bq/146k_07x5pn0twfdhlrpxh7h0000gn/T//ccjsgxbi.s:836    .text.RNDIS_Device_ProcessControlRequest:000003a6 .LBE72
/var/folders/bq/146k_07x5pn0twfdhlrpxh7h0000gn/T//ccjsgxbi.s:847    .text.RNDIS_Device_ProcessControlRequest:000003b4 .LBB73
/var/folders/bq/146k_07x5pn0twfdhlrpxh7h0000gn/T//ccjsgxbi.s:875    .text.RNDIS_Device_ProcessControlRequest:000003d8 .LBE73
/var/folders/bq/146k_07x5pn0twfdhlrpxh7h0000gn/T//ccjsgxbi.s:1139   .text.RNDIS_Device_ConfigureEndpoints:00000074 .LBB105
/var/folders/bq/146k_07x5pn0twfdhlrpxh7h0000gn/T//ccjsgxbi.s:1155   .text.RNDIS_Device_ConfigureEndpoints:00000082 .LBE105
/var/folders/bq/146k_07x5pn0twfdhlrpxh7h0000gn/T//ccjsgxbi.s:1165   .text.RNDIS_Device_ConfigureEndpoints:0000008a .LBB108
/var/folders/bq/146k_07x5pn0twfdhlrpxh7h0000gn/T//ccjsgxbi.s:1173   .text.RNDIS_Device_ConfigureEndpoints:0000008e .LBE108
/var/folders/bq/146k_07x5pn0twfdhlrpxh7h0000gn/T//ccjsgxbi.s:1352   .text.RNDIS_Device_USBTask:00000096 .LBB116
/var/folders/bq/146k_07x5pn0twfdhlrpxh7h0000gn/T//ccjsgxbi.s:1431   .text.RNDIS_Device_USBTask:000000e4 .LBE116
/var/folders/bq/146k_07x5pn0twfdhlrpxh7h0000gn/T//ccjsgxbi.s:1450   .text.RNDIS_Device_USBTask:000000fe .LBB131
/var/folders/bq/146k_07x5pn0twfdhlrpxh7h0000gn/T//ccjsgxbi.s:1616   .text.RNDIS_Device_USBTask:000001d6 .LBE131

UNDEFINED SYMBOLS
USB_ControlRequest
Endpoint_Read_Control_Stream_LE
__tablejump2__
memcpy_P
memcpy
Endpoint_Write_Control_Stream_LE
Endpoint_BytesToEPSizeMaskDynamic
Endpoint_ConfigureEndpoint_Prv
Endpoint_Write_Stream_LE
Endpoint_Read_Stream_LE
__do_copy_data
