
dualMoco.elf:     file format elf32-avr

Sections:
Idx Name          Size      VMA       LMA       File off  Algn
  0 .data         00000032  00800100  00001566  000015fa  2**0
                  CONTENTS, ALLOC, LOAD, DATA
  1 .text         00001566  00000000  00000000  00000094  2**1
                  CONTENTS, ALLOC, LOAD, READONLY, CODE
  2 .bss          00000150  00800132  00800132  0000162c  2**0
                  ALLOC
  3 .comment      00000026  00000000  00000000  0000162c  2**0
                  CONTENTS, READONLY
  4 .note.gnu.avr.deviceinfo 00000040  00000000  00000000  00001654  2**2
                  CONTENTS, READONLY, OCTETS
  5 .debug_aranges 000003b8  00000000  00000000  00001698  2**3
                  CONTENTS, READONLY, DEBUGGING, OCTETS
  6 .debug_info   00007550  00000000  00000000  00001a50  2**0
                  CONTENTS, READONLY, DEBUGGING, OCTETS
  7 .debug_abbrev 00001f9f  00000000  00000000  00008fa0  2**0
                  CONTENTS, READONLY, DEBUGGING, OCTETS
  8 .debug_line   000082e3  00000000  00000000  0000af3f  2**0
                  CONTENTS, READONLY, DEBUGGING, OCTETS
  9 .debug_frame  000008e8  00000000  00000000  00013224  2**2
                  CONTENTS, READONLY, DEBUGGING, OCTETS
 10 .debug_str    000024df  00000000  00000000  00013b0c  2**0
                  CONTENTS, READONLY, DEBUGGING, OCTETS
 11 .debug_loc    000045a6  00000000  00000000  00015feb  2**0
                  CONTENTS, READONLY, DEBUGGING, OCTETS
 12 .debug_ranges 000005b0  00000000  00000000  0001a591  2**0
                  CONTENTS, READONLY, DEBUGGING, OCTETS

Disassembly of section .text:

00000000 <__vectors>:
       0:	e2 c0       	rjmp	.+452    	; 0x1c6 <__ctors_end>
       2:	00 00       	nop
       4:	fc c0       	rjmp	.+504    	; 0x1fe <__bad_interrupt>
       6:	00 00       	nop
       8:	fa c0       	rjmp	.+500    	; 0x1fe <__bad_interrupt>
       a:	00 00       	nop
       c:	f8 c0       	rjmp	.+496    	; 0x1fe <__bad_interrupt>
       e:	00 00       	nop
      10:	f6 c0       	rjmp	.+492    	; 0x1fe <__bad_interrupt>
      12:	00 00       	nop
      14:	f4 c0       	rjmp	.+488    	; 0x1fe <__bad_interrupt>
      16:	00 00       	nop
      18:	f2 c0       	rjmp	.+484    	; 0x1fe <__bad_interrupt>
      1a:	00 00       	nop
      1c:	f0 c0       	rjmp	.+480    	; 0x1fe <__bad_interrupt>
      1e:	00 00       	nop
      20:	ee c0       	rjmp	.+476    	; 0x1fe <__bad_interrupt>
      22:	00 00       	nop
      24:	ec c0       	rjmp	.+472    	; 0x1fe <__bad_interrupt>
      26:	00 00       	nop
      28:	ea c0       	rjmp	.+468    	; 0x1fe <__bad_interrupt>
      2a:	00 00       	nop
      2c:	80 c6       	rjmp	.+3328   	; 0xd2e <__vector_11>
      2e:	00 00       	nop
      30:	25 c7       	rjmp	.+3658   	; 0xe7c <__vector_12>
      32:	00 00       	nop
      34:	e4 c0       	rjmp	.+456    	; 0x1fe <__bad_interrupt>
      36:	00 00       	nop
      38:	e2 c0       	rjmp	.+452    	; 0x1fe <__bad_interrupt>
      3a:	00 00       	nop
      3c:	e0 c0       	rjmp	.+448    	; 0x1fe <__bad_interrupt>
      3e:	00 00       	nop
      40:	de c0       	rjmp	.+444    	; 0x1fe <__bad_interrupt>
      42:	00 00       	nop
      44:	dc c0       	rjmp	.+440    	; 0x1fe <__bad_interrupt>
      46:	00 00       	nop
      48:	da c0       	rjmp	.+436    	; 0x1fe <__bad_interrupt>
      4a:	00 00       	nop
      4c:	d8 c0       	rjmp	.+432    	; 0x1fe <__bad_interrupt>
      4e:	00 00       	nop
      50:	d6 c0       	rjmp	.+428    	; 0x1fe <__bad_interrupt>
      52:	00 00       	nop
      54:	d4 c0       	rjmp	.+424    	; 0x1fe <__bad_interrupt>
      56:	00 00       	nop
      58:	d2 c0       	rjmp	.+420    	; 0x1fe <__bad_interrupt>
      5a:	00 00       	nop
      5c:	97 c3       	rjmp	.+1838   	; 0x78c <__vector_23>
      5e:	00 00       	nop
      60:	ce c0       	rjmp	.+412    	; 0x1fe <__bad_interrupt>
      62:	00 00       	nop
      64:	cc c0       	rjmp	.+408    	; 0x1fe <__bad_interrupt>
      66:	00 00       	nop
      68:	ca c0       	rjmp	.+404    	; 0x1fe <__bad_interrupt>
      6a:	00 00       	nop
      6c:	c8 c0       	rjmp	.+400    	; 0x1fe <__bad_interrupt>
      6e:	00 00       	nop
      70:	c6 c0       	rjmp	.+396    	; 0x1fe <__bad_interrupt>
      72:	00 00       	nop

00000074 <ProductStringMIDI>:
      74:	18 03 6c 00 75 00 63 00 61 00 73 00 61 00 62 00     ..l.u.c.a.s.a.b.
      84:	72 00 65 00 67 00 75 00                             r.e.g.u.

0000008c <ProductStringSerial>:
      8c:	18 03 41 00 72 00 64 00 75 00 69 00 6e 00 6f 00     ..A.r.d.u.i.n.o.
      9c:	20 00 55 00 6e 00 6f 00                              .U.n.o.

000000a4 <ManufacturerStringMIDI>:
      a4:	24 03 6b 00 75 00 77 00 61 00 74 00 61 00 79 00     $.k.u.w.a.t.a.y.
      b4:	40 00 6e 00 69 00 66 00 74 00 79 00 2e 00 63 00     @.n.i.f.t.y...c.
      c4:	6f 00 6d 00                                         o.m.

000000c8 <ManufacturerStringSerial>:
      c8:	32 03 41 00 72 00 64 00 75 00 69 00 6e 00 6f 00     2.A.r.d.u.i.n.o.
      d8:	20 00 28 00 77 00 77 00 77 00 2e 00 61 00 72 00      .(.w.w.w...a.r.
      e8:	64 00 75 00 69 00 6e 00 6f 00 2e 00 63 00 63 00     d.u.i.n.o...c.c.
      f8:	29 00                                               ).

000000fa <LanguageString>:
      fa:	04 03 09 04                                         ....

000000fe <ConfigurationDescriptorMIDI>:
      fe:	09 02 65 00 02 01 00 c0 32 09 04 00 00 00 01 01     ..e.....2.......
     10e:	00 00 09 24 01 00 01 09 00 01 01 09 04 01 00 02     ...$............
     11e:	01 03 00 00 07 24 01 00 01 41 00 06 24 02 01 01     .....$...A..$...
     12e:	00 06 24 02 02 02 00 09 24 03 01 03 01 02 01 00     ..$.....$.......
     13e:	09 24 03 02 04 01 01 01 00 09 05 01 02 40 00 00     .$...........@..
     14e:	00 00 05 25 01 01 01 09 05 82 02 40 00 00 00 00     ...%.......@....
     15e:	05 25 01 01 03                                      .%...

00000163 <ConfigurationDescriptorSerial>:
     163:	09 02 3e 00 02 01 00 c0 32 09 04 00 00 01 02 02     ..>.....2.......
     173:	01 00 05 24 00 01 10 04 24 02 06 05 24 06 00 01     ...$....$...$...
     183:	07 05 82 03 08 00 ff 09 04 01 00 02 0a 00 00 00     ................
     193:	07 05 04 02 40 00 01 07 05 83 02 40 00 01           ....@......@..

000001a1 <DeviceDescriptorMIDI>:
     1a1:	12 01 10 01 00 00 00 08 41 23 db 88 00 00 01 02     ........A#......
     1b1:	00 01                                               ..

000001b3 <DeviceDescriptorSerial>:
     1b3:	12 01 10 01 02 00 00 08 41 23 01 00 01 00 01 02     ........A#......
     1c3:	dc 01 00                                            ...

000001c6 <__ctors_end>:
     1c6:	11 24       	eor	r1, r1
     1c8:	1f be       	out	0x3f, r1	; 63
     1ca:	cf ef       	ldi	r28, 0xFF	; 255
     1cc:	d2 e0       	ldi	r29, 0x02	; 2
     1ce:	de bf       	out	0x3e, r29	; 62
     1d0:	cd bf       	out	0x3d, r28	; 61

000001d2 <__do_copy_data>:
     1d2:	11 e0       	ldi	r17, 0x01	; 1

000001d4 <.Loc.1>:
     1d4:	a0 e0       	ldi	r26, 0x00	; 0

000001d6 <.Loc.2>:
     1d6:	b1 e0       	ldi	r27, 0x01	; 1

000001d8 <.Loc.3>:
     1d8:	e6 e6       	ldi	r30, 0x66	; 102

000001da <.Loc.4>:
     1da:	f5 e1       	ldi	r31, 0x15	; 21

000001dc <.Loc.5>:
     1dc:	02 c0       	rjmp	.+4      	; 0x1e2 <.L__do_copy_data_start>

000001de <.L__do_copy_data_loop>:
     1de:	05 90       	lpm	r0, Z+

000001e0 <.Loc.7>:
     1e0:	0d 92       	st	X+, r0

000001e2 <.L__do_copy_data_start>:
     1e2:	a2 33       	cpi	r26, 0x32	; 50

000001e4 <.Loc.9>:
     1e4:	b1 07       	cpc	r27, r17

000001e6 <.Loc.10>:
     1e6:	d9 f7       	brne	.-10     	; 0x1de <.L__do_copy_data_loop>

000001e8 <__do_clear_bss>:
     1e8:	22 e0       	ldi	r18, 0x02	; 2

000001ea <.Loc.1>:
     1ea:	a2 e3       	ldi	r26, 0x32	; 50

000001ec <.Loc.2>:
     1ec:	b1 e0       	ldi	r27, 0x01	; 1

000001ee <.Loc.3>:
     1ee:	01 c0       	rjmp	.+2      	; 0x1f2 <.Loc.5>

000001f0 <.Loc.4>:
     1f0:	1d 92       	st	X+, r1

000001f2 <.Loc.5>:
     1f2:	a2 38       	cpi	r26, 0x82	; 130

000001f4 <.Loc.6>:
     1f4:	b2 07       	cpc	r27, r18

000001f6 <.Loc.7>:
     1f6:	e1 f7       	brne	.-8      	; 0x1f0 <.Loc.4>

000001f8 <L0^A>:
     1f8:	28 d2       	rcall	.+1104   	; 0x64a <main>
     1fa:	0c 94 a7 0a 	jmp	0x154e	; 0x154e <_exit>

000001fe <__bad_interrupt>:
     1fe:	00 cf       	rjmp	.-512    	; 0x0 <__vectors>

00000200 <RingBuffer_Remove>:
     200:	9c 01       	movw	r18, r24

00000202 <.Loc.2>:
     202:	dc 01       	movw	r26, r24
     204:	ae 57       	subi	r26, 0x7E	; 126
     206:	bf 4f       	sbci	r27, 0xFF	; 255

00000208 <.Loc.4>:
     208:	ed 91       	ld	r30, X+
     20a:	fc 91       	ld	r31, X
     20c:	11 97       	sbiw	r26, 0x01	; 1
     20e:	81 91       	ld	r24, Z+

00000210 <.LVL1>:
     210:	a9 01       	movw	r20, r18
     212:	40 58       	subi	r20, 0x80	; 128
     214:	5f 4f       	sbci	r21, 0xFF	; 255

00000216 <.Loc.7>:
     216:	e4 17       	cp	r30, r20
     218:	f5 07       	cpc	r31, r21
     21a:	61 f0       	breq	.+24     	; 0x234 <.L2>
     21c:	ed 93       	st	X+, r30
     21e:	fc 93       	st	X, r31

00000220 <.L3>:
     220:	4f b7       	in	r20, 0x3f	; 63

00000222 <.LBB42>:
    return 1;
}

static __inline__ uint8_t __iCliRetVal(void)
{
    cli();
     222:	f8 94       	cli

00000224 <.LBE42>:
     224:	f9 01       	movw	r30, r18
     226:	ec 57       	subi	r30, 0x7C	; 124
     228:	ff 4f       	sbci	r31, 0xFF	; 255
     22a:	90 81       	ld	r25, Z
     22c:	91 50       	subi	r25, 0x01	; 1
     22e:	90 83       	st	Z, r25

00000230 <.LBB44>:
    (void)__s;
}

static __inline__ void __iRestore(const  uint8_t *__s)
{
    SREG = *__s;
     230:	4f bf       	out	0x3f, r20	; 63

00000232 <.LBE41>:
     232:	08 95       	ret

00000234 <.L2>:
     234:	2d 93       	st	X+, r18
     236:	3c 93       	st	X, r19
     238:	f3 cf       	rjmp	.-26     	; 0x220 <.L3>

0000023a <parseUSBMidiMessage>:
     23a:	cf 93       	push	r28

0000023c <.LCFI0>:
     23c:	df 93       	push	r29

0000023e <.LCFI1>:
     23e:	20 91 57 01 	lds	r18, 0x0157	; 0x800157 <uwptr>

00000242 <.Loc.30>:
     242:	fc 01       	movw	r30, r24
     244:	86 0f       	add	r24, r22

00000246 <.L10>:
     246:	30 81       	ld	r19, Z

00000248 <.LVL9>:
     248:	93 2f       	mov	r25, r19
     24a:	9e 70       	andi	r25, 0x0E	; 14
     24c:	b1 f0       	breq	.+44     	; 0x27a <.L5>

0000024e <.Loc.36>:
     24e:	43 2f       	mov	r20, r19
     250:	4f 70       	andi	r20, 0x0F	; 15

00000252 <.LVL10>:
     252:	ef 01       	movw	r28, r30
     254:	21 96       	adiw	r28, 0x01	; 1

00000256 <.Loc.38>:
     256:	91 e0       	ldi	r25, 0x01	; 1

00000258 <.Loc.39>:
     258:	3b 70       	andi	r19, 0x0B	; 11

0000025a <.Loc.40>:
     25a:	54 ef       	ldi	r21, 0xF4	; 244
     25c:	54 0f       	add	r21, r20

0000025e <.L8>:
     25e:	69 91       	ld	r22, Y+

00000260 <.Loc.43>:
     260:	a2 2f       	mov	r26, r18
     262:	b0 e0       	ldi	r27, 0x00	; 0

00000264 <.Loc.44>:
     264:	aa 5c       	subi	r26, 0xCA	; 202
     266:	be 4f       	sbci	r27, 0xFE	; 254
     268:	6c 93       	st	X, r22

0000026a <.Loc.45>:
     26a:	2f 5f       	subi	r18, 0xFF	; 255

0000026c <.Loc.47>:
     26c:	2f 71       	andi	r18, 0x1F	; 31

0000026e <.Loc.48>:
     26e:	91 30       	cpi	r25, 0x01	; 1
     270:	51 f4       	brne	.+20     	; 0x286 <.L6>

00000272 <.LVL12>:
     272:	45 30       	cpi	r20, 0x05	; 5
     274:	11 f0       	breq	.+4      	; 0x27a <.L5>

00000276 <.Loc.52>:
     276:	4f 30       	cpi	r20, 0x0F	; 15
     278:	61 f4       	brne	.+24     	; 0x292 <.L7>

0000027a <.L5>:
     27a:	98 2f       	mov	r25, r24
     27c:	9e 1b       	sub	r25, r30
     27e:	95 30       	cpi	r25, 0x05	; 5
     280:	60 f0       	brcs	.+24     	; 0x29a <.L9>

00000282 <.Loc.55>:
     282:	34 96       	adiw	r30, 0x04	; 4

00000284 <.LVL14>:
     284:	e0 cf       	rjmp	.-64     	; 0x246 <.L10>

00000286 <.L6>:
     286:	92 30       	cpi	r25, 0x02	; 2
     288:	21 f4       	brne	.+8      	; 0x292 <.L7>

0000028a <.Loc.59>:
     28a:	32 30       	cpi	r19, 0x02	; 2
     28c:	b1 f3       	breq	.-20     	; 0x27a <.L5>

0000028e <.Loc.61>:
     28e:	52 30       	cpi	r21, 0x02	; 2
     290:	a0 f3       	brcs	.-24     	; 0x27a <.L5>

00000292 <.L7>:
     292:	9f 5f       	subi	r25, 0xFF	; 255

00000294 <.LVL17>:
     294:	94 30       	cpi	r25, 0x04	; 4
     296:	19 f7       	brne	.-58     	; 0x25e <.L8>
     298:	f0 cf       	rjmp	.-32     	; 0x27a <.L5>

0000029a <.L9>:
     29a:	20 93 57 01 	sts	0x0157, r18	; 0x800157 <uwptr>

0000029e <.Loc.67>:
     29e:	df 91       	pop	r29
     2a0:	cf 91       	pop	r28
     2a2:	08 95       	ret

000002a4 <parseSerialMidiMessage>:
     2a4:	98 2f       	mov	r25, r24

000002a6 <.Loc.70>:
     2a6:	80 91 35 01 	lds	r24, 0x0135	; 0x800135 <SysEx.3233>

000002aa <.LVL20>:
     2aa:	88 23       	and	r24, r24
     2ac:	01 f1       	breq	.+64     	; 0x2ee <.L25>

000002ae <.Loc.77>:
     2ae:	80 91 34 01 	lds	r24, 0x0134	; 0x800134 <sysExCnt.3234>
     2b2:	21 e0       	ldi	r18, 0x01	; 1
     2b4:	28 0f       	add	r18, r24
     2b6:	e8 2f       	mov	r30, r24
     2b8:	f0 e0       	ldi	r31, 0x00	; 0
     2ba:	e8 5a       	subi	r30, 0xA8	; 168
     2bc:	fe 4f       	sbci	r31, 0xFE	; 254

000002be <.Loc.78>:
     2be:	20 93 34 01 	sts	0x0134, r18	; 0x800134 <sysExCnt.3234>

000002c2 <.Loc.79>:
     2c2:	90 83       	st	Z, r25

000002c4 <.Loc.80>:
     2c4:	97 3f       	cpi	r25, 0xF7	; 247
     2c6:	49 f4       	brne	.+18     	; 0x2da <.L26>

000002c8 <.Loc.81>:
     2c8:	8c 5f       	subi	r24, 0xFC	; 252

000002ca <.Loc.84>:
     2ca:	80 93 58 01 	sts	0x0158, r24	; 0x800158 <utx_buf>

000002ce <.Loc.85>:
     2ce:	10 92 35 01 	sts	0x0135, r1	; 0x800135 <SysEx.3233>

000002d2 <.Loc.87>:
     2d2:	10 92 33 01 	sts	0x0133, r1	; 0x800133 <PC.3232>

000002d6 <.L34>:
     2d6:	81 e0       	ldi	r24, 0x01	; 1

000002d8 <.LBE46>:
     2d8:	08 95       	ret

000002da <.L26>:
     2da:	24 30       	cpi	r18, 0x04	; 4
     2dc:	11 f0       	breq	.+4      	; 0x2e2 <.L28>

000002de <.L33>:
     2de:	80 e0       	ldi	r24, 0x00	; 0
     2e0:	08 95       	ret

000002e2 <.L28>:
     2e2:	20 93 58 01 	sts	0x0158, r18	; 0x800158 <utx_buf>

000002e6 <.Loc.100>:
     2e6:	81 e0       	ldi	r24, 0x01	; 1
     2e8:	80 93 34 01 	sts	0x0134, r24	; 0x800134 <sysExCnt.3234>

000002ec <.Loc.101>:
     2ec:	08 95       	ret

000002ee <.L25>:
     2ee:	98 3f       	cpi	r25, 0xF8	; 248
     2f0:	50 f0       	brcs	.+20     	; 0x306 <.L29>

000002f2 <.Loc.105>:
     2f2:	8f e0       	ldi	r24, 0x0F	; 15
     2f4:	80 93 58 01 	sts	0x0158, r24	; 0x800158 <utx_buf>

000002f8 <.Loc.107>:
     2f8:	90 93 59 01 	sts	0x0159, r25	; 0x800159 <utx_buf+0x1>

000002fc <.Loc.109>:
     2fc:	10 92 5a 01 	sts	0x015A, r1	; 0x80015a <utx_buf+0x2>

00000300 <.Loc.111>:
     300:	10 92 5b 01 	sts	0x015B, r1	; 0x80015b <utx_buf+0x3>

00000304 <.Loc.113>:
     304:	e8 cf       	rjmp	.-48     	; 0x2d6 <.L34>

00000306 <.L29>:
     306:	97 ff       	sbrs	r25, 7
     308:	0d c0       	rjmp	.+26     	; 0x324 <.L30>

0000030a <.Loc.116>:
     30a:	90 3f       	cpi	r25, 0xF0	; 240
     30c:	49 f4       	brne	.+18     	; 0x320 <.L31>

0000030e <.Loc.118>:
     30e:	21 e0       	ldi	r18, 0x01	; 1
     310:	20 93 35 01 	sts	0x0135, r18	; 0x800135 <SysEx.3233>

00000314 <.Loc.120>:
     314:	90 93 59 01 	sts	0x0159, r25	; 0x800159 <utx_buf+0x1>

00000318 <.Loc.122>:
     318:	92 e0       	ldi	r25, 0x02	; 2

0000031a <.LVL21>:
     31a:	90 93 34 01 	sts	0x0134, r25	; 0x800134 <sysExCnt.3234>

0000031e <.Loc.125>:
     31e:	08 95       	ret

00000320 <.L31>:
     320:	10 92 33 01 	sts	0x0133, r1	; 0x800133 <PC.3232>

00000324 <.L30>:
     324:	80 91 33 01 	lds	r24, 0x0133	; 0x800133 <PC.3232>

00000328 <.Loc.131>:
     328:	81 11       	cpse	r24, r1
     32a:	10 c0       	rjmp	.+32     	; 0x34c <.L32>

0000032c <.Loc.132>:
     32c:	39 2f       	mov	r19, r25
     32e:	32 95       	swap	r19
     330:	3f 70       	andi	r19, 0x0F	; 15

00000332 <.Loc.134>:
     332:	23 2f       	mov	r18, r19
     334:	27 70       	andi	r18, 0x07	; 7
     336:	2f 5f       	subi	r18, 0xFF	; 255
     338:	22 0f       	add	r18, r18
     33a:	20 93 33 01 	sts	0x0133, r18	; 0x800133 <PC.3232>

0000033e <.Loc.135>:
     33e:	30 93 60 01 	sts	0x0160, r19	; 0x800160 <rx_buf>

00000342 <.Loc.137>:
     342:	90 93 61 01 	sts	0x0161, r25	; 0x800161 <rx_buf+0x1>

00000346 <.Loc.139>:
     346:	10 92 63 01 	sts	0x0163, r1	; 0x800163 <rx_buf+0x3>
     34a:	08 95       	ret

0000034c <.L32>:
     34c:	e8 2f       	mov	r30, r24
     34e:	f0 e0       	ldi	r31, 0x00	; 0

00000350 <.Loc.143>:
     350:	ef 5d       	subi	r30, 0xDF	; 223
     352:	fe 4f       	sbci	r31, 0xFE	; 254
     354:	40 81       	ld	r20, Z

00000356 <.LVL23>:
     356:	28 2f       	mov	r18, r24
     358:	21 70       	andi	r18, 0x01	; 1
     35a:	30 e0       	ldi	r19, 0x00	; 0

0000035c <.Loc.146>:
     35c:	20 5a       	subi	r18, 0xA0	; 160
     35e:	3e 4f       	sbci	r19, 0xFE	; 254
     360:	f9 01       	movw	r30, r18
     362:	92 83       	std	Z+2, r25	; 0x02

00000364 <.Loc.147>:
     364:	84 2f       	mov	r24, r20
     366:	8f 70       	andi	r24, 0x0F	; 15

00000368 <.Loc.149>:
     368:	80 93 33 01 	sts	0x0133, r24	; 0x800133 <PC.3232>

0000036c <.Loc.150>:
     36c:	47 ff       	sbrs	r20, 7
     36e:	b7 cf       	rjmp	.-146    	; 0x2de <.L33>

00000370 <.Loc.152>:
     370:	84 e0       	ldi	r24, 0x04	; 4
     372:	e0 e6       	ldi	r30, 0x60	; 96
     374:	f1 e0       	ldi	r31, 0x01	; 1
     376:	a8 e5       	ldi	r26, 0x58	; 88
     378:	b1 e0       	ldi	r27, 0x01	; 1

0000037a <.L0^B1>:
     37a:	01 90       	ld	r0, Z+
     37c:	0d 92       	st	X+, r0
     37e:	8a 95       	dec	r24
     380:	e1 f7       	brne	.-8      	; 0x37a <.L0^B1>
     382:	a9 cf       	rjmp	.-174    	; 0x2d6 <.L34>

00000384 <processMIDI>:
     384:	cf 93       	push	r28

00000386 <.LCFI2>:
     386:	df 93       	push	r29

00000388 <.LCFI3>:
     388:	00 d0       	rcall	.+0      	; 0x38a <L0^A>

0000038a <L0^A>:
     38a:	00 d0       	rcall	.+0      	; 0x38c <L0^A>

0000038c <L0^A>:
     38c:	cd b7       	in	r28, 0x3d	; 61
     38e:	de b7       	in	r29, 0x3e	; 62

00000390 <.LCFI5>:
     390:	78 94       	sei

00000392 <.LBB57>:
     392:	13 e0       	ldi	r17, 0x03	; 3

00000394 <.Loc.157>:
     394:	88 e2       	ldi	r24, 0x28	; 40
     396:	f8 2e       	mov	r15, r24

00000398 <.Loc.158>:
     398:	02 e0       	ldi	r16, 0x02	; 2

0000039a <.L51>:
     39a:	80 91 c8 00 	lds	r24, 0x00C8	; 0x8000c8 <__DATA_REGION_ORIGIN__+0x68>

0000039e <.Loc.162>:
     39e:	87 ff       	sbrs	r24, 7
     3a0:	0b c0       	rjmp	.+22     	; 0x3b8 <.L36>
     3a2:	e0 90 68 01 	lds	r14, 0x0168	; 0x800168 <utxrdy>

000003a6 <.Loc.163>:
     3a6:	80 91 ce 00 	lds	r24, 0x00CE	; 0x8000ce <__DATA_REGION_ORIGIN__+0x6e>
     3aa:	7c df       	rcall	.-264    	; 0x2a4 <parseSerialMidiMessage>

000003ac <.LVL24>:
     3ac:	8e 29       	or	r24, r14
     3ae:	80 93 68 01 	sts	0x0168, r24	; 0x800168 <utxrdy>

000003b2 <.LBB58>:
     3b2:	5d 98       	cbi	0x0b, 5	; 11

000003b4 <.LBE58>:
     3b4:	10 93 69 01 	sts	0x0169, r17	; 0x800169 <PulseMSRemaining>

000003b8 <.L36>:
     3b8:	80 91 68 01 	lds	r24, 0x0168	; 0x800168 <utxrdy>
     3bc:	88 23       	and	r24, r24
     3be:	61 f0       	breq	.+24     	; 0x3d8 <.L38>

000003c0 <.Loc.175>:
     3c0:	68 e5       	ldi	r22, 0x58	; 88
     3c2:	71 e0       	ldi	r23, 0x01	; 1
     3c4:	81 e0       	ldi	r24, 0x01	; 1
     3c6:	91 e0       	ldi	r25, 0x01	; 1
     3c8:	0e 94 2b 0a 	call	0x1456	; 0x1456 <MIDI_Device_SendEventPacket>

000003cc <.LVL27>:
     3cc:	81 e0       	ldi	r24, 0x01	; 1
     3ce:	91 e0       	ldi	r25, 0x01	; 1
     3d0:	0e 94 4e 0a 	call	0x149c	; 0x149c <MIDI_Device_Flush>

000003d4 <.LVL28>:
     3d4:	10 92 68 01 	sts	0x0168, r1	; 0x800168 <utxrdy>

000003d8 <.L38>:
     3d8:	be 01       	movw	r22, r28
     3da:	6f 5f       	subi	r22, 0xFF	; 255
     3dc:	7f 4f       	sbci	r23, 0xFF	; 255
     3de:	81 e0       	ldi	r24, 0x01	; 1
     3e0:	91 e0       	ldi	r25, 0x01	; 1
     3e2:	0e 94 61 0a 	call	0x14c2	; 0x14c2 <MIDI_Device_ReceiveEventPacket>

000003e6 <.LVL29>:
     3e6:	81 11       	cpse	r24, r1
     3e8:	43 c0       	rjmp	.+134    	; 0x470 <.L39>

000003ea <.Loc.182>:
     3ea:	80 91 c8 00 	lds	r24, 0x00C8	; 0x8000c8 <__DATA_REGION_ORIGIN__+0x68>

000003ee <.Loc.184>:
     3ee:	85 ff       	sbrs	r24, 5
     3f0:	15 c0       	rjmp	.+42     	; 0x41c <.L40>

000003f2 <.Loc.185>:
     3f2:	e0 91 56 01 	lds	r30, 0x0156	; 0x800156 <irptr>

000003f6 <.Loc.186>:
     3f6:	80 91 57 01 	lds	r24, 0x0157	; 0x800157 <uwptr>
     3fa:	8e 17       	cp	r24, r30
     3fc:	79 f0       	breq	.+30     	; 0x41c <.L40>

000003fe <.Loc.187>:
     3fe:	81 e0       	ldi	r24, 0x01	; 1
     400:	8e 0f       	add	r24, r30
     402:	80 93 56 01 	sts	0x0156, r24	; 0x800156 <irptr>
     406:	f0 e0       	ldi	r31, 0x00	; 0

00000408 <.Loc.189>:
     408:	ea 5c       	subi	r30, 0xCA	; 202
     40a:	fe 4f       	sbci	r31, 0xFE	; 254
     40c:	80 81       	ld	r24, Z

0000040e <.Loc.190>:
     40e:	80 93 ce 00 	sts	0x00CE, r24	; 0x8000ce <__DATA_REGION_ORIGIN__+0x6e>

00000412 <.Loc.191>:
     412:	80 91 56 01 	lds	r24, 0x0156	; 0x800156 <irptr>
     416:	8f 71       	andi	r24, 0x1F	; 31
     418:	80 93 56 01 	sts	0x0156, r24	; 0x800156 <irptr>

0000041c <.L40>:
     41c:	a8 9b       	sbis	0x15, 0	; 21
     41e:	19 c0       	rjmp	.+50     	; 0x452 <.L42>

00000420 <.Loc.195>:
     420:	a8 9a       	sbi	0x15, 0	; 21

00000422 <.Loc.197>:
     422:	80 91 69 01 	lds	r24, 0x0169	; 0x800169 <PulseMSRemaining>

00000426 <.Loc.199>:
     426:	88 23       	and	r24, r24
     428:	41 f0       	breq	.+16     	; 0x43a <.L44>

0000042a <.Loc.200>:
     42a:	80 91 69 01 	lds	r24, 0x0169	; 0x800169 <PulseMSRemaining>

0000042e <.Loc.201>:
     42e:	81 50       	subi	r24, 0x01	; 1

00000430 <.Loc.202>:
     430:	80 93 69 01 	sts	0x0169, r24	; 0x800169 <PulseMSRemaining>
     434:	81 11       	cpse	r24, r1
     436:	01 c0       	rjmp	.+2      	; 0x43a <.L44>

00000438 <.LBB60>:
     438:	5d 9a       	sbi	0x0b, 5	; 11

0000043a <.L44>:
     43a:	80 91 6a 01 	lds	r24, 0x016A	; 0x80016a <PulseMSRemaining+0x1>

0000043e <.Loc.210>:
     43e:	88 23       	and	r24, r24
     440:	41 f0       	breq	.+16     	; 0x452 <.L42>

00000442 <.Loc.211>:
     442:	80 91 6a 01 	lds	r24, 0x016A	; 0x80016a <PulseMSRemaining+0x1>

00000446 <.Loc.212>:
     446:	81 50       	subi	r24, 0x01	; 1

00000448 <.Loc.213>:
     448:	80 93 6a 01 	sts	0x016A, r24	; 0x80016a <PulseMSRemaining+0x1>
     44c:	81 11       	cpse	r24, r1
     44e:	01 c0       	rjmp	.+2      	; 0x452 <.L42>

00000450 <.LBB62>:
     450:	5c 9a       	sbi	0x0b, 4	; 11

00000452 <.L42>:
     452:	8d d6       	rcall	.+3354   	; 0x116e <USB_USBTask>

00000454 <.LVL34>:
     454:	80 91 32 01 	lds	r24, 0x0132	; 0x800132 <highSpeed>
     458:	81 30       	cpi	r24, 0x01	; 1
     45a:	09 f0       	breq	.+2      	; 0x45e <.Loc.225>

0000045c <L0^A>:
     45c:	9e cf       	rjmp	.-196    	; 0x39a <.L51>

0000045e <.Loc.225>:
     45e:	80 91 00 01 	lds	r24, 0x0100	; 0x800100 <cnt.3242>
     462:	9f ef       	ldi	r25, 0xFF	; 255
     464:	98 0f       	add	r25, r24

00000466 <.Loc.227>:
     466:	81 30       	cpi	r24, 0x01	; 1
     468:	59 f0       	breq	.+22     	; 0x480 <.L49>

0000046a <.Loc.229>:
     46a:	90 93 00 01 	sts	0x0100, r25	; 0x800100 <cnt.3242>
     46e:	95 cf       	rjmp	.-214    	; 0x39a <.L51>

00000470 <.L39>:
     470:	64 e0       	ldi	r22, 0x04	; 4
     472:	ce 01       	movw	r24, r28
     474:	01 96       	adiw	r24, 0x01	; 1
     476:	e1 de       	rcall	.-574    	; 0x23a <parseUSBMidiMessage>

00000478 <.LBB64>:
     478:	5c 98       	cbi	0x0b, 4	; 11

0000047a <.LBE64>:
     47a:	10 93 6a 01 	sts	0x016A, r17	; 0x80016a <PulseMSRemaining+0x1>
     47e:	ac cf       	rjmp	.-168    	; 0x3d8 <.L38>

00000480 <.L49>:
     480:	f0 92 00 01 	sts	0x0100, r15	; 0x800100 <cnt.3242>

00000484 <.Loc.240>:
     484:	85 b1       	in	r24, 0x05	; 5
     486:	80 27       	eor	r24, r16
     488:	85 b9       	out	0x05, r24	; 5

0000048a <.LBE67>:
     48a:	87 cf       	rjmp	.-242    	; 0x39a <.L51>

0000048c <processSerial>:
     48c:	2f b7       	in	r18, 0x3f	; 63

0000048e <.LBB128>:
    cli();
     48e:	f8 94       	cli

00000490 <.LBE128>:
     490:	81 ef       	ldi	r24, 0xF1	; 241
     492:	91 e0       	ldi	r25, 0x01	; 1
     494:	90 93 72 02 	sts	0x0272, r25	; 0x800272 <USBtoUSART_Buffer+0x81>
     498:	80 93 71 02 	sts	0x0271, r24	; 0x800271 <USBtoUSART_Buffer+0x80>

0000049c <.Loc.256>:
     49c:	90 93 74 02 	sts	0x0274, r25	; 0x800274 <USBtoUSART_Buffer+0x83>
     4a0:	80 93 73 02 	sts	0x0273, r24	; 0x800273 <USBtoUSART_Buffer+0x82>

000004a4 <.LBB130>:
    SREG = *__s;
     4a4:	2f bf       	out	0x3f, r18	; 63

000004a6 <.LBB133>:
     4a6:	2f b7       	in	r18, 0x3f	; 63

000004a8 <.LBB135>:
    cli();
     4a8:	f8 94       	cli

000004aa <.LBE135>:
     4aa:	8c e6       	ldi	r24, 0x6C	; 108
     4ac:	91 e0       	ldi	r25, 0x01	; 1
     4ae:	90 93 ed 01 	sts	0x01ED, r25	; 0x8001ed <USARTtoUSB_Buffer+0x81>
     4b2:	80 93 ec 01 	sts	0x01EC, r24	; 0x8001ec <USARTtoUSB_Buffer+0x80>

000004b6 <.Loc.276>:
     4b6:	90 93 ef 01 	sts	0x01EF, r25	; 0x8001ef <USARTtoUSB_Buffer+0x83>
     4ba:	80 93 ee 01 	sts	0x01EE, r24	; 0x8001ee <USARTtoUSB_Buffer+0x82>

000004be <.LBB137>:
    SREG = *__s;
     4be:	2f bf       	out	0x3f, r18	; 63

000004c0 <.LBE134>:
     4c0:	78 94       	sei

000004c2 <.LBB140>:
     4c2:	01 ef       	ldi	r16, 0xF1	; 241
     4c4:	11 e0       	ldi	r17, 0x01	; 1

000004c6 <.LBE141>:
     4c6:	d3 e0       	ldi	r29, 0x03	; 3

000004c8 <.L78>:
     4c8:	9f b7       	in	r25, 0x3f	; 63

000004ca <.LBB145>:
    cli();
     4ca:	f8 94       	cli

000004cc <.LBE145>:
     4cc:	80 91 75 02 	lds	r24, 0x0275	; 0x800275 <USBtoUSART_Buffer+0x84>

000004d0 <.LBB147>:
    SREG = *__s;
     4d0:	9f bf       	out	0x3f, r25	; 63

000004d2 <.LBE147>:
     4d2:	80 38       	cpi	r24, 0x80	; 128
     4d4:	09 f1       	breq	.+66     	; 0x518 <.L63>

000004d6 <.LBB154>:
     4d6:	8a e0       	ldi	r24, 0x0A	; 10
     4d8:	91 e0       	ldi	r25, 0x01	; 1
     4da:	62 d7       	rcall	.+3780   	; 0x13a0 <CDC_Device_ReceiveByte>

000004dc <.LVL53>:
     4dc:	97 fd       	sbrc	r25, 7
     4de:	1c c0       	rjmp	.+56     	; 0x518 <.L63>

000004e0 <.LBB155>:
     4e0:	e0 91 71 02 	lds	r30, 0x0271	; 0x800271 <USBtoUSART_Buffer+0x80>
     4e4:	f0 91 72 02 	lds	r31, 0x0272	; 0x800272 <USBtoUSART_Buffer+0x81>

000004e8 <.LBE155>:
     4e8:	80 83       	st	Z, r24

000004ea <.LBB164>:
     4ea:	80 91 71 02 	lds	r24, 0x0271	; 0x800271 <USBtoUSART_Buffer+0x80>
     4ee:	90 91 72 02 	lds	r25, 0x0272	; 0x800272 <USBtoUSART_Buffer+0x81>

000004f2 <.LVL55>:
     4f2:	9c 01       	movw	r18, r24
     4f4:	2f 5f       	subi	r18, 0xFF	; 255
     4f6:	3f 4f       	sbci	r19, 0xFF	; 255

000004f8 <.Loc.327>:
     4f8:	80 57       	subi	r24, 0x70	; 112
     4fa:	92 40       	sbci	r25, 0x02	; 2
     4fc:	09 f4       	brne	.+2      	; 0x500 <L0^A+0x2>

000004fe <L0^A>:
     4fe:	4f c0       	rjmp	.+158    	; 0x59e <.L65>
     500:	30 93 72 02 	sts	0x0272, r19	; 0x800272 <USBtoUSART_Buffer+0x81>
     504:	20 93 71 02 	sts	0x0271, r18	; 0x800271 <USBtoUSART_Buffer+0x80>

00000508 <.L66>:
     508:	9f b7       	in	r25, 0x3f	; 63

0000050a <.LBB158>:
    cli();
     50a:	f8 94       	cli

0000050c <.LBE158>:
     50c:	80 91 75 02 	lds	r24, 0x0275	; 0x800275 <USBtoUSART_Buffer+0x84>
     510:	8f 5f       	subi	r24, 0xFF	; 255
     512:	80 93 75 02 	sts	0x0275, r24	; 0x800275 <USBtoUSART_Buffer+0x84>

00000516 <.LBB160>:
    SREG = *__s;
     516:	9f bf       	out	0x3f, r25	; 63

00000518 <.L63>:
     518:	8f b7       	in	r24, 0x3f	; 63

0000051a <.LBB169>:
    cli();
     51a:	f8 94       	cli

0000051c <.LBE169>:
     51c:	c0 91 f0 01 	lds	r28, 0x01F0	; 0x8001f0 <USARTtoUSB_Buffer+0x84>

00000520 <.LBB171>:
    SREG = *__s;
     520:	8f bf       	out	0x3f, r24	; 63

00000522 <.LBE166>:
     522:	a8 99       	sbic	0x15, 0	; 21
     524:	02 c0       	rjmp	.+4      	; 0x52a <.L67>

00000526 <.Loc.367>:
     526:	c1 36       	cpi	r28, 0x61	; 97
     528:	10 f1       	brcs	.+68     	; 0x56e <.L68>

0000052a <.L67>:
     52a:	a8 9a       	sbi	0x15, 0	; 21

0000052c <.Loc.370>:
     52c:	80 91 f0 01 	lds	r24, 0x01F0	; 0x8001f0 <USARTtoUSB_Buffer+0x84>
     530:	88 23       	and	r24, r24
     532:	19 f0       	breq	.+6      	; 0x53a <.L70>

00000534 <.LBB173>:
     534:	5d 98       	cbi	0x0b, 5	; 11

00000536 <.LBE173>:
     536:	d0 93 69 01 	sts	0x0169, r29	; 0x800169 <PulseMSRemaining>

0000053a <.L70>:
     53a:	c1 50       	subi	r28, 0x01	; 1
     53c:	a8 f5       	brcc	.+106    	; 0x5a8 <.L71>

0000053e <.Loc.381>:
     53e:	80 91 69 01 	lds	r24, 0x0169	; 0x800169 <PulseMSRemaining>

00000542 <.Loc.383>:
     542:	88 23       	and	r24, r24
     544:	41 f0       	breq	.+16     	; 0x556 <.L73>

00000546 <.Loc.384>:
     546:	80 91 69 01 	lds	r24, 0x0169	; 0x800169 <PulseMSRemaining>

0000054a <.Loc.385>:
     54a:	81 50       	subi	r24, 0x01	; 1

0000054c <.Loc.386>:
     54c:	80 93 69 01 	sts	0x0169, r24	; 0x800169 <PulseMSRemaining>
     550:	81 11       	cpse	r24, r1
     552:	01 c0       	rjmp	.+2      	; 0x556 <.L73>

00000554 <.LBB175>:
     554:	5d 9a       	sbi	0x0b, 5	; 11

00000556 <.L73>:
     556:	80 91 6a 01 	lds	r24, 0x016A	; 0x80016a <PulseMSRemaining+0x1>

0000055a <.Loc.394>:
     55a:	88 23       	and	r24, r24
     55c:	41 f0       	breq	.+16     	; 0x56e <.L68>

0000055e <.Loc.395>:
     55e:	80 91 6a 01 	lds	r24, 0x016A	; 0x80016a <PulseMSRemaining+0x1>

00000562 <.Loc.396>:
     562:	81 50       	subi	r24, 0x01	; 1

00000564 <.Loc.397>:
     564:	80 93 6a 01 	sts	0x016A, r24	; 0x80016a <PulseMSRemaining+0x1>
     568:	81 11       	cpse	r24, r1
     56a:	01 c0       	rjmp	.+2      	; 0x56e <.L68>

0000056c <.LBB177>:
     56c:	5c 9a       	sbi	0x0b, 4	; 11

0000056e <.L68>:
     56e:	9f b7       	in	r25, 0x3f	; 63

00000570 <.LBB183>:
    cli();
     570:	f8 94       	cli

00000572 <.LBE183>:
     572:	80 91 75 02 	lds	r24, 0x0275	; 0x800275 <USBtoUSART_Buffer+0x84>

00000576 <.LBB185>:
    SREG = *__s;
     576:	9f bf       	out	0x3f, r25	; 63

00000578 <.LBE180>:
     578:	88 23       	and	r24, r24
     57a:	61 f0       	breq	.+24     	; 0x594 <.L76>

0000057c <.Loc.428>:
     57c:	81 ef       	ldi	r24, 0xF1	; 241
     57e:	91 e0       	ldi	r25, 0x01	; 1
     580:	3f de       	rcall	.-898    	; 0x200 <RingBuffer_Remove>

00000582 <.L77>:
     582:	90 91 c8 00 	lds	r25, 0x00C8	; 0x8000c8 <__DATA_REGION_ORIGIN__+0x68>

00000586 <.Loc.435>:
     586:	95 ff       	sbrs	r25, 5
     588:	fc cf       	rjmp	.-8      	; 0x582 <.L77>

0000058a <.Loc.436>:
     58a:	80 93 ce 00 	sts	0x00CE, r24	; 0x8000ce <__DATA_REGION_ORIGIN__+0x6e>

0000058e <.LBB190>:
     58e:	5c 98       	cbi	0x0b, 4	; 11

00000590 <.LBE190>:
     590:	d0 93 6a 01 	sts	0x016A, r29	; 0x80016a <PulseMSRemaining+0x1>

00000594 <.L76>:
     594:	8a e0       	ldi	r24, 0x0A	; 10
     596:	91 e0       	ldi	r25, 0x01	; 1
     598:	f4 d6       	rcall	.+3560   	; 0x1382 <CDC_Device_USBTask>

0000059a <.LVL78>:
     59a:	e9 d5       	rcall	.+3026   	; 0x116e <USB_USBTask>

0000059c <.LBE195>:
     59c:	95 cf       	rjmp	.-214    	; 0x4c8 <.L78>

0000059e <.L65>:
     59e:	10 93 72 02 	sts	0x0272, r17	; 0x800272 <USBtoUSART_Buffer+0x81>
     5a2:	00 93 71 02 	sts	0x0271, r16	; 0x800271 <USBtoUSART_Buffer+0x80>
     5a6:	b0 cf       	rjmp	.-160    	; 0x508 <.L66>

000005a8 <.L71>:
     5a8:	8c e6       	ldi	r24, 0x6C	; 108
     5aa:	91 e0       	ldi	r25, 0x01	; 1
     5ac:	29 de       	rcall	.-942    	; 0x200 <RingBuffer_Remove>

000005ae <.LVL82>:
     5ae:	68 2f       	mov	r22, r24
     5b0:	8a e0       	ldi	r24, 0x0A	; 10
     5b2:	91 e0       	ldi	r25, 0x01	; 1
     5b4:	98 d6       	rcall	.+3376   	; 0x12e6 <CDC_Device_SendByte>

000005b6 <.LVL83>:
     5b6:	c1 cf       	rjmp	.-126    	; 0x53a <.L70>

000005b8 <SetupHardware>:
     5b8:	84 b7       	in	r24, 0x34	; 52
     5ba:	87 7f       	andi	r24, 0xF7	; 247
     5bc:	84 bf       	out	0x34, r24	; 52

000005be <.LBB203>:
		);
	}
	else
	{
        uint8_t register temp_reg;
		__asm__ __volatile__ (
     5be:	0f b6       	in	r0, 0x3f	; 63
     5c0:	f8 94       	cli
     5c2:	a8 95       	wdr
     5c4:	80 91 60 00 	lds	r24, 0x0060	; 0x800060 <__DATA_REGION_ORIGIN__>
     5c8:	88 61       	ori	r24, 0x18	; 24
     5ca:	80 93 60 00 	sts	0x0060, r24	; 0x800060 <__DATA_REGION_ORIGIN__>
     5ce:	10 92 60 00 	sts	0x0060, r1	; 0x800060 <__DATA_REGION_ORIGIN__>
     5d2:	0f be       	out	0x3f, r0	; 63

000005d4 <.LBE204>:
     5d4:	82 e0       	ldi	r24, 0x02	; 2
     5d6:	84 b9       	out	0x04, r24	; 4

000005d8 <.Loc.464>:
     5d8:	8c e0       	ldi	r24, 0x0C	; 12
     5da:	85 b9       	out	0x05, r24	; 5

000005dc <.Loc.466>:
     5dc:	1a 99       	sbic	0x03, 2	; 3
     5de:	22 c0       	rjmp	.+68     	; 0x624 <.L91>

000005e0 <.Loc.468>:
     5e0:	10 92 20 01 	sts	0x0120, r1	; 0x800120 <mocoMode>

000005e4 <.LBB206>:
     5e4:	87 e6       	ldi	r24, 0x67	; 103
     5e6:	90 e0       	ldi	r25, 0x00	; 0
     5e8:	90 93 cd 00 	sts	0x00CD, r25	; 0x8000cd <__DATA_REGION_ORIGIN__+0x6d>
     5ec:	80 93 cc 00 	sts	0x00CC, r24	; 0x8000cc <__DATA_REGION_ORIGIN__+0x6c>

000005f0 <.Loc.474>:
     5f0:	86 e0       	ldi	r24, 0x06	; 6
     5f2:	80 93 ca 00 	sts	0x00CA, r24	; 0x8000ca <__DATA_REGION_ORIGIN__+0x6a>

000005f6 <.Loc.476>:
     5f6:	10 92 c8 00 	sts	0x00C8, r1	; 0x8000c8 <__DATA_REGION_ORIGIN__+0x68>

000005fa <.Loc.478>:
     5fa:	88 e1       	ldi	r24, 0x18	; 24
     5fc:	80 93 c9 00 	sts	0x00C9, r24	; 0x8000c9 <__DATA_REGION_ORIGIN__+0x69>

00000600 <.Loc.480>:
     600:	53 9a       	sbi	0x0a, 3	; 10

00000602 <.Loc.482>:
     602:	5a 9a       	sbi	0x0b, 2	; 11

00000604 <.L92>:
     604:	84 e0       	ldi	r24, 0x04	; 4
     606:	85 bd       	out	0x25, r24	; 37

00000608 <.Loc.487>:
     608:	87 d3       	rcall	.+1806   	; 0xd18 <USB_Init>

0000060a <.LBB208>:
     60a:	8a b1       	in	r24, 0x0a	; 10
     60c:	80 63       	ori	r24, 0x30	; 48
     60e:	8a b9       	out	0x0a, r24	; 10

00000610 <.Loc.492>:
     610:	8b b1       	in	r24, 0x0b	; 11
     612:	80 63       	ori	r24, 0x30	; 48
     614:	8b b9       	out	0x0b, r24	; 11

00000616 <.LBE208>:
     616:	80 91 20 01 	lds	r24, 0x0120	; 0x800120 <mocoMode>
     61a:	81 11       	cpse	r24, r1
     61c:	02 c0       	rjmp	.+4      	; 0x622 <.L90>

0000061e <.Loc.496>:
     61e:	5f 9a       	sbi	0x0b, 7	; 11

00000620 <.Loc.498>:
     620:	57 9a       	sbi	0x0a, 7	; 10

00000622 <.L90>:
     622:	08 95       	ret

00000624 <.L91>:
     624:	81 e0       	ldi	r24, 0x01	; 1
     626:	80 93 20 01 	sts	0x0120, r24	; 0x800120 <mocoMode>

0000062a <.Loc.503>:
     62a:	1b 99       	sbic	0x03, 3	; 3
     62c:	0a c0       	rjmp	.+20     	; 0x642 <.L93>

0000062e <.Loc.505>:
     62e:	80 93 32 01 	sts	0x0132, r24	; 0x800132 <highSpeed>

00000632 <.Loc.507>:
     632:	10 92 cc 00 	sts	0x00CC, r1	; 0x8000cc <__DATA_REGION_ORIGIN__+0x6c>

00000636 <.L94>:
     636:	88 e1       	ldi	r24, 0x18	; 24
     638:	80 93 c9 00 	sts	0x00C9, r24	; 0x8000c9 <__DATA_REGION_ORIGIN__+0x69>

0000063c <.Loc.511>:
     63c:	8e e0       	ldi	r24, 0x0E	; 14
     63e:	85 b9       	out	0x05, r24	; 5
     640:	e1 cf       	rjmp	.-62     	; 0x604 <.L92>

00000642 <.L93>:
     642:	8f e1       	ldi	r24, 0x1F	; 31
     644:	80 93 cc 00 	sts	0x00CC, r24	; 0x8000cc <__DATA_REGION_ORIGIN__+0x6c>
     648:	f6 cf       	rjmp	.-20     	; 0x636 <.L94>

0000064a <main>:
     64a:	b6 df       	rcall	.-148    	; 0x5b8 <SetupHardware>

0000064c <.LVL87>:
     64c:	80 91 20 01 	lds	r24, 0x0120	; 0x800120 <mocoMode>
     650:	81 30       	cpi	r24, 0x01	; 1
     652:	09 f4       	brne	.+2      	; 0x656 <.L97>

00000654 <.Loc.519>:
     654:	97 de       	rcall	.-722    	; 0x384 <processMIDI>

00000656 <.L97>:
     656:	1a df       	rcall	.-460    	; 0x48c <processSerial>

00000658 <EVENT_USB_Device_Connect>:
     658:	08 95       	ret

0000065a <EVENT_USB_Device_Disconnect>:
     65a:	08 95       	ret

0000065c <EVENT_USB_Device_ConfigurationChanged>:
     65c:	80 91 20 01 	lds	r24, 0x0120	; 0x800120 <mocoMode>
     660:	81 30       	cpi	r24, 0x01	; 1
     662:	19 f4       	brne	.+6      	; 0x66a <.L101>

00000664 <.LBB210>:
     664:	81 e0       	ldi	r24, 0x01	; 1
     666:	91 e0       	ldi	r25, 0x01	; 1
     668:	c5 c6       	rjmp	.+3466   	; 0x13f4 <MIDI_Device_ConfigureEndpoints>

0000066a <.L101>:
     66a:	8a e0       	ldi	r24, 0x0A	; 10
     66c:	91 e0       	ldi	r25, 0x01	; 1
     66e:	f7 c5       	rjmp	.+3054   	; 0x125e <CDC_Device_ConfigureEndpoints>

00000670 <EVENT_USB_Device_UnhandledControlRequest>:
     670:	80 91 20 01 	lds	r24, 0x0120	; 0x800120 <mocoMode>
     674:	81 11       	cpse	r24, r1
     676:	03 c0       	rjmp	.+6      	; 0x67e <.L103>

00000678 <.Loc.534>:
     678:	8a e0       	ldi	r24, 0x0A	; 10
     67a:	91 e0       	ldi	r25, 0x01	; 1
     67c:	8a c5       	rjmp	.+2836   	; 0x1192 <CDC_Device_ProcessControlRequest>

0000067e <.L103>:
     67e:	08 95       	ret

00000680 <EVENT_CDC_Device_LineEncodingChanged>:
     680:	8f 92       	push	r8

00000682 <.LCFI6>:
     682:	9f 92       	push	r9

00000684 <.LCFI7>:
     684:	af 92       	push	r10

00000686 <.LCFI8>:
     686:	bf 92       	push	r11

00000688 <.LCFI9>:
     688:	ff 92       	push	r15

0000068a <.LCFI10>:
     68a:	0f 93       	push	r16

0000068c <.LCFI11>:
     68c:	1f 93       	push	r17

0000068e <.LCFI12>:
     68e:	cf 93       	push	r28

00000690 <.LCFI13>:
     690:	df 93       	push	r29

00000692 <.LCFI14>:
     692:	00 d0       	rcall	.+0      	; 0x694 <L0^A>

00000694 <L0^A>:
     694:	00 d0       	rcall	.+0      	; 0x696 <L0^A>

00000696 <L0^A>:
     696:	0f 92       	push	r0

00000698 <.LCFI15>:
     698:	cd b7       	in	r28, 0x3d	; 61
     69a:	de b7       	in	r29, 0x3e	; 62

0000069c <.LCFI16>:
     69c:	8c 01       	movw	r16, r24

0000069e <.LVL95>:
     69e:	dc 01       	movw	r26, r24
     6a0:	54 96       	adiw	r26, 0x14	; 20
     6a2:	8c 91       	ld	r24, X

000006a4 <.LVL96>:
     6a4:	90 e3       	ldi	r25, 0x30	; 48
     6a6:	f9 2e       	mov	r15, r25
     6a8:	81 30       	cpi	r24, 0x01	; 1
     6aa:	29 f0       	breq	.+10     	; 0x6b6 <.L106>

000006ac <.Loc.542>:
     6ac:	20 e2       	ldi	r18, 0x20	; 32
     6ae:	f2 2e       	mov	r15, r18

000006b0 <.Loc.543>:
     6b0:	82 30       	cpi	r24, 0x02	; 2
     6b2:	09 f0       	breq	.+2      	; 0x6b6 <.L106>

000006b4 <.Loc.544>:
     6b4:	f1 2c       	mov	r15, r1

000006b6 <.L106>:
     6b6:	f8 01       	movw	r30, r16
     6b8:	83 89       	ldd	r24, Z+19	; 0x13
     6ba:	82 30       	cpi	r24, 0x02	; 2
     6bc:	11 f4       	brne	.+4      	; 0x6c2 <.L107>

000006be <.Loc.547>:
     6be:	68 94       	set
     6c0:	f3 f8       	bld	r15, 3

000006c2 <.L107>:
     6c2:	d8 01       	movw	r26, r16
     6c4:	55 96       	adiw	r26, 0x15	; 21
     6c6:	8c 91       	ld	r24, X

000006c8 <.Loc.551>:
     6c8:	87 30       	cpi	r24, 0x07	; 7
     6ca:	09 f4       	brne	.+2      	; 0x6ce <.Loc.552>

000006cc <L0^A>:
     6cc:	53 c0       	rjmp	.+166    	; 0x774 <.L108>

000006ce <.Loc.552>:
     6ce:	88 30       	cpi	r24, 0x08	; 8
     6d0:	09 f4       	brne	.+2      	; 0x6d4 <L0^A+0x2>

000006d2 <L0^A>:
     6d2:	53 c0       	rjmp	.+166    	; 0x77a <.L109>
     6d4:	86 30       	cpi	r24, 0x06	; 6
     6d6:	11 f4       	brne	.+4      	; 0x6dc <.L110>

000006d8 <.Loc.553>:
     6d8:	68 94       	set
     6da:	f1 f8       	bld	r15, 1

000006dc <.L110>:
     6dc:	10 92 c9 00 	sts	0x00C9, r1	; 0x8000c9 <__DATA_REGION_ORIGIN__+0x69>

000006e0 <.Loc.558>:
     6e0:	10 92 c8 00 	sts	0x00C8, r1	; 0x8000c8 <__DATA_REGION_ORIGIN__+0x68>

000006e4 <.Loc.560>:
     6e4:	10 92 ca 00 	sts	0x00CA, r1	; 0x8000ca <__DATA_REGION_ORIGIN__+0x6a>

000006e8 <.Loc.562>:
     6e8:	f8 01       	movw	r30, r16
     6ea:	27 85       	ldd	r18, Z+15	; 0x0f
     6ec:	30 89       	ldd	r19, Z+16	; 0x10
     6ee:	41 89       	ldd	r20, Z+17	; 0x11
     6f0:	52 89       	ldd	r21, Z+18	; 0x12

000006f2 <.Loc.564>:
     6f2:	21 15       	cp	r18, r1
     6f4:	f1 ee       	ldi	r31, 0xE1	; 225
     6f6:	3f 07       	cpc	r19, r31
     6f8:	41 05       	cpc	r20, r1
     6fa:	51 05       	cpc	r21, r1
     6fc:	09 f4       	brne	.+2      	; 0x700 <.Loc.565>

000006fe <L0^A>:
     6fe:	41 c0       	rjmp	.+130    	; 0x782 <.L115>

00000700 <.Loc.565>:
     700:	49 01       	movw	r8, r18
     702:	5a 01       	movw	r10, r20
     704:	b6 94       	lsr	r11
     706:	a7 94       	ror	r10
     708:	97 94       	ror	r9
     70a:	87 94       	ror	r8
     70c:	d5 01       	movw	r26, r10
     70e:	c4 01       	movw	r24, r8
     710:	80 58       	subi	r24, 0x80	; 128
     712:	9b 47       	sbci	r25, 0x7B	; 123
     714:	a1 4e       	sbci	r26, 0xE1	; 225
     716:	bf 4f       	sbci	r27, 0xFF	; 255
     718:	89 83       	std	Y+1, r24	; 0x01
     71a:	9a 83       	std	Y+2, r25	; 0x02
     71c:	ab 83       	std	Y+3, r26	; 0x03
     71e:	bc 83       	std	Y+4, r27	; 0x04
     720:	bc 01       	movw	r22, r24
     722:	cd 01       	movw	r24, r26
     724:	ec d6       	rcall	.+3544   	; 0x14fe <__udivmodsi4>

00000726 <.Loc.566>:
     726:	21 50       	subi	r18, 0x01	; 1
     728:	31 09       	sbc	r19, r1

0000072a <.L111>:
     72a:	30 93 cd 00 	sts	0x00CD, r19	; 0x8000cd <__DATA_REGION_ORIGIN__+0x6d>
     72e:	20 93 cc 00 	sts	0x00CC, r18	; 0x8000cc <__DATA_REGION_ORIGIN__+0x6c>

00000732 <.Loc.568>:
     732:	f0 92 ca 00 	sts	0x00CA, r15	; 0x8000ca <__DATA_REGION_ORIGIN__+0x6a>

00000736 <.Loc.570>:
     736:	f8 01       	movw	r30, r16
     738:	87 85       	ldd	r24, Z+15	; 0x0f
     73a:	90 89       	ldd	r25, Z+16	; 0x10
     73c:	a1 89       	ldd	r26, Z+17	; 0x11
     73e:	b2 89       	ldd	r27, Z+18	; 0x12
     740:	81 15       	cp	r24, r1
     742:	91 4e       	sbci	r25, 0xE1	; 225
     744:	a1 05       	cpc	r26, r1
     746:	b1 05       	cpc	r27, r1
     748:	f9 f0       	breq	.+62     	; 0x788 <.L116>

0000074a <.Loc.572>:
     74a:	82 e0       	ldi	r24, 0x02	; 2

0000074c <.L112>:
     74c:	80 93 c8 00 	sts	0x00C8, r24	; 0x8000c8 <__DATA_REGION_ORIGIN__+0x68>

00000750 <.Loc.574>:
     750:	88 e9       	ldi	r24, 0x98	; 152
     752:	80 93 c9 00 	sts	0x00C9, r24	; 0x8000c9 <__DATA_REGION_ORIGIN__+0x69>

00000756 <.Loc.576>:
     756:	0f 90       	pop	r0
     758:	0f 90       	pop	r0
     75a:	0f 90       	pop	r0
     75c:	0f 90       	pop	r0
     75e:	0f 90       	pop	r0
     760:	df 91       	pop	r29
     762:	cf 91       	pop	r28
     764:	1f 91       	pop	r17
     766:	0f 91       	pop	r16

00000768 <.LVL100>:
     768:	ff 90       	pop	r15

0000076a <.LVL101>:
     76a:	bf 90       	pop	r11
     76c:	af 90       	pop	r10
     76e:	9f 90       	pop	r9
     770:	8f 90       	pop	r8
     772:	08 95       	ret

00000774 <.L108>:
     774:	68 94       	set
     776:	f2 f8       	bld	r15, 2

00000778 <.Loc.581>:
     778:	b1 cf       	rjmp	.-158    	; 0x6dc <.L110>

0000077a <.L109>:
     77a:	bf 2d       	mov	r27, r15
     77c:	b6 60       	ori	r27, 0x06	; 6
     77e:	fb 2e       	mov	r15, r27

00000780 <.Loc.584>:
     780:	ad cf       	rjmp	.-166    	; 0x6dc <.L110>

00000782 <.L115>:
     782:	20 e1       	ldi	r18, 0x10	; 16
     784:	30 e0       	ldi	r19, 0x00	; 0
     786:	d1 cf       	rjmp	.-94     	; 0x72a <.L111>

00000788 <.L116>:
     788:	80 e0       	ldi	r24, 0x00	; 0
     78a:	e0 cf       	rjmp	.-64     	; 0x74c <.L112>

0000078c <__vector_23>:
     78c:	1f 92       	push	r1
     78e:	1f b6       	in	r1, 0x3f	; 63
     790:	1f 92       	push	r1
     792:	11 24       	eor	r1, r1
     794:	2f 93       	push	r18
     796:	8f 93       	push	r24

00000798 <.LCFI17>:
     798:	9f 93       	push	r25

0000079a <.LCFI18>:
     79a:	ef 93       	push	r30

0000079c <.LCFI19>:
     79c:	ff 93       	push	r31

0000079e <.LCFI20>:
     79e:	80 91 20 01 	lds	r24, 0x0120	; 0x800120 <mocoMode>
     7a2:	81 11       	cpse	r24, r1
     7a4:	20 c0       	rjmp	.+64     	; 0x7e6 <.L117>

000007a6 <.LBB219>:
     7a6:	80 91 ce 00 	lds	r24, 0x00CE	; 0x8000ce <__DATA_REGION_ORIGIN__+0x6e>

000007aa <.LVL105>:
     7aa:	9e b3       	in	r25, 0x1e	; 30

000007ac <.Loc.594>:
     7ac:	94 30       	cpi	r25, 0x04	; 4
     7ae:	d9 f4       	brne	.+54     	; 0x7e6 <.L117>

000007b0 <.LBB220>:
     7b0:	e0 91 ec 01 	lds	r30, 0x01EC	; 0x8001ec <USARTtoUSB_Buffer+0x80>
     7b4:	f0 91 ed 01 	lds	r31, 0x01ED	; 0x8001ed <USARTtoUSB_Buffer+0x81>

000007b8 <.Loc.599>:
     7b8:	80 83       	st	Z, r24

000007ba <.Loc.600>:
     7ba:	e0 91 ec 01 	lds	r30, 0x01EC	; 0x8001ec <USARTtoUSB_Buffer+0x80>
     7be:	f0 91 ed 01 	lds	r31, 0x01ED	; 0x8001ed <USARTtoUSB_Buffer+0x81>
     7c2:	cf 01       	movw	r24, r30

000007c4 <.LVL107>:
     7c4:	01 96       	adiw	r24, 0x01	; 1

000007c6 <.Loc.603>:
     7c6:	21 e0       	ldi	r18, 0x01	; 1
     7c8:	eb 3e       	cpi	r30, 0xEB	; 235
     7ca:	f2 07       	cpc	r31, r18
     7cc:	a9 f0       	breq	.+42     	; 0x7f8 <.L119>
     7ce:	90 93 ed 01 	sts	0x01ED, r25	; 0x8001ed <USARTtoUSB_Buffer+0x81>
     7d2:	80 93 ec 01 	sts	0x01EC, r24	; 0x8001ec <USARTtoUSB_Buffer+0x80>

000007d6 <.L120>:
     7d6:	9f b7       	in	r25, 0x3f	; 63

000007d8 <.LBB223>:
    cli();
     7d8:	f8 94       	cli

000007da <.LBE223>:
     7da:	80 91 f0 01 	lds	r24, 0x01F0	; 0x8001f0 <USARTtoUSB_Buffer+0x84>
     7de:	8f 5f       	subi	r24, 0xFF	; 255
     7e0:	80 93 f0 01 	sts	0x01F0, r24	; 0x8001f0 <USARTtoUSB_Buffer+0x84>

000007e4 <.LBB225>:
    SREG = *__s;
     7e4:	9f bf       	out	0x3f, r25	; 63

000007e6 <.L117>:
     7e6:	ff 91       	pop	r31
     7e8:	ef 91       	pop	r30
     7ea:	9f 91       	pop	r25
     7ec:	8f 91       	pop	r24
     7ee:	2f 91       	pop	r18
     7f0:	1f 90       	pop	r1
     7f2:	1f be       	out	0x3f, r1	; 63
     7f4:	1f 90       	pop	r1
     7f6:	18 95       	reti

000007f8 <.L119>:
     7f8:	8c e6       	ldi	r24, 0x6C	; 108
     7fa:	91 e0       	ldi	r25, 0x01	; 1
     7fc:	92 83       	std	Z+2, r25	; 0x02
     7fe:	81 83       	std	Z+1, r24	; 0x01

00000800 <.Loc.623>:
     800:	ea cf       	rjmp	.-44     	; 0x7d6 <.L120>

00000802 <EVENT_CDC_Device_ControLineStateChanged>:
     802:	fc 01       	movw	r30, r24
     804:	85 85       	ldd	r24, Z+13	; 0x0d

00000806 <.LVL114>:
     806:	80 ff       	sbrs	r24, 0
     808:	02 c0       	rjmp	.+4      	; 0x80e <.L122>

0000080a <.Loc.629>:
     80a:	5f 98       	cbi	0x0b, 7	; 11
     80c:	08 95       	ret

0000080e <.L122>:
     80e:	5f 9a       	sbi	0x0b, 7	; 11

00000810 <.Loc.633>:
     810:	08 95       	ret

00000812 <CALLBACK_USB_GetDescriptor>:
  *  USB host.
  */
 uint16_t CALLBACK_USB_GetDescriptor(const uint16_t wValue,
                                     const uint8_t wIndex,
                                     void** const DescriptorAddress)
 {
     812:	9c 01       	movw	r18, r24
     814:	da 01       	movw	r26, r20

00000816 <.Loc.2>:
     const uint8_t  DescriptorType   = (wValue >> 8);
     816:	83 2f       	mov	r24, r19
     818:	99 27       	eor	r25, r25

0000081a <.LVL1>:
     const uint8_t  DescriptorNumber = (wValue & 0xFF);
 
     void*    Address = NULL;
     uint16_t Size    = NO_DESCRIPTOR;
 
     switch (DescriptorType)
     81a:	82 30       	cpi	r24, 0x02	; 2
     81c:	91 05       	cpc	r25, r1
     81e:	91 f0       	breq	.+36     	; 0x844 <.L2>
     820:	83 30       	cpi	r24, 0x03	; 3
     822:	91 05       	cpc	r25, r1
     824:	c9 f0       	breq	.+50     	; 0x858 <.L3>
     826:	01 97       	sbiw	r24, 0x01	; 1
     828:	09 f0       	breq	.+2      	; 0x82c <.Loc.8>

0000082a <L0^A>:
     82a:	5a c0       	rjmp	.+180    	; 0x8e0 <.L12>

0000082c <.Loc.8>:
     {
         case DTYPE_Device: 
           if (mocoMode == 1) {
     82c:	80 91 20 01 	lds	r24, 0x0120	; 0x800120 <mocoMode>

00000830 <.LVL2>:
     830:	81 30       	cpi	r24, 0x01	; 1
     832:	09 f4       	brne	.+2      	; 0x836 <.Loc.11>

00000834 <L0^A>:
     834:	4b c0       	rjmp	.+150    	; 0x8cc <.L10>

00000836 <.Loc.11>:
             Address = (void*)&DeviceDescriptorMIDI;
             Size    = sizeof(USB_Descriptor_Device_t);
           } else {
             Address = (void*)&DeviceDescriptorSerial;
             Size    = sizeof(USB_Descriptor_Device_t);
     836:	82 e1       	ldi	r24, 0x12	; 18
     838:	90 e0       	ldi	r25, 0x00	; 0

0000083a <.Loc.12>:
             Address = (void*)&DeviceDescriptorSerial;
     83a:	23 eb       	ldi	r18, 0xB3	; 179
     83c:	31 e0       	ldi	r19, 0x01	; 1

0000083e <.L4>:
             }
             
             break;
     }
     
     *DescriptorAddress = Address;
     83e:	2d 93       	st	X+, r18
     840:	3c 93       	st	X, r19

00000842 <.Loc.15>:
     return Size;
 }
     842:	08 95       	ret

00000844 <.L2>:
           if (mocoMode == 1) {
     844:	80 91 20 01 	lds	r24, 0x0120	; 0x800120 <mocoMode>

00000848 <.LVL5>:
     848:	81 30       	cpi	r24, 0x01	; 1
     84a:	09 f4       	brne	.+2      	; 0x84e <.Loc.20>

0000084c <L0^A>:
     84c:	44 c0       	rjmp	.+136    	; 0x8d6 <.L11>

0000084e <.Loc.20>:
             Size    = sizeof(USB_Descriptor_ConfigurationCDC_t);
     84e:	8e e3       	ldi	r24, 0x3E	; 62
     850:	90 e0       	ldi	r25, 0x00	; 0

00000852 <.Loc.21>:
             Address = (void*)&ConfigurationDescriptorSerial;
     852:	23 e6       	ldi	r18, 0x63	; 99
     854:	31 e0       	ldi	r19, 0x01	; 1

00000856 <.LVL6>:
     856:	f3 cf       	rjmp	.-26     	; 0x83e <.L4>

00000858 <.L3>:
             switch (DescriptorNumber)
     858:	c9 01       	movw	r24, r18

0000085a <.LVL8>:
     85a:	99 27       	eor	r25, r25
     85c:	21 30       	cpi	r18, 0x01	; 1
     85e:	71 f0       	breq	.+28     	; 0x87c <.L5>
     860:	82 30       	cpi	r24, 0x02	; 2
     862:	91 05       	cpc	r25, r1
     864:	f9 f0       	breq	.+62     	; 0x8a4 <.L6>
     866:	89 2b       	or	r24, r25
     868:	09 f0       	breq	.+2      	; 0x86c <.LBB2>

0000086a <L0^A>:
     86a:	3a c0       	rjmp	.+116    	; 0x8e0 <.L12>

0000086c <.LBB2>:
                     Size    = pgm_read_byte(&LanguageString.Header.Size);
     86c:	ea ef       	ldi	r30, 0xFA	; 250
     86e:	f0 e0       	ldi	r31, 0x00	; 0
     870:	e4 91       	lpm	r30, Z

00000872 <.LBE2>:
     872:	8e 2f       	mov	r24, r30
     874:	90 e0       	ldi	r25, 0x00	; 0

00000876 <.LVL11>:
                     Address = (void*)&LanguageString;
     876:	2a ef       	ldi	r18, 0xFA	; 250
     878:	30 e0       	ldi	r19, 0x00	; 0

0000087a <.LVL12>:
                     break;
     87a:	e1 cf       	rjmp	.-62     	; 0x83e <.L4>

0000087c <.L5>:
                   if (mocoMode == 1) {
     87c:	80 91 20 01 	lds	r24, 0x0120	; 0x800120 <mocoMode>
     880:	81 30       	cpi	r24, 0x01	; 1
     882:	41 f4       	brne	.+16     	; 0x894 <.L7>

00000884 <.LBB3>:
                     Size    = pgm_read_byte(&ManufacturerStringMIDI.Header.Size);
     884:	e4 ea       	ldi	r30, 0xA4	; 164
     886:	f0 e0       	ldi	r31, 0x00	; 0
     888:	e4 91       	lpm	r30, Z

0000088a <.LBE3>:
     88a:	8e 2f       	mov	r24, r30
     88c:	90 e0       	ldi	r25, 0x00	; 0

0000088e <.LVL16>:
                     Address = (void*)&ManufacturerStringMIDI;
     88e:	24 ea       	ldi	r18, 0xA4	; 164
     890:	30 e0       	ldi	r19, 0x00	; 0

00000892 <.LVL17>:
     892:	d5 cf       	rjmp	.-86     	; 0x83e <.L4>

00000894 <.L7>:
                     Size    = pgm_read_byte(&ManufacturerStringSerial.Header.Size);
     894:	e8 ec       	ldi	r30, 0xC8	; 200
     896:	f0 e0       	ldi	r31, 0x00	; 0
     898:	e4 91       	lpm	r30, Z

0000089a <.LBE4>:
     89a:	8e 2f       	mov	r24, r30
     89c:	90 e0       	ldi	r25, 0x00	; 0

0000089e <.LVL20>:
                     Address = (void*)&ManufacturerStringSerial;
     89e:	28 ec       	ldi	r18, 0xC8	; 200
     8a0:	30 e0       	ldi	r19, 0x00	; 0

000008a2 <.LVL21>:
     8a2:	cd cf       	rjmp	.-102    	; 0x83e <.L4>

000008a4 <.L6>:
                   if (mocoMode == 1) {
     8a4:	80 91 20 01 	lds	r24, 0x0120	; 0x800120 <mocoMode>
     8a8:	81 30       	cpi	r24, 0x01	; 1
     8aa:	41 f4       	brne	.+16     	; 0x8bc <.L8>

000008ac <.LBB5>:
                     Size    = pgm_read_byte(&ProductStringMIDI.Header.Size);
     8ac:	e4 e7       	ldi	r30, 0x74	; 116
     8ae:	f0 e0       	ldi	r31, 0x00	; 0
     8b0:	e4 91       	lpm	r30, Z

000008b2 <.LBE5>:
     8b2:	8e 2f       	mov	r24, r30
     8b4:	90 e0       	ldi	r25, 0x00	; 0

000008b6 <.LVL25>:
                     Address = (void*)&ProductStringMIDI;
     8b6:	24 e7       	ldi	r18, 0x74	; 116
     8b8:	30 e0       	ldi	r19, 0x00	; 0

000008ba <.LVL26>:
     8ba:	c1 cf       	rjmp	.-126    	; 0x83e <.L4>

000008bc <.L8>:
                     Size    = pgm_read_byte(&ProductStringSerial.Header.Size);
     8bc:	ec e8       	ldi	r30, 0x8C	; 140
     8be:	f0 e0       	ldi	r31, 0x00	; 0
     8c0:	e4 91       	lpm	r30, Z

000008c2 <.LBE6>:
     8c2:	8e 2f       	mov	r24, r30
     8c4:	90 e0       	ldi	r25, 0x00	; 0

000008c6 <.LVL29>:
                     Address = (void*)&ProductStringSerial;
     8c6:	2c e8       	ldi	r18, 0x8C	; 140
     8c8:	30 e0       	ldi	r19, 0x00	; 0

000008ca <.LVL30>:
     8ca:	b9 cf       	rjmp	.-142    	; 0x83e <.L4>

000008cc <.L10>:
             Size    = sizeof(USB_Descriptor_Device_t);
     8cc:	82 e1       	ldi	r24, 0x12	; 18
     8ce:	90 e0       	ldi	r25, 0x00	; 0

000008d0 <.Loc.76>:
             Address = (void*)&DeviceDescriptorMIDI;
     8d0:	21 ea       	ldi	r18, 0xA1	; 161
     8d2:	31 e0       	ldi	r19, 0x01	; 1

000008d4 <.LVL32>:
     8d4:	b4 cf       	rjmp	.-152    	; 0x83e <.L4>

000008d6 <.L11>:
             Size    = sizeof(USB_Descriptor_ConfigurationMIDI_t);
     8d6:	85 e6       	ldi	r24, 0x65	; 101
     8d8:	90 e0       	ldi	r25, 0x00	; 0

000008da <.Loc.79>:
             Address = (void*)&ConfigurationDescriptorMIDI;
     8da:	2e ef       	ldi	r18, 0xFE	; 254
     8dc:	30 e0       	ldi	r19, 0x00	; 0

000008de <.LVL34>:
     8de:	af cf       	rjmp	.-162    	; 0x83e <.L4>

000008e0 <.L12>:
     8e0:	90 e0       	ldi	r25, 0x00	; 0
     8e2:	80 e0       	ldi	r24, 0x00	; 0
     8e4:	30 e0       	ldi	r19, 0x00	; 0
     8e6:	20 e0       	ldi	r18, 0x00	; 0

000008e8 <.LVL36>:
     8e8:	aa cf       	rjmp	.-172    	; 0x83e <.L4>

000008ea <Endpoint_BytesToEPSizeMaskDynamic>:
     8ea:	ac 01       	movw	r20, r24

000008ec <.LBB259>:
     8ec:	28 e0       	ldi	r18, 0x08	; 8
     8ee:	30 e0       	ldi	r19, 0x00	; 0

000008f0 <.Loc.8>:
     8f0:	80 e0       	ldi	r24, 0x00	; 0

000008f2 <.L2>:
     8f2:	24 17       	cp	r18, r20
     8f4:	35 07       	cpc	r19, r21
     8f6:	18 f0       	brcs	.+6      	; 0x8fe <.L3>

000008f8 <.LBE259>:
     8f8:	82 95       	swap	r24
     8fa:	80 7f       	andi	r24, 0xF0	; 240
     8fc:	08 95       	ret

000008fe <.L3>:
     8fe:	8f 5f       	subi	r24, 0xFF	; 255

00000900 <.Loc.15>:
     900:	22 0f       	add	r18, r18
     902:	33 1f       	adc	r19, r19

00000904 <.Loc.17>:
     904:	f6 cf       	rjmp	.-20     	; 0x8f2 <.L2>

00000906 <Endpoint_ConfigureEndpoint_Prv>:
     906:	80 93 e9 00 	sts	0x00E9, r24	; 0x8000e9 <__DATA_REGION_ORIGIN__+0x89>

0000090a <.LBB265>:
     90a:	eb ee       	ldi	r30, 0xEB	; 235
     90c:	f0 e0       	ldi	r31, 0x00	; 0
     90e:	80 81       	ld	r24, Z

00000910 <.LVL9>:
     910:	81 60       	ori	r24, 0x01	; 1
     912:	80 83       	st	Z, r24

00000914 <.LBE265>:
     914:	ed ee       	ldi	r30, 0xED	; 237
     916:	f0 e0       	ldi	r31, 0x00	; 0
     918:	10 82       	st	Z, r1

0000091a <.Loc.32>:
     91a:	60 93 ec 00 	sts	0x00EC, r22	; 0x8000ec <__DATA_REGION_ORIGIN__+0x8c>

0000091e <.Loc.34>:
     91e:	40 83       	st	Z, r20

00000920 <.LBB267>:
     920:	80 91 ee 00 	lds	r24, 0x00EE	; 0x8000ee <__DATA_REGION_ORIGIN__+0x8e>

00000924 <.LBE267>:
     924:	88 1f       	adc	r24, r24
     926:	88 27       	eor	r24, r24
     928:	88 1f       	adc	r24, r24
     92a:	08 95       	ret

0000092c <Endpoint_ClearEndpoints>:
     92c:	10 92 f4 00 	sts	0x00F4, r1	; 0x8000f4 <__DATA_REGION_ORIGIN__+0x94>

00000930 <.LBB269>:
     930:	80 e0       	ldi	r24, 0x00	; 0

00000932 <.L6>:
     932:	80 93 e9 00 	sts	0x00E9, r24	; 0x8000e9 <__DATA_REGION_ORIGIN__+0x89>

00000936 <.LBE270>:
     936:	10 92 f0 00 	sts	0x00F0, r1	; 0x8000f0 <__DATA_REGION_ORIGIN__+0x90>

0000093a <.Loc.55>:
     93a:	10 92 e8 00 	sts	0x00E8, r1	; 0x8000e8 <__DATA_REGION_ORIGIN__+0x88>

0000093e <.Loc.57>:
     93e:	10 92 ed 00 	sts	0x00ED, r1	; 0x8000ed <__DATA_REGION_ORIGIN__+0x8d>

00000942 <.LBB272>:
     942:	90 91 eb 00 	lds	r25, 0x00EB	; 0x8000eb <__DATA_REGION_ORIGIN__+0x8b>
     946:	9e 7f       	andi	r25, 0xFE	; 254
     948:	90 93 eb 00 	sts	0x00EB, r25	; 0x8000eb <__DATA_REGION_ORIGIN__+0x8b>

0000094c <.LBE272>:
     94c:	8f 5f       	subi	r24, 0xFF	; 255

0000094e <.Loc.65>:
     94e:	85 30       	cpi	r24, 0x05	; 5
     950:	81 f7       	brne	.-32     	; 0x932 <.L6>

00000952 <.LBE269>:
     952:	08 95       	ret

00000954 <Endpoint_ClearStatusStage>:
     954:	80 91 7a 02 	lds	r24, 0x027A	; 0x80027a <USB_ControlRequest>
     958:	87 ff       	sbrs	r24, 7
     95a:	11 c0       	rjmp	.+34     	; 0x97e <.L10>

0000095c <.L9>:
     95c:	80 91 e8 00 	lds	r24, 0x00E8	; 0x8000e8 <__DATA_REGION_ORIGIN__+0x88>

00000960 <.LBE274>:
     960:	82 ff       	sbrs	r24, 2
     962:	06 c0       	rjmp	.+12     	; 0x970 <.L12>

00000964 <.LBB276>:
     964:	80 91 e8 00 	lds	r24, 0x00E8	; 0x8000e8 <__DATA_REGION_ORIGIN__+0x88>
     968:	8b 77       	andi	r24, 0x7B	; 123

0000096a <.L21>:
     96a:	80 93 e8 00 	sts	0x00E8, r24	; 0x8000e8 <__DATA_REGION_ORIGIN__+0x88>

0000096e <.Loc.81>:
     96e:	03 c0       	rjmp	.+6      	; 0x976 <.L8>

00000970 <.L12>:
     970:	8e b3       	in	r24, 0x1e	; 30

00000972 <.Loc.84>:
     972:	81 11       	cpse	r24, r1
     974:	f3 cf       	rjmp	.-26     	; 0x95c <.L9>

00000976 <.L8>:
     976:	08 95       	ret

00000978 <.L13>:
     978:	8e b3       	in	r24, 0x1e	; 30

0000097a <.Loc.88>:
     97a:	88 23       	and	r24, r24
     97c:	e1 f3       	breq	.-8      	; 0x976 <.L8>

0000097e <.L10>:
     97e:	80 91 e8 00 	lds	r24, 0x00E8	; 0x8000e8 <__DATA_REGION_ORIGIN__+0x88>

00000982 <.LBE281>:
     982:	80 ff       	sbrs	r24, 0
     984:	f9 cf       	rjmp	.-14     	; 0x978 <.L13>

00000986 <.LBB283>:
     986:	80 91 e8 00 	lds	r24, 0x00E8	; 0x8000e8 <__DATA_REGION_ORIGIN__+0x88>
     98a:	8e 77       	andi	r24, 0x7E	; 126
     98c:	ee cf       	rjmp	.-36     	; 0x96a <.L21>

0000098e <Endpoint_WaitUntilReady>:
     98e:	95 e6       	ldi	r25, 0x65	; 101

00000990 <.L26>:
     990:	20 91 ec 00 	lds	r18, 0x00EC	; 0x8000ec <__DATA_REGION_ORIGIN__+0x8c>

00000994 <.LBE284>:
     994:	82 2f       	mov	r24, r18
     996:	81 70       	andi	r24, 0x01	; 1
     998:	20 ff       	sbrs	r18, 0
     99a:	06 c0       	rjmp	.+12     	; 0x9a8 <.L23>

0000099c <.LBB286>:
     99c:	80 91 e8 00 	lds	r24, 0x00E8	; 0x8000e8 <__DATA_REGION_ORIGIN__+0x88>

000009a0 <.LBE286>:
     9a0:	80 ff       	sbrs	r24, 0
     9a2:	06 c0       	rjmp	.+12     	; 0x9b0 <.L25>

000009a4 <.Loc.112>:
     9a4:	80 e0       	ldi	r24, 0x00	; 0
     9a6:	08 95       	ret

000009a8 <.L23>:
     9a8:	20 91 e8 00 	lds	r18, 0x00E8	; 0x8000e8 <__DATA_REGION_ORIGIN__+0x88>

000009ac <.LBE288>:
     9ac:	22 fd       	sbrc	r18, 2
     9ae:	1c c0       	rjmp	.+56     	; 0x9e8 <.L22>

000009b0 <.L25>:
     9b0:	8e b3       	in	r24, 0x1e	; 30

000009b2 <.Loc.120>:
     9b2:	88 23       	and	r24, r24
     9b4:	a1 f0       	breq	.+40     	; 0x9de <.L29>

000009b6 <.Loc.121>:
     9b6:	8e b3       	in	r24, 0x1e	; 30

000009b8 <.Loc.123>:
     9b8:	85 30       	cpi	r24, 0x05	; 5
     9ba:	99 f0       	breq	.+38     	; 0x9e2 <.L30>

000009bc <.LBB290>:
     9bc:	80 91 eb 00 	lds	r24, 0x00EB	; 0x8000eb <__DATA_REGION_ORIGIN__+0x8b>

000009c0 <.LBE290>:
     9c0:	85 fd       	sbrc	r24, 5
     9c2:	11 c0       	rjmp	.+34     	; 0x9e6 <.L31>

000009c4 <.Loc.129>:
     9c4:	80 91 e1 00 	lds	r24, 0x00E1	; 0x8000e1 <__DATA_REGION_ORIGIN__+0x81>

000009c8 <.Loc.131>:
     9c8:	82 ff       	sbrs	r24, 2
     9ca:	e2 cf       	rjmp	.-60     	; 0x990 <.L26>

000009cc <.Loc.132>:
     9cc:	80 91 e1 00 	lds	r24, 0x00E1	; 0x8000e1 <__DATA_REGION_ORIGIN__+0x81>
     9d0:	8b 7f       	andi	r24, 0xFB	; 251
     9d2:	80 93 e1 00 	sts	0x00E1, r24	; 0x8000e1 <__DATA_REGION_ORIGIN__+0x81>

000009d6 <.LVL17>:
     9d6:	91 50       	subi	r25, 0x01	; 1

000009d8 <.LVL18>:
     9d8:	d9 f6       	brne	.-74     	; 0x990 <.L26>

000009da <.Loc.138>:
     9da:	84 e0       	ldi	r24, 0x04	; 4
     9dc:	08 95       	ret

000009de <.L29>:
     9de:	82 e0       	ldi	r24, 0x02	; 2
     9e0:	08 95       	ret

000009e2 <.L30>:
     9e2:	83 e0       	ldi	r24, 0x03	; 3
     9e4:	08 95       	ret

000009e6 <.L31>:
     9e6:	81 e0       	ldi	r24, 0x01	; 1

000009e8 <.L22>:
     9e8:	08 95       	ret

000009ea <Endpoint_Write_Stream_LE>:
     9ea:	df 92       	push	r13

000009ec <.LCFI5>:
     9ec:	ef 92       	push	r14

000009ee <.LCFI6>:
     9ee:	ff 92       	push	r15

000009f0 <.LCFI7>:
     9f0:	0f 93       	push	r16

000009f2 <.LCFI8>:
     9f2:	1f 93       	push	r17

000009f4 <.LCFI9>:
     9f4:	cf 93       	push	r28

000009f6 <.LCFI10>:
     9f6:	df 93       	push	r29

000009f8 <.LCFI11>:
     9f8:	d8 2f       	mov	r29, r24
     9fa:	d9 2e       	mov	r13, r25
     9fc:	8b 01       	movw	r16, r22
     9fe:	7a 01       	movw	r14, r20

00000a00 <.LVL30>:
     a00:	c6 df       	rcall	.-116    	; 0x98e <Endpoint_WaitUntilReady>

00000a02 <.LVL31>:
     a02:	c8 2f       	mov	r28, r24

00000a04 <.LVL32>:
     a04:	88 23       	and	r24, r24
     a06:	c1 f0       	breq	.+48     	; 0xa38 <.L47>

00000a08 <.L45>:
     a08:	8c 2f       	mov	r24, r28
     a0a:	df 91       	pop	r29
     a0c:	cf 91       	pop	r28
     a0e:	1f 91       	pop	r17
     a10:	0f 91       	pop	r16

00000a12 <.LVL34>:
     a12:	ff 90       	pop	r15
     a14:	ef 90       	pop	r14

00000a16 <.LVL35>:
     a16:	df 90       	pop	r13
     a18:	08 95       	ret

00000a1a <.L49>:
     a1a:	f7 01       	movw	r30, r14
     a1c:	09 95       	icall

00000a1e <.LVL37>:
     a1e:	81 30       	cpi	r24, 0x01	; 1
     a20:	d1 f4       	brne	.+52     	; 0xa56 <.L51>

00000a22 <.Loc.191>:
     a22:	c5 e0       	ldi	r28, 0x05	; 5
     a24:	f1 cf       	rjmp	.-30     	; 0xa08 <.L45>

00000a26 <.L48>:
     a26:	ed 2f       	mov	r30, r29
     a28:	fd 2d       	mov	r31, r13

00000a2a <.LVL38>:
     a2a:	81 91       	ld	r24, Z+

00000a2c <.LBB298>:
     a2c:	80 93 f1 00 	sts	0x00F1, r24	; 0x8000f1 <__DATA_REGION_ORIGIN__+0x91>

00000a30 <.LBE298>:
     a30:	01 50       	subi	r16, 0x01	; 1
     a32:	11 09       	sbc	r17, r1

00000a34 <.Loc.200>:
     a34:	de 2f       	mov	r29, r30
     a36:	df 2e       	mov	r13, r31

00000a38 <.L47>:
     a38:	01 15       	cp	r16, r1
     a3a:	11 05       	cpc	r17, r1
     a3c:	29 f3       	breq	.-54     	; 0xa08 <.L45>

00000a3e <.LBB300>:
     a3e:	80 91 e8 00 	lds	r24, 0x00E8	; 0x8000e8 <__DATA_REGION_ORIGIN__+0x88>

00000a42 <.LBE300>:
     a42:	85 fd       	sbrc	r24, 5
     a44:	f0 cf       	rjmp	.-32     	; 0xa26 <.L48>

00000a46 <.LBB302>:
     a46:	80 91 e8 00 	lds	r24, 0x00E8	; 0x8000e8 <__DATA_REGION_ORIGIN__+0x88>
     a4a:	8e 77       	andi	r24, 0x7E	; 126
     a4c:	80 93 e8 00 	sts	0x00E8, r24	; 0x8000e8 <__DATA_REGION_ORIGIN__+0x88>

00000a50 <.LBE302>:
     a50:	e1 14       	cp	r14, r1
     a52:	f1 04       	cpc	r15, r1
     a54:	11 f7       	brne	.-60     	; 0xa1a <.L49>

00000a56 <.L51>:
     a56:	9b df       	rcall	.-202    	; 0x98e <Endpoint_WaitUntilReady>

00000a58 <.LVL43>:
     a58:	88 23       	and	r24, r24
     a5a:	71 f3       	breq	.-36     	; 0xa38 <.L47>
     a5c:	c8 2f       	mov	r28, r24
     a5e:	d4 cf       	rjmp	.-88     	; 0xa08 <.L45>

00000a60 <Endpoint_Read_Stream_LE>:
     a60:	df 92       	push	r13

00000a62 <.LCFI51>:
     a62:	ef 92       	push	r14

00000a64 <.LCFI52>:
     a64:	ff 92       	push	r15

00000a66 <.LCFI53>:
     a66:	0f 93       	push	r16

00000a68 <.LCFI54>:
     a68:	1f 93       	push	r17

00000a6a <.LCFI55>:
     a6a:	cf 93       	push	r28

00000a6c <.LCFI56>:
     a6c:	df 93       	push	r29

00000a6e <.LCFI57>:
     a6e:	d8 2f       	mov	r29, r24
     a70:	d9 2e       	mov	r13, r25
     a72:	8b 01       	movw	r16, r22
     a74:	7a 01       	movw	r14, r20

00000a76 <.LVL130>:
     a76:	8b df       	rcall	.-234    	; 0x98e <Endpoint_WaitUntilReady>

00000a78 <.LVL131>:
     a78:	c8 2f       	mov	r28, r24

00000a7a <.LVL132>:
     a7a:	88 23       	and	r24, r24
     a7c:	c1 f0       	breq	.+48     	; 0xaae <.L107>

00000a7e <.L105>:
     a7e:	8c 2f       	mov	r24, r28
     a80:	df 91       	pop	r29
     a82:	cf 91       	pop	r28
     a84:	1f 91       	pop	r17
     a86:	0f 91       	pop	r16

00000a88 <.LVL134>:
     a88:	ff 90       	pop	r15
     a8a:	ef 90       	pop	r14

00000a8c <.LVL135>:
     a8c:	df 90       	pop	r13
     a8e:	08 95       	ret

00000a90 <.L109>:
     a90:	f7 01       	movw	r30, r14
     a92:	09 95       	icall

00000a94 <.LVL137>:
     a94:	81 30       	cpi	r24, 0x01	; 1
     a96:	d1 f4       	brne	.+52     	; 0xacc <.L111>

00000a98 <.Loc.438>:
     a98:	c5 e0       	ldi	r28, 0x05	; 5
     a9a:	f1 cf       	rjmp	.-30     	; 0xa7e <.L105>

00000a9c <.L108>:
     a9c:	ed 2f       	mov	r30, r29
     a9e:	fd 2d       	mov	r31, r13

00000aa0 <.LBB338>:
     aa0:	80 91 f1 00 	lds	r24, 0x00F1	; 0x8000f1 <__DATA_REGION_ORIGIN__+0x91>

00000aa4 <.LBE338>:
     aa4:	81 93       	st	Z+, r24

00000aa6 <.LVL139>:
     aa6:	01 50       	subi	r16, 0x01	; 1
     aa8:	11 09       	sbc	r17, r1

00000aaa <.Loc.446>:
     aaa:	de 2f       	mov	r29, r30
     aac:	df 2e       	mov	r13, r31

00000aae <.L107>:
     aae:	01 15       	cp	r16, r1
     ab0:	11 05       	cpc	r17, r1
     ab2:	29 f3       	breq	.-54     	; 0xa7e <.L105>

00000ab4 <.LBB340>:
     ab4:	80 91 e8 00 	lds	r24, 0x00E8	; 0x8000e8 <__DATA_REGION_ORIGIN__+0x88>

00000ab8 <.LBE340>:
     ab8:	85 fd       	sbrc	r24, 5
     aba:	f0 cf       	rjmp	.-32     	; 0xa9c <.L108>

00000abc <.LBB342>:
     abc:	80 91 e8 00 	lds	r24, 0x00E8	; 0x8000e8 <__DATA_REGION_ORIGIN__+0x88>
     ac0:	8b 77       	andi	r24, 0x7B	; 123
     ac2:	80 93 e8 00 	sts	0x00E8, r24	; 0x8000e8 <__DATA_REGION_ORIGIN__+0x88>

00000ac6 <.LBE342>:
     ac6:	e1 14       	cp	r14, r1
     ac8:	f1 04       	cpc	r15, r1
     aca:	11 f7       	brne	.-60     	; 0xa90 <.L109>

00000acc <.L111>:
     acc:	60 df       	rcall	.-320    	; 0x98e <Endpoint_WaitUntilReady>

00000ace <.LVL142>:
     ace:	88 23       	and	r24, r24
     ad0:	71 f3       	breq	.-36     	; 0xaae <.L107>
     ad2:	c8 2f       	mov	r28, r24
     ad4:	d4 cf       	rjmp	.-88     	; 0xa7e <.L105>

00000ad6 <Endpoint_Write_Control_Stream_LE>:
     ad6:	9b 01       	movw	r18, r22

00000ad8 <.LVL191>:
     ad8:	40 91 80 02 	lds	r20, 0x0280	; 0x800280 <USB_ControlRequest+0x6>
     adc:	50 91 81 02 	lds	r21, 0x0281	; 0x800281 <USB_ControlRequest+0x7>

00000ae0 <.Loc.587>:
     ae0:	46 17       	cp	r20, r22
     ae2:	57 07       	cpc	r21, r23
     ae4:	98 f0       	brcs	.+38     	; 0xb0c <.L157>

00000ae6 <.Loc.588>:
     ae6:	67 2b       	or	r22, r23
     ae8:	29 f4       	brne	.+10     	; 0xaf4 <.L146>

00000aea <.LBB362>:
     aea:	40 91 e8 00 	lds	r20, 0x00E8	; 0x8000e8 <__DATA_REGION_ORIGIN__+0x88>
     aee:	4e 77       	andi	r20, 0x7E	; 126
     af0:	40 93 e8 00 	sts	0x00E8, r20	; 0x8000e8 <__DATA_REGION_ORIGIN__+0x88>

00000af4 <.L146>:
     af4:	50 e0       	ldi	r21, 0x00	; 0

00000af6 <.L150>:
     af6:	21 15       	cp	r18, r1
     af8:	31 05       	cpc	r19, r1
     afa:	51 f4       	brne	.+20     	; 0xb10 <.L155>

00000afc <.Loc.598>:
     afc:	51 11       	cpse	r21, r1
     afe:	08 c0       	rjmp	.+16     	; 0xb10 <.L155>

00000b00 <.L168>:
     b00:	80 91 e8 00 	lds	r24, 0x00E8	; 0x8000e8 <__DATA_REGION_ORIGIN__+0x88>

00000b04 <.LBE371>:
     b04:	82 ff       	sbrs	r24, 2
     b06:	30 c0       	rjmp	.+96     	; 0xb68 <.L156>

00000b08 <.Loc.604>:
     b08:	80 e0       	ldi	r24, 0x00	; 0
     b0a:	08 95       	ret

00000b0c <.L157>:
     b0c:	9a 01       	movw	r18, r20

00000b0e <.LVL195>:
     b0e:	f2 cf       	rjmp	.-28     	; 0xaf4 <.L146>

00000b10 <.L155>:
     b10:	40 91 e8 00 	lds	r20, 0x00E8	; 0x8000e8 <__DATA_REGION_ORIGIN__+0x88>

00000b14 <.LBE373>:
     b14:	43 fd       	sbrc	r20, 3
     b16:	30 c0       	rjmp	.+96     	; 0xb78 <.L158>

00000b18 <.LBB375>:
     b18:	40 91 e8 00 	lds	r20, 0x00E8	; 0x8000e8 <__DATA_REGION_ORIGIN__+0x88>

00000b1c <.LBE375>:
     b1c:	42 fd       	sbrc	r20, 2
     b1e:	f0 cf       	rjmp	.-32     	; 0xb00 <.L168>

00000b20 <.Loc.617>:
     b20:	4e b3       	in	r20, 0x1e	; 30

00000b22 <.Loc.619>:
     b22:	44 23       	and	r20, r20
     b24:	59 f1       	breq	.+86     	; 0xb7c <.L161>

00000b26 <.Loc.620>:
     b26:	4e b3       	in	r20, 0x1e	; 30

00000b28 <.Loc.622>:
     b28:	45 30       	cpi	r20, 0x05	; 5
     b2a:	21 f1       	breq	.+72     	; 0xb74 <.L162>

00000b2c <.LBB377>:
     b2c:	40 91 e8 00 	lds	r20, 0x00E8	; 0x8000e8 <__DATA_REGION_ORIGIN__+0x88>

00000b30 <.LBE377>:
     b30:	40 ff       	sbrs	r20, 0
     b32:	e1 cf       	rjmp	.-62     	; 0xaf6 <.L150>

00000b34 <.LBB365>:
     b34:	40 91 f2 00 	lds	r20, 0x00F2	; 0x8000f2 <__DATA_REGION_ORIGIN__+0x92>

00000b38 <.L151>:
     b38:	21 15       	cp	r18, r1
     b3a:	31 05       	cpc	r19, r1
     b3c:	11 f0       	breq	.+4      	; 0xb42 <.L152>

00000b3e <.Loc.635>:
     b3e:	48 30       	cpi	r20, 0x08	; 8
     b40:	50 f0       	brcs	.+20     	; 0xb56 <.L153>

00000b42 <.L152>:
     b42:	51 e0       	ldi	r21, 0x01	; 1

00000b44 <.LVL198>:
     b44:	48 30       	cpi	r20, 0x08	; 8
     b46:	09 f0       	breq	.+2      	; 0xb4a <.L154>
     b48:	50 e0       	ldi	r21, 0x00	; 0

00000b4a <.L154>:
     b4a:	40 91 e8 00 	lds	r20, 0x00E8	; 0x8000e8 <__DATA_REGION_ORIGIN__+0x88>

00000b4e <.LVL200>:
     b4e:	4e 77       	andi	r20, 0x7E	; 126
     b50:	40 93 e8 00 	sts	0x00E8, r20	; 0x8000e8 <__DATA_REGION_ORIGIN__+0x88>

00000b54 <.LVL201>:
     b54:	d0 cf       	rjmp	.-96     	; 0xaf6 <.L150>

00000b56 <.L153>:
     b56:	fc 01       	movw	r30, r24

00000b58 <.LVL203>:
     b58:	81 91       	ld	r24, Z+

00000b5a <.LBB369>:
     b5a:	80 93 f1 00 	sts	0x00F1, r24	; 0x8000f1 <__DATA_REGION_ORIGIN__+0x91>

00000b5e <.LBE369>:
     b5e:	21 50       	subi	r18, 0x01	; 1
     b60:	31 09       	sbc	r19, r1

00000b62 <.Loc.654>:
     b62:	4f 5f       	subi	r20, 0xFF	; 255

00000b64 <.Loc.656>:
     b64:	cf 01       	movw	r24, r30
     b66:	e8 cf       	rjmp	.-48     	; 0xb38 <.L151>

00000b68 <.L156>:
     b68:	8e b3       	in	r24, 0x1e	; 30

00000b6a <.Loc.660>:
     b6a:	88 23       	and	r24, r24
     b6c:	39 f0       	breq	.+14     	; 0xb7c <.L161>

00000b6e <.Loc.661>:
     b6e:	8e b3       	in	r24, 0x1e	; 30

00000b70 <.Loc.663>:
     b70:	85 30       	cpi	r24, 0x05	; 5
     b72:	31 f6       	brne	.-116    	; 0xb00 <.L168>

00000b74 <.L162>:
     b74:	83 e0       	ldi	r24, 0x03	; 3

00000b76 <.Loc.665>:
     b76:	08 95       	ret

00000b78 <.L158>:
     b78:	81 e0       	ldi	r24, 0x01	; 1

00000b7a <.LVL210>:
     b7a:	08 95       	ret

00000b7c <.L161>:
     b7c:	82 e0       	ldi	r24, 0x02	; 2
     b7e:	08 95       	ret

00000b80 <Endpoint_Write_Control_PStream_LE>:
     b80:	9b 01       	movw	r18, r22

00000b82 <.LVL212>:
     b82:	40 91 80 02 	lds	r20, 0x0280	; 0x800280 <USB_ControlRequest+0x6>
     b86:	50 91 81 02 	lds	r21, 0x0281	; 0x800281 <USB_ControlRequest+0x7>

00000b8a <.Loc.675>:
     b8a:	46 17       	cp	r20, r22
     b8c:	57 07       	cpc	r21, r23
     b8e:	98 f0       	brcs	.+38     	; 0xbb6 <.L184>

00000b90 <.Loc.676>:
     b90:	67 2b       	or	r22, r23
     b92:	29 f4       	brne	.+10     	; 0xb9e <.L173>

00000b94 <.LBB380>:
     b94:	40 91 e8 00 	lds	r20, 0x00E8	; 0x8000e8 <__DATA_REGION_ORIGIN__+0x88>
     b98:	4e 77       	andi	r20, 0x7E	; 126
     b9a:	40 93 e8 00 	sts	0x00E8, r20	; 0x8000e8 <__DATA_REGION_ORIGIN__+0x88>

00000b9e <.L173>:
     b9e:	50 e0       	ldi	r21, 0x00	; 0

00000ba0 <.L177>:
     ba0:	21 15       	cp	r18, r1
     ba2:	31 05       	cpc	r19, r1
     ba4:	51 f4       	brne	.+20     	; 0xbba <.L182>

00000ba6 <.Loc.684>:
     ba6:	51 11       	cpse	r21, r1
     ba8:	08 c0       	rjmp	.+16     	; 0xbba <.L182>

00000baa <.L195>:
     baa:	80 91 e8 00 	lds	r24, 0x00E8	; 0x8000e8 <__DATA_REGION_ORIGIN__+0x88>

00000bae <.LBE382>:
     bae:	82 ff       	sbrs	r24, 2
     bb0:	31 c0       	rjmp	.+98     	; 0xc14 <.L183>

00000bb2 <.Loc.690>:
     bb2:	80 e0       	ldi	r24, 0x00	; 0
     bb4:	08 95       	ret

00000bb6 <.L184>:
     bb6:	9a 01       	movw	r18, r20

00000bb8 <.LVL216>:
     bb8:	f2 cf       	rjmp	.-28     	; 0xb9e <.L173>

00000bba <.L182>:
     bba:	40 91 e8 00 	lds	r20, 0x00E8	; 0x8000e8 <__DATA_REGION_ORIGIN__+0x88>

00000bbe <.LBE384>:
     bbe:	43 fd       	sbrc	r20, 3
     bc0:	31 c0       	rjmp	.+98     	; 0xc24 <.L185>

00000bc2 <.LBB386>:
     bc2:	40 91 e8 00 	lds	r20, 0x00E8	; 0x8000e8 <__DATA_REGION_ORIGIN__+0x88>

00000bc6 <.LBE386>:
     bc6:	42 fd       	sbrc	r20, 2
     bc8:	f0 cf       	rjmp	.-32     	; 0xbaa <.L195>

00000bca <.Loc.703>:
     bca:	4e b3       	in	r20, 0x1e	; 30

00000bcc <.Loc.705>:
     bcc:	44 23       	and	r20, r20
     bce:	61 f1       	breq	.+88     	; 0xc28 <.L188>

00000bd0 <.Loc.706>:
     bd0:	4e b3       	in	r20, 0x1e	; 30

00000bd2 <.Loc.708>:
     bd2:	45 30       	cpi	r20, 0x05	; 5
     bd4:	29 f1       	breq	.+74     	; 0xc20 <.L189>

00000bd6 <.LBB388>:
     bd6:	40 91 e8 00 	lds	r20, 0x00E8	; 0x8000e8 <__DATA_REGION_ORIGIN__+0x88>

00000bda <.LBE388>:
     bda:	40 ff       	sbrs	r20, 0
     bdc:	e1 cf       	rjmp	.-62     	; 0xba0 <.L177>

00000bde <.LBB390>:
     bde:	40 91 f2 00 	lds	r20, 0x00F2	; 0x8000f2 <__DATA_REGION_ORIGIN__+0x92>

00000be2 <.LBE391>:
     be2:	fc 01       	movw	r30, r24

00000be4 <.L178>:
     be4:	cf 01       	movw	r24, r30

00000be6 <.LVL220>:
     be6:	21 15       	cp	r18, r1
     be8:	31 05       	cpc	r19, r1
     bea:	11 f0       	breq	.+4      	; 0xbf0 <.L179>

00000bec <.Loc.722>:
     bec:	48 30       	cpi	r20, 0x08	; 8
     bee:	50 f0       	brcs	.+20     	; 0xc04 <.L180>

00000bf0 <.L179>:
     bf0:	51 e0       	ldi	r21, 0x01	; 1

00000bf2 <.LVL221>:
     bf2:	48 30       	cpi	r20, 0x08	; 8
     bf4:	09 f0       	breq	.+2      	; 0xbf8 <.L181>
     bf6:	50 e0       	ldi	r21, 0x00	; 0

00000bf8 <.L181>:
     bf8:	40 91 e8 00 	lds	r20, 0x00E8	; 0x8000e8 <__DATA_REGION_ORIGIN__+0x88>

00000bfc <.LVL223>:
     bfc:	4e 77       	andi	r20, 0x7E	; 126
     bfe:	40 93 e8 00 	sts	0x00E8, r20	; 0x8000e8 <__DATA_REGION_ORIGIN__+0x88>

00000c02 <.LVL224>:
     c02:	ce cf       	rjmp	.-100    	; 0xba0 <.L177>

00000c04 <.L180>:
     c04:	84 91       	lpm	r24, Z

00000c06 <.LBB396>:
     c06:	80 93 f1 00 	sts	0x00F1, r24	; 0x8000f1 <__DATA_REGION_ORIGIN__+0x91>

00000c0a <.LBE396>:
     c0a:	21 50       	subi	r18, 0x01	; 1
     c0c:	31 09       	sbc	r19, r1

00000c0e <.Loc.745>:
     c0e:	4f 5f       	subi	r20, 0xFF	; 255

00000c10 <.Loc.747>:
     c10:	31 96       	adiw	r30, 0x01	; 1

00000c12 <.LVL230>:
     c12:	e8 cf       	rjmp	.-48     	; 0xbe4 <.L178>

00000c14 <.L183>:
     c14:	8e b3       	in	r24, 0x1e	; 30

00000c16 <.Loc.752>:
     c16:	88 23       	and	r24, r24
     c18:	39 f0       	breq	.+14     	; 0xc28 <.L188>

00000c1a <.Loc.753>:
     c1a:	8e b3       	in	r24, 0x1e	; 30

00000c1c <.Loc.755>:
     c1c:	85 30       	cpi	r24, 0x05	; 5
     c1e:	29 f6       	brne	.-118    	; 0xbaa <.L195>

00000c20 <.L189>:
     c20:	83 e0       	ldi	r24, 0x03	; 3

00000c22 <.Loc.757>:
     c22:	08 95       	ret

00000c24 <.L185>:
     c24:	81 e0       	ldi	r24, 0x01	; 1

00000c26 <.LVL233>:
     c26:	08 95       	ret

00000c28 <.L188>:
     c28:	82 e0       	ldi	r24, 0x02	; 2
     c2a:	08 95       	ret

00000c2c <Endpoint_Read_Control_Stream_LE>:
     c2c:	9b 01       	movw	r18, r22

00000c2e <.LVL314>:
     c2e:	67 2b       	or	r22, r23
     c30:	29 f4       	brne	.+10     	; 0xc3c <.L312>

00000c32 <.L313>:
     c32:	40 91 e8 00 	lds	r20, 0x00E8	; 0x8000e8 <__DATA_REGION_ORIGIN__+0x88>
     c36:	4b 77       	andi	r20, 0x7B	; 123
     c38:	40 93 e8 00 	sts	0x00E8, r20	; 0x8000e8 <__DATA_REGION_ORIGIN__+0x88>

00000c3c <.L312>:
     c3c:	21 15       	cp	r18, r1
     c3e:	31 05       	cpc	r19, r1
     c40:	31 f4       	brne	.+12     	; 0xc4e <.L315>

00000c42 <.L316>:
     c42:	80 91 e8 00 	lds	r24, 0x00E8	; 0x8000e8 <__DATA_REGION_ORIGIN__+0x88>

00000c46 <.LBE471>:
     c46:	80 ff       	sbrs	r24, 0
     c48:	1d c0       	rjmp	.+58     	; 0xc84 <.L317>

00000c4a <.Loc.1131>:
     c4a:	80 e0       	ldi	r24, 0x00	; 0
     c4c:	08 95       	ret

00000c4e <.L315>:
     c4e:	40 91 e8 00 	lds	r20, 0x00E8	; 0x8000e8 <__DATA_REGION_ORIGIN__+0x88>

00000c52 <.LBE473>:
     c52:	43 fd       	sbrc	r20, 3
     c54:	1f c0       	rjmp	.+62     	; 0xc94 <.L318>

00000c56 <.Loc.1137>:
     c56:	4e b3       	in	r20, 0x1e	; 30

00000c58 <.Loc.1139>:
     c58:	44 23       	and	r20, r20
     c5a:	f1 f0       	breq	.+60     	; 0xc98 <.L322>

00000c5c <.Loc.1140>:
     c5c:	4e b3       	in	r20, 0x1e	; 30

00000c5e <.Loc.1142>:
     c5e:	45 30       	cpi	r20, 0x05	; 5
     c60:	b9 f0       	breq	.+46     	; 0xc90 <.L323>

00000c62 <.LBB475>:
     c62:	40 91 e8 00 	lds	r20, 0x00E8	; 0x8000e8 <__DATA_REGION_ORIGIN__+0x88>

00000c66 <.LBE475>:
     c66:	42 ff       	sbrs	r20, 2
     c68:	e9 cf       	rjmp	.-46     	; 0xc3c <.L312>

00000c6a <.L311>:
     c6a:	40 91 f2 00 	lds	r20, 0x00F2	; 0x8000f2 <__DATA_REGION_ORIGIN__+0x92>

00000c6e <.LBE477>:
     c6e:	44 23       	and	r20, r20
     c70:	01 f3       	breq	.-64     	; 0xc32 <.L313>

00000c72 <.Loc.1152>:
     c72:	fc 01       	movw	r30, r24

00000c74 <.LBB479>:
     c74:	80 91 f1 00 	lds	r24, 0x00F1	; 0x8000f1 <__DATA_REGION_ORIGIN__+0x91>

00000c78 <.LBE479>:
     c78:	81 93       	st	Z+, r24

00000c7a <.LVL322>:
     c7a:	21 50       	subi	r18, 0x01	; 1
     c7c:	31 09       	sbc	r19, r1

00000c7e <.Loc.1160>:
     c7e:	cf 01       	movw	r24, r30

00000c80 <.Loc.1162>:
     c80:	a1 f7       	brne	.-24     	; 0xc6a <.L311>
     c82:	d7 cf       	rjmp	.-82     	; 0xc32 <.L313>

00000c84 <.L317>:
     c84:	8e b3       	in	r24, 0x1e	; 30

00000c86 <.Loc.1165>:
     c86:	88 23       	and	r24, r24
     c88:	39 f0       	breq	.+14     	; 0xc98 <.L322>

00000c8a <.Loc.1166>:
     c8a:	8e b3       	in	r24, 0x1e	; 30

00000c8c <.Loc.1168>:
     c8c:	85 30       	cpi	r24, 0x05	; 5
     c8e:	c9 f6       	brne	.-78     	; 0xc42 <.L316>

00000c90 <.L323>:
     c90:	83 e0       	ldi	r24, 0x03	; 3

00000c92 <.Loc.1170>:
     c92:	08 95       	ret

00000c94 <.L318>:
     c94:	81 e0       	ldi	r24, 0x01	; 1

00000c96 <.LVL326>:
     c96:	08 95       	ret

00000c98 <.L322>:
     c98:	82 e0       	ldi	r24, 0x02	; 2
     c9a:	08 95       	ret

00000c9c <USB_ResetInterface>:
     c9c:	42 d0       	rcall	.+132    	; 0xd22 <USB_INT_DisableAllInterrupts>

00000c9e <.LVL0>:
     c9e:	44 d0       	rcall	.+136    	; 0xd28 <USB_INT_ClearAllInterrupts>

00000ca0 <.LVL1>:
     ca0:	1e ba       	out	0x1e, r1	; 30

00000ca2 <.Loc.5>:
     ca2:	10 92 78 02 	sts	0x0278, r1	; 0x800278 <USB_ConfigurationNumber>

00000ca6 <.Loc.7>:
     ca6:	10 92 77 02 	sts	0x0277, r1	; 0x800277 <USB_RemoteWakeupEnabled>

00000caa <.Loc.10>:
     caa:	10 92 76 02 	sts	0x0276, r1	; 0x800276 <USB_CurrentlySelfPowered>

00000cae <.LBB22>:
     cae:	84 e0       	ldi	r24, 0x04	; 4
     cb0:	89 bd       	out	0x29, r24	; 41

00000cb2 <.Loc.16>:
     cb2:	89 b5       	in	r24, 0x29	; 41
     cb4:	82 60       	ori	r24, 0x02	; 2
     cb6:	89 bd       	out	0x29, r24	; 41

00000cb8 <.L2>:
     cb8:	09 b4       	in	r0, 0x29	; 41
     cba:	00 fe       	sbrs	r0, 0
     cbc:	fd cf       	rjmp	.-6      	; 0xcb8 <.L2>

00000cbe <.LBB26>:
     cbe:	80 91 d8 00 	lds	r24, 0x00D8	; 0x8000d8 <__DATA_REGION_ORIGIN__+0x78>

00000cc2 <.LVL2>:
     cc2:	98 2f       	mov	r25, r24
     cc4:	9f 77       	andi	r25, 0x7F	; 127

00000cc6 <.Loc.29>:
     cc6:	90 93 d8 00 	sts	0x00D8, r25	; 0x8000d8 <__DATA_REGION_ORIGIN__+0x78>

00000cca <.Loc.30>:
     cca:	80 68       	ori	r24, 0x80	; 128

00000ccc <.LVL3>:
     ccc:	80 93 d8 00 	sts	0x00D8, r24	; 0x8000d8 <__DATA_REGION_ORIGIN__+0x78>

00000cd0 <.LBB28>:
     cd0:	80 91 63 00 	lds	r24, 0x0063	; 0x800063 <__DATA_REGION_ORIGIN__+0x3>
     cd4:	8e 7f       	andi	r24, 0xFE	; 254
     cd6:	80 93 63 00 	sts	0x0063, r24	; 0x800063 <__DATA_REGION_ORIGIN__+0x3>

00000cda <.LBB30>:
     cda:	80 91 d8 00 	lds	r24, 0x00D8	; 0x8000d8 <__DATA_REGION_ORIGIN__+0x78>
     cde:	8f 7d       	andi	r24, 0xDF	; 223
     ce0:	80 93 d8 00 	sts	0x00D8, r24	; 0x8000d8 <__DATA_REGION_ORIGIN__+0x78>

00000ce4 <.LBB32>:
     ce4:	80 91 e0 00 	lds	r24, 0x00E0	; 0x8000e0 <__DATA_REGION_ORIGIN__+0x80>
     ce8:	8e 7f       	andi	r24, 0xFE	; 254
     cea:	80 93 e0 00 	sts	0x00E0, r24	; 0x8000e0 <__DATA_REGION_ORIGIN__+0x80>

00000cee <.LBE32>:
     cee:	80 91 e1 00 	lds	r24, 0x00E1	; 0x8000e1 <__DATA_REGION_ORIGIN__+0x81>
     cf2:	8e 7f       	andi	r24, 0xFE	; 254
     cf4:	80 93 e1 00 	sts	0x00E1, r24	; 0x8000e1 <__DATA_REGION_ORIGIN__+0x81>

00000cf8 <.Loc.49>:
     cf8:	80 91 e2 00 	lds	r24, 0x00E2	; 0x8000e2 <__DATA_REGION_ORIGIN__+0x82>
     cfc:	81 60       	ori	r24, 0x01	; 1
     cfe:	80 93 e2 00 	sts	0x00E2, r24	; 0x8000e2 <__DATA_REGION_ORIGIN__+0x82>

00000d02 <.Loc.52>:
     d02:	80 91 e1 00 	lds	r24, 0x00E1	; 0x8000e1 <__DATA_REGION_ORIGIN__+0x81>
     d06:	87 7f       	andi	r24, 0xF7	; 247
     d08:	80 93 e1 00 	sts	0x00E1, r24	; 0x8000e1 <__DATA_REGION_ORIGIN__+0x81>

00000d0c <.Loc.55>:
     d0c:	80 91 e2 00 	lds	r24, 0x00E2	; 0x8000e2 <__DATA_REGION_ORIGIN__+0x82>
     d10:	88 60       	ori	r24, 0x08	; 8
     d12:	80 93 e2 00 	sts	0x00E2, r24	; 0x8000e2 <__DATA_REGION_ORIGIN__+0x82>

00000d16 <.Loc.58>:
     d16:	08 95       	ret

00000d18 <USB_Init>:
     d18:	c1 df       	rcall	.-126    	; 0xc9c <USB_ResetInterface>

00000d1a <.LVL4>:
     d1a:	81 e0       	ldi	r24, 0x01	; 1
     d1c:	80 93 79 02 	sts	0x0279, r24	; 0x800279 <USB_IsInitialized>

00000d20 <.Loc.64>:
     d20:	08 95       	ret

00000d22 <USB_INT_DisableAllInterrupts>:
     d22:	10 92 e2 00 	sts	0x00E2, r1	; 0x8000e2 <__DATA_REGION_ORIGIN__+0x82>

00000d26 <.Loc.3>:
     d26:	08 95       	ret

00000d28 <USB_INT_ClearAllInterrupts>:
     d28:	10 92 e1 00 	sts	0x00E1, r1	; 0x8000e1 <__DATA_REGION_ORIGIN__+0x81>

00000d2c <.Loc.7>:
     d2c:	08 95       	ret

00000d2e <__vector_11>:
     d2e:	1f 92       	push	r1

00000d30 <.LCFI0>:
     d30:	0f 92       	push	r0

00000d32 <.LCFI1>:
     d32:	0f b6       	in	r0, 0x3f	; 63
     d34:	0f 92       	push	r0
     d36:	11 24       	eor	r1, r1
     d38:	2f 93       	push	r18

00000d3a <.LCFI2>:
     d3a:	3f 93       	push	r19

00000d3c <.LCFI3>:
     d3c:	4f 93       	push	r20

00000d3e <.LCFI4>:
     d3e:	5f 93       	push	r21

00000d40 <.LCFI5>:
     d40:	6f 93       	push	r22

00000d42 <.LCFI6>:
     d42:	7f 93       	push	r23

00000d44 <.LCFI7>:
     d44:	8f 93       	push	r24

00000d46 <.LCFI8>:
     d46:	9f 93       	push	r25

00000d48 <.LCFI9>:
     d48:	af 93       	push	r26

00000d4a <.LCFI10>:
     d4a:	bf 93       	push	r27

00000d4c <.LCFI11>:
     d4c:	ef 93       	push	r30

00000d4e <.LCFI12>:
     d4e:	ff 93       	push	r31

00000d50 <.LCFI13>:
     d50:	80 91 e1 00 	lds	r24, 0x00E1	; 0x8000e1 <__DATA_REGION_ORIGIN__+0x81>

00000d54 <.Loc.11>:
     d54:	80 ff       	sbrs	r24, 0
     d56:	1b c0       	rjmp	.+54     	; 0xd8e <.L4>

00000d58 <.Loc.12>:
     d58:	80 91 e2 00 	lds	r24, 0x00E2	; 0x8000e2 <__DATA_REGION_ORIGIN__+0x82>

00000d5c <.Loc.13>:
     d5c:	80 ff       	sbrs	r24, 0
     d5e:	17 c0       	rjmp	.+46     	; 0xd8e <.L4>

00000d60 <.Loc.14>:
     d60:	80 91 e1 00 	lds	r24, 0x00E1	; 0x8000e1 <__DATA_REGION_ORIGIN__+0x81>
     d64:	8e 7f       	andi	r24, 0xFE	; 254
     d66:	80 93 e1 00 	sts	0x00E1, r24	; 0x8000e1 <__DATA_REGION_ORIGIN__+0x81>

00000d6a <.Loc.16>:
     d6a:	80 91 e2 00 	lds	r24, 0x00E2	; 0x8000e2 <__DATA_REGION_ORIGIN__+0x82>
     d6e:	8e 7f       	andi	r24, 0xFE	; 254
     d70:	80 93 e2 00 	sts	0x00E2, r24	; 0x8000e2 <__DATA_REGION_ORIGIN__+0x82>

00000d74 <.Loc.19>:
     d74:	80 91 e2 00 	lds	r24, 0x00E2	; 0x8000e2 <__DATA_REGION_ORIGIN__+0x82>
     d78:	80 61       	ori	r24, 0x10	; 16
     d7a:	80 93 e2 00 	sts	0x00E2, r24	; 0x8000e2 <__DATA_REGION_ORIGIN__+0x82>

00000d7e <.LBB50>:
     d7e:	80 91 d8 00 	lds	r24, 0x00D8	; 0x8000d8 <__DATA_REGION_ORIGIN__+0x78>
     d82:	80 62       	ori	r24, 0x20	; 32
     d84:	80 93 d8 00 	sts	0x00D8, r24	; 0x8000d8 <__DATA_REGION_ORIGIN__+0x78>

00000d88 <.LBB52>:
     d88:	19 bc       	out	0x29, r1	; 41

00000d8a <.LBE52>:
     d8a:	1e ba       	out	0x1e, r1	; 30

00000d8c <.Loc.34>:
     d8c:	66 dc       	rcall	.-1844   	; 0x65a <EVENT_USB_Device_Disconnect>

00000d8e <.L4>:
     d8e:	80 91 e1 00 	lds	r24, 0x00E1	; 0x8000e1 <__DATA_REGION_ORIGIN__+0x81>

00000d92 <.Loc.37>:
     d92:	84 ff       	sbrs	r24, 4
     d94:	27 c0       	rjmp	.+78     	; 0xde4 <.L5>

00000d96 <.Loc.38>:
     d96:	80 91 e2 00 	lds	r24, 0x00E2	; 0x8000e2 <__DATA_REGION_ORIGIN__+0x82>

00000d9a <.Loc.39>:
     d9a:	84 ff       	sbrs	r24, 4
     d9c:	23 c0       	rjmp	.+70     	; 0xde4 <.L5>

00000d9e <.LBB54>:
     d9e:	84 e0       	ldi	r24, 0x04	; 4
     da0:	89 bd       	out	0x29, r24	; 41

00000da2 <.Loc.45>:
     da2:	89 b5       	in	r24, 0x29	; 41
     da4:	82 60       	ori	r24, 0x02	; 2
     da6:	89 bd       	out	0x29, r24	; 41

00000da8 <.L6>:
     da8:	09 b4       	in	r0, 0x29	; 41
     daa:	00 fe       	sbrs	r0, 0
     dac:	fd cf       	rjmp	.-6      	; 0xda8 <.L6>

00000dae <.LBB58>:
     dae:	80 91 d8 00 	lds	r24, 0x00D8	; 0x8000d8 <__DATA_REGION_ORIGIN__+0x78>
     db2:	8f 7d       	andi	r24, 0xDF	; 223
     db4:	80 93 d8 00 	sts	0x00D8, r24	; 0x8000d8 <__DATA_REGION_ORIGIN__+0x78>

00000db8 <.LBE58>:
     db8:	80 91 e1 00 	lds	r24, 0x00E1	; 0x8000e1 <__DATA_REGION_ORIGIN__+0x81>
     dbc:	8f 7e       	andi	r24, 0xEF	; 239
     dbe:	80 93 e1 00 	sts	0x00E1, r24	; 0x8000e1 <__DATA_REGION_ORIGIN__+0x81>

00000dc2 <.Loc.58>:
     dc2:	80 91 e2 00 	lds	r24, 0x00E2	; 0x8000e2 <__DATA_REGION_ORIGIN__+0x82>
     dc6:	8f 7e       	andi	r24, 0xEF	; 239
     dc8:	80 93 e2 00 	sts	0x00E2, r24	; 0x8000e2 <__DATA_REGION_ORIGIN__+0x82>

00000dcc <.Loc.61>:
     dcc:	80 91 e2 00 	lds	r24, 0x00E2	; 0x8000e2 <__DATA_REGION_ORIGIN__+0x82>
     dd0:	81 60       	ori	r24, 0x01	; 1
     dd2:	80 93 e2 00 	sts	0x00E2, r24	; 0x8000e2 <__DATA_REGION_ORIGIN__+0x82>

00000dd6 <.Loc.64>:
     dd6:	80 91 78 02 	lds	r24, 0x0278	; 0x800278 <USB_ConfigurationNumber>
     dda:	81 11       	cpse	r24, r1
     ddc:	4d c0       	rjmp	.+154    	; 0xe78 <.L10>
     dde:	81 e0       	ldi	r24, 0x01	; 1

00000de0 <.L7>:
     de0:	8e bb       	out	0x1e, r24	; 30

00000de2 <.Loc.68>:
     de2:	3a dc       	rcall	.-1932   	; 0x658 <EVENT_USB_Device_Connect>

00000de4 <.L5>:
     de4:	80 91 e1 00 	lds	r24, 0x00E1	; 0x8000e1 <__DATA_REGION_ORIGIN__+0x81>

00000de8 <.Loc.71>:
     de8:	83 ff       	sbrs	r24, 3
     dea:	27 c0       	rjmp	.+78     	; 0xe3a <.L8>

00000dec <.Loc.72>:
     dec:	80 91 e2 00 	lds	r24, 0x00E2	; 0x8000e2 <__DATA_REGION_ORIGIN__+0x82>

00000df0 <.Loc.73>:
     df0:	83 ff       	sbrs	r24, 3
     df2:	23 c0       	rjmp	.+70     	; 0xe3a <.L8>

00000df4 <.Loc.74>:
     df4:	80 91 e1 00 	lds	r24, 0x00E1	; 0x8000e1 <__DATA_REGION_ORIGIN__+0x81>
     df8:	87 7f       	andi	r24, 0xF7	; 247
     dfa:	80 93 e1 00 	sts	0x00E1, r24	; 0x8000e1 <__DATA_REGION_ORIGIN__+0x81>

00000dfe <.Loc.76>:
     dfe:	82 e0       	ldi	r24, 0x02	; 2
     e00:	8e bb       	out	0x1e, r24	; 30

00000e02 <.Loc.79>:
     e02:	10 92 78 02 	sts	0x0278, r1	; 0x800278 <USB_ConfigurationNumber>

00000e06 <.Loc.81>:
     e06:	80 91 e1 00 	lds	r24, 0x00E1	; 0x8000e1 <__DATA_REGION_ORIGIN__+0x81>
     e0a:	8e 7f       	andi	r24, 0xFE	; 254
     e0c:	80 93 e1 00 	sts	0x00E1, r24	; 0x8000e1 <__DATA_REGION_ORIGIN__+0x81>

00000e10 <.Loc.83>:
     e10:	80 91 e2 00 	lds	r24, 0x00E2	; 0x8000e2 <__DATA_REGION_ORIGIN__+0x82>
     e14:	8e 7f       	andi	r24, 0xFE	; 254
     e16:	80 93 e2 00 	sts	0x00E2, r24	; 0x8000e2 <__DATA_REGION_ORIGIN__+0x82>

00000e1a <.Loc.86>:
     e1a:	80 91 e2 00 	lds	r24, 0x00E2	; 0x8000e2 <__DATA_REGION_ORIGIN__+0x82>
     e1e:	80 61       	ori	r24, 0x10	; 16
     e20:	80 93 e2 00 	sts	0x00E2, r24	; 0x8000e2 <__DATA_REGION_ORIGIN__+0x82>

00000e24 <.Loc.89>:
     e24:	83 dd       	rcall	.-1274   	; 0x92c <Endpoint_ClearEndpoints>

00000e26 <.LBB60>:
     e26:	42 e0       	ldi	r20, 0x02	; 2
     e28:	60 e0       	ldi	r22, 0x00	; 0
     e2a:	80 e0       	ldi	r24, 0x00	; 0
     e2c:	6c dd       	rcall	.-1320   	; 0x906 <Endpoint_ConfigureEndpoint_Prv>

00000e2e <.LBE62>:
     e2e:	80 91 f0 00 	lds	r24, 0x00F0	; 0x8000f0 <__DATA_REGION_ORIGIN__+0x90>
     e32:	88 60       	ori	r24, 0x08	; 8
     e34:	80 93 f0 00 	sts	0x00F0, r24	; 0x8000f0 <__DATA_REGION_ORIGIN__+0x90>

00000e38 <.Loc.100>:
     e38:	99 d1       	rcall	.+818    	; 0x116c <USB_Event_Stub>

00000e3a <.L8>:
     e3a:	80 91 e1 00 	lds	r24, 0x00E1	; 0x8000e1 <__DATA_REGION_ORIGIN__+0x81>

00000e3e <.Loc.104>:
     e3e:	82 ff       	sbrs	r24, 2
     e40:	0a c0       	rjmp	.+20     	; 0xe56 <.L3>

00000e42 <.Loc.105>:
     e42:	80 91 e2 00 	lds	r24, 0x00E2	; 0x8000e2 <__DATA_REGION_ORIGIN__+0x82>

00000e46 <.Loc.106>:
     e46:	82 ff       	sbrs	r24, 2
     e48:	06 c0       	rjmp	.+12     	; 0xe56 <.L3>

00000e4a <.Loc.107>:
     e4a:	80 91 e1 00 	lds	r24, 0x00E1	; 0x8000e1 <__DATA_REGION_ORIGIN__+0x81>
     e4e:	8b 7f       	andi	r24, 0xFB	; 251
     e50:	80 93 e1 00 	sts	0x00E1, r24	; 0x8000e1 <__DATA_REGION_ORIGIN__+0x81>

00000e54 <.Loc.109>:
     e54:	8b d1       	rcall	.+790    	; 0x116c <USB_Event_Stub>

00000e56 <.L3>:
     e56:	ff 91       	pop	r31
     e58:	ef 91       	pop	r30
     e5a:	bf 91       	pop	r27
     e5c:	af 91       	pop	r26
     e5e:	9f 91       	pop	r25
     e60:	8f 91       	pop	r24
     e62:	7f 91       	pop	r23
     e64:	6f 91       	pop	r22
     e66:	5f 91       	pop	r21
     e68:	4f 91       	pop	r20
     e6a:	3f 91       	pop	r19
     e6c:	2f 91       	pop	r18
     e6e:	0f 90       	pop	r0
     e70:	0f be       	out	0x3f, r0	; 63
     e72:	0f 90       	pop	r0
     e74:	1f 90       	pop	r1
     e76:	18 95       	reti

00000e78 <.L10>:
     e78:	84 e0       	ldi	r24, 0x04	; 4
     e7a:	b2 cf       	rjmp	.-156    	; 0xde0 <.L7>

00000e7c <__vector_12>:
     e7c:	1f 92       	push	r1

00000e7e <.LCFI14>:
     e7e:	0f 92       	push	r0

00000e80 <.LCFI15>:
     e80:	0f b6       	in	r0, 0x3f	; 63
     e82:	0f 92       	push	r0
     e84:	11 24       	eor	r1, r1
     e86:	ff 92       	push	r15

00000e88 <.LCFI16>:
     e88:	0f 93       	push	r16

00000e8a <.LCFI17>:
     e8a:	1f 93       	push	r17

00000e8c <.LCFI18>:
     e8c:	2f 93       	push	r18

00000e8e <.LCFI19>:
     e8e:	3f 93       	push	r19

00000e90 <.LCFI20>:
     e90:	4f 93       	push	r20

00000e92 <.LCFI21>:
     e92:	5f 93       	push	r21

00000e94 <.LCFI22>:
     e94:	6f 93       	push	r22

00000e96 <.LCFI23>:
     e96:	7f 93       	push	r23

00000e98 <.LCFI24>:
     e98:	8f 93       	push	r24

00000e9a <.LCFI25>:
     e9a:	9f 93       	push	r25

00000e9c <.LCFI26>:
     e9c:	af 93       	push	r26

00000e9e <.LCFI27>:
     e9e:	bf 93       	push	r27

00000ea0 <.LCFI28>:
     ea0:	cf 93       	push	r28

00000ea2 <.LCFI29>:
     ea2:	df 93       	push	r29

00000ea4 <.LCFI30>:
     ea4:	ef 93       	push	r30

00000ea6 <.LCFI31>:
     ea6:	ff 93       	push	r31

00000ea8 <.LBB76>:
     ea8:	c9 ee       	ldi	r28, 0xE9	; 233
     eaa:	d0 e0       	ldi	r29, 0x00	; 0
     eac:	88 81       	ld	r24, Y
     eae:	87 70       	andi	r24, 0x07	; 7
     eb0:	f8 2e       	mov	r15, r24

00000eb2 <.LBB78>:
     eb2:	18 82       	st	Y, r1

00000eb4 <.LBE78>:
     eb4:	00 ef       	ldi	r16, 0xF0	; 240
     eb6:	10 e0       	ldi	r17, 0x00	; 0
     eb8:	f8 01       	movw	r30, r16
     eba:	80 81       	ld	r24, Z
     ebc:	87 7f       	andi	r24, 0xF7	; 247
     ebe:	80 83       	st	Z, r24

00000ec0 <.LBB80>:
    sei();
     ec0:	78 94       	sei

00000ec2 <.LBE81>:
     ec2:	1d d0       	rcall	.+58     	; 0xefe <USB_Device_ProcessControlRequest>

00000ec4 <.LBB83>:
    cli();
     ec4:	f8 94       	cli

00000ec6 <.LBB85>:
     ec6:	18 82       	st	Y, r1

00000ec8 <.LBE85>:
     ec8:	f8 01       	movw	r30, r16
     eca:	80 81       	ld	r24, Z
     ecc:	88 60       	ori	r24, 0x08	; 8
     ece:	80 83       	st	Z, r24

00000ed0 <.LBB87>:
     ed0:	f8 82       	st	Y, r15

00000ed2 <.LBE87>:
     ed2:	ff 91       	pop	r31
     ed4:	ef 91       	pop	r30
     ed6:	df 91       	pop	r29
     ed8:	cf 91       	pop	r28
     eda:	bf 91       	pop	r27
     edc:	af 91       	pop	r26
     ede:	9f 91       	pop	r25
     ee0:	8f 91       	pop	r24
     ee2:	7f 91       	pop	r23
     ee4:	6f 91       	pop	r22
     ee6:	5f 91       	pop	r21
     ee8:	4f 91       	pop	r20
     eea:	3f 91       	pop	r19
     eec:	2f 91       	pop	r18
     eee:	1f 91       	pop	r17
     ef0:	0f 91       	pop	r16
     ef2:	ff 90       	pop	r15

00000ef4 <.LVL15>:
     ef4:	0f 90       	pop	r0
     ef6:	0f be       	out	0x3f, r0	; 63
     ef8:	0f 90       	pop	r0
     efa:	1f 90       	pop	r1
     efc:	18 95       	reti

00000efe <USB_Device_ProcessControlRequest>:
     efe:	1f 93       	push	r17

00000f00 <.LCFI0>:
     f00:	cf 93       	push	r28

00000f02 <.LCFI1>:
     f02:	df 93       	push	r29

00000f04 <.LCFI2>:
     f04:	cd b7       	in	r28, 0x3d	; 61
     f06:	de b7       	in	r29, 0x3e	; 62

00000f08 <.LCFI3>:
     f08:	aa 97       	sbiw	r28, 0x2a	; 42

00000f0a <.LCFI4>:
     f0a:	0f b6       	in	r0, 0x3f	; 63
     f0c:	f8 94       	cli
     f0e:	de bf       	out	0x3e, r29	; 62
     f10:	0f be       	out	0x3f, r0	; 63
     f12:	cd bf       	out	0x3d, r28	; 61

00000f14 <.LBB166>:
     f14:	8a e7       	ldi	r24, 0x7A	; 122
     f16:	92 e0       	ldi	r25, 0x02	; 2

00000f18 <.L2>:
     f18:	fc 01       	movw	r30, r24

00000f1a <.Loc.8>:
     f1a:	01 96       	adiw	r24, 0x01	; 1

00000f1c <.LBB167>:
     f1c:	20 91 f1 00 	lds	r18, 0x00F1	; 0x8000f1 <__DATA_REGION_ORIGIN__+0x91>

00000f20 <.LBE167>:
     f20:	20 83       	st	Z, r18

00000f22 <.Loc.13>:
     f22:	22 e0       	ldi	r18, 0x02	; 2
     f24:	82 38       	cpi	r24, 0x82	; 130
     f26:	92 07       	cpc	r25, r18
     f28:	b9 f7       	brne	.-18     	; 0xf18 <.L2>

00000f2a <.LBE169>:
     f2a:	80 91 7a 02 	lds	r24, 0x027A	; 0x80027a <USB_ControlRequest>

00000f2e <.LVL4>:
     f2e:	90 91 7b 02 	lds	r25, 0x027B	; 0x80027b <USB_ControlRequest+0x1>
     f32:	9a 30       	cpi	r25, 0x0A	; 10
     f34:	08 f0       	brcs	.+2      	; 0xf38 <L0^A+0x2>

00000f36 <L0^A>:
     f36:	04 c1       	rjmp	.+520    	; 0x1140 <.L3>
     f38:	e9 2f       	mov	r30, r25

00000f3a <.LVL5>:
     f3a:	f0 e0       	ldi	r31, 0x00	; 0
     f3c:	e7 55       	subi	r30, 0x57	; 87
     f3e:	f5 4f       	sbci	r31, 0xF5	; 245
     f40:	00 c3       	rjmp	.+1536   	; 0x1542 <__tablejump2__>

00000f42 <.L10>:
     f42:	80 38       	cpi	r24, 0x80	; 128
     f44:	81 f0       	breq	.+32     	; 0xf66 <.L11>

00000f46 <.Loc.23>:
     f46:	82 38       	cpi	r24, 0x82	; 130
     f48:	09 f0       	breq	.+2      	; 0xf4c <.LBB170>

00000f4a <L0^A>:
     f4a:	fa c0       	rjmp	.+500    	; 0x1140 <.L3>

00000f4c <.LBB170>:
     f4c:	80 91 7e 02 	lds	r24, 0x027E	; 0x80027e <USB_ControlRequest+0x4>

00000f50 <.LVL7>:
     f50:	87 70       	andi	r24, 0x07	; 7

00000f52 <.LBB172>:
     f52:	80 93 e9 00 	sts	0x00E9, r24	; 0x8000e9 <__DATA_REGION_ORIGIN__+0x89>

00000f56 <.LBB174>:
     f56:	80 91 eb 00 	lds	r24, 0x00EB	; 0x8000eb <__DATA_REGION_ORIGIN__+0x8b>

00000f5a <.Loc.38>:
     f5a:	85 fb       	bst	r24, 5
     f5c:	88 27       	eor	r24, r24
     f5e:	80 f9       	bld	r24, 0

00000f60 <.LBB176>:
     f60:	10 92 e9 00 	sts	0x00E9, r1	; 0x8000e9 <__DATA_REGION_ORIGIN__+0x89>

00000f64 <.Loc.44>:
     f64:	06 c0       	rjmp	.+12     	; 0xf72 <.L13>

00000f66 <.L11>:
     f66:	80 91 76 02 	lds	r24, 0x0276	; 0x800276 <USB_CurrentlySelfPowered>

00000f6a <.LVL12>:
     f6a:	90 91 77 02 	lds	r25, 0x0277	; 0x800277 <USB_RemoteWakeupEnabled>
     f6e:	91 11       	cpse	r25, r1

00000f70 <.Loc.50>:
     f70:	82 60       	ori	r24, 0x02	; 2

00000f72 <.L13>:
     f72:	90 91 e8 00 	lds	r25, 0x00E8	; 0x8000e8 <__DATA_REGION_ORIGIN__+0x88>
     f76:	97 7f       	andi	r25, 0xF7	; 247
     f78:	90 93 e8 00 	sts	0x00E8, r25	; 0x8000e8 <__DATA_REGION_ORIGIN__+0x88>

00000f7c <.LBB180>:
     f7c:	80 93 f1 00 	sts	0x00F1, r24	; 0x8000f1 <__DATA_REGION_ORIGIN__+0x91>

00000f80 <.Loc.60>:
     f80:	10 92 f1 00 	sts	0x00F1, r1	; 0x8000f1 <__DATA_REGION_ORIGIN__+0x91>

00000f84 <.L61>:
     f84:	80 91 e8 00 	lds	r24, 0x00E8	; 0x8000e8 <__DATA_REGION_ORIGIN__+0x88>
     f88:	8e 77       	andi	r24, 0x7E	; 126
     f8a:	ec c0       	rjmp	.+472    	; 0x1164 <.L60>

00000f8c <.L9>:
     f8c:	88 23       	and	r24, r24
     f8e:	09 f4       	brne	.+2      	; 0xf92 <.Loc.74>

00000f90 <L0^A>:
     f90:	d9 c0       	rjmp	.+434    	; 0x1144 <.L15>

00000f92 <.Loc.74>:
     f92:	82 30       	cpi	r24, 0x02	; 2
     f94:	09 f0       	breq	.+2      	; 0xf98 <.LBB196>

00000f96 <L0^A>:
     f96:	d4 c0       	rjmp	.+424    	; 0x1140 <.L3>

00000f98 <.LBB196>:
     f98:	80 91 7c 02 	lds	r24, 0x027C	; 0x80027c <USB_ControlRequest+0x2>

00000f9c <.LVL17>:
     f9c:	81 11       	cpse	r24, r1
     f9e:	dd c0       	rjmp	.+442    	; 0x115a <.L18>

00000fa0 <.LBB198>:
     fa0:	80 91 7e 02 	lds	r24, 0x027E	; 0x80027e <USB_ControlRequest+0x4>
     fa4:	87 70       	andi	r24, 0x07	; 7

00000fa6 <.LVL18>:
     fa6:	09 f4       	brne	.+2      	; 0xfaa <.LBB199>

00000fa8 <L0^A>:
     fa8:	3c c0       	rjmp	.+120    	; 0x1022 <.L14>

00000faa <.LBB199>:
     faa:	80 93 e9 00 	sts	0x00E9, r24	; 0x8000e9 <__DATA_REGION_ORIGIN__+0x89>

00000fae <.LBB201>:
     fae:	20 91 eb 00 	lds	r18, 0x00EB	; 0x8000eb <__DATA_REGION_ORIGIN__+0x8b>

00000fb2 <.LBE201>:
     fb2:	20 ff       	sbrs	r18, 0
     fb4:	36 c0       	rjmp	.+108    	; 0x1022 <.L14>

00000fb6 <.Loc.95>:
     fb6:	93 30       	cpi	r25, 0x03	; 3
     fb8:	31 f4       	brne	.+12     	; 0xfc6 <.L21>

00000fba <.LBB203>:
     fba:	80 91 eb 00 	lds	r24, 0x00EB	; 0x8000eb <__DATA_REGION_ORIGIN__+0x8b>

00000fbe <.LVL21>:
     fbe:	80 62       	ori	r24, 0x20	; 32

00000fc0 <.L59>:
     fc0:	80 93 eb 00 	sts	0x00EB, r24	; 0x8000eb <__DATA_REGION_ORIGIN__+0x8b>

00000fc4 <.Loc.104>:
     fc4:	ca c0       	rjmp	.+404    	; 0x115a <.L18>

00000fc6 <.L21>:
     fc6:	90 91 eb 00 	lds	r25, 0x00EB	; 0x8000eb <__DATA_REGION_ORIGIN__+0x8b>
     fca:	90 61       	ori	r25, 0x10	; 16
     fcc:	90 93 eb 00 	sts	0x00EB, r25	; 0x8000eb <__DATA_REGION_ORIGIN__+0x8b>

00000fd0 <.LBB210>:
     fd0:	21 e0       	ldi	r18, 0x01	; 1
     fd2:	30 e0       	ldi	r19, 0x00	; 0
     fd4:	01 c0       	rjmp	.+2      	; 0xfd8 <.L2^B1>

00000fd6 <.L1^B1>:
     fd6:	22 0f       	add	r18, r18

00000fd8 <.L2^B1>:
     fd8:	8a 95       	dec	r24
     fda:	ea f7       	brpl	.-6      	; 0xfd6 <.L1^B1>

00000fdc <.Loc.114>:
     fdc:	20 93 ea 00 	sts	0x00EA, r18	; 0x8000ea <__DATA_REGION_ORIGIN__+0x8a>

00000fe0 <.Loc.115>:
     fe0:	10 92 ea 00 	sts	0x00EA, r1	; 0x8000ea <__DATA_REGION_ORIGIN__+0x8a>

00000fe4 <.LBB212>:
     fe4:	80 91 eb 00 	lds	r24, 0x00EB	; 0x8000eb <__DATA_REGION_ORIGIN__+0x8b>

00000fe8 <.LVL26>:
     fe8:	88 60       	ori	r24, 0x08	; 8
     fea:	ea cf       	rjmp	.-44     	; 0xfc0 <.L59>

00000fec <.L8>:
     fec:	81 11       	cpse	r24, r1
     fee:	a8 c0       	rjmp	.+336    	; 0x1140 <.L3>

00000ff0 <.LBB218>:
     ff0:	10 91 7c 02 	lds	r17, 0x027C	; 0x80027c <USB_ControlRequest+0x2>

00000ff4 <.LBB220>:
     ff4:	80 91 e8 00 	lds	r24, 0x00E8	; 0x8000e8 <__DATA_REGION_ORIGIN__+0x88>

00000ff8 <.LVL29>:
     ff8:	87 7f       	andi	r24, 0xF7	; 247
     ffa:	80 93 e8 00 	sts	0x00E8, r24	; 0x8000e8 <__DATA_REGION_ORIGIN__+0x88>

00000ffe <.LBE220>:
     ffe:	aa dc       	rcall	.-1708   	; 0x954 <Endpoint_ClearStatusStage>

00001000 <.L22>:
    1000:	80 91 e8 00 	lds	r24, 0x00E8	; 0x8000e8 <__DATA_REGION_ORIGIN__+0x88>

00001004 <.LBE222>:
    1004:	80 ff       	sbrs	r24, 0
    1006:	0a c0       	rjmp	.+20     	; 0x101c <.L23>

00001008 <.Loc.143>:
    1008:	81 2f       	mov	r24, r17
    100a:	8f 77       	andi	r24, 0x7F	; 127

0000100c <.Loc.144>:
    100c:	92 e0       	ldi	r25, 0x02	; 2
    100e:	09 f0       	breq	.+2      	; 0x1012 <.L24>
    1010:	93 e0       	ldi	r25, 0x03	; 3

00001012 <.L24>:
    1012:	9e bb       	out	0x1e, r25	; 30

00001014 <.LBB224>:
    1014:	80 68       	ori	r24, 0x80	; 128

00001016 <.Loc.150>:
    1016:	80 93 e3 00 	sts	0x00E3, r24	; 0x8000e3 <__DATA_REGION_ORIGIN__+0x83>

0000101a <.Loc.151>:
    101a:	03 c0       	rjmp	.+6      	; 0x1022 <.L14>

0000101c <.L23>:
    101c:	8e b3       	in	r24, 0x1e	; 30

0000101e <.Loc.155>:
    101e:	81 11       	cpse	r24, r1
    1020:	ef cf       	rjmp	.-34     	; 0x1000 <.L22>

00001022 <.L14>:
    1022:	80 91 e8 00 	lds	r24, 0x00E8	; 0x8000e8 <__DATA_REGION_ORIGIN__+0x88>

00001026 <.LBE226>:
    1026:	83 ff       	sbrs	r24, 3
    1028:	0a c0       	rjmp	.+20     	; 0x103e <.L1>

0000102a <.LBB228>:
    102a:	80 91 eb 00 	lds	r24, 0x00EB	; 0x8000eb <__DATA_REGION_ORIGIN__+0x8b>
    102e:	80 62       	ori	r24, 0x20	; 32
    1030:	80 93 eb 00 	sts	0x00EB, r24	; 0x8000eb <__DATA_REGION_ORIGIN__+0x8b>

00001034 <.LBB230>:
    1034:	80 91 e8 00 	lds	r24, 0x00E8	; 0x8000e8 <__DATA_REGION_ORIGIN__+0x88>
    1038:	87 7f       	andi	r24, 0xF7	; 247
    103a:	80 93 e8 00 	sts	0x00E8, r24	; 0x8000e8 <__DATA_REGION_ORIGIN__+0x88>

0000103e <.L1>:
    103e:	aa 96       	adiw	r28, 0x2a	; 42
    1040:	0f b6       	in	r0, 0x3f	; 63
    1042:	f8 94       	cli
    1044:	de bf       	out	0x3e, r29	; 62
    1046:	0f be       	out	0x3f, r0	; 63
    1048:	cd bf       	out	0x3d, r28	; 61
    104a:	df 91       	pop	r29
    104c:	cf 91       	pop	r28
    104e:	1f 91       	pop	r17
    1050:	08 95       	ret

00001052 <.L7>:
    1052:	80 58       	subi	r24, 0x80	; 128

00001054 <.LVL36>:
    1054:	82 30       	cpi	r24, 0x02	; 2
    1056:	08 f0       	brcs	.+2      	; 0x105a <.LBB232>

00001058 <L0^A>:
    1058:	73 c0       	rjmp	.+230    	; 0x1140 <.L3>

0000105a <.LBB232>:
    105a:	80 91 7c 02 	lds	r24, 0x027C	; 0x80027c <USB_ControlRequest+0x2>
    105e:	90 91 7d 02 	lds	r25, 0x027D	; 0x80027d <USB_ControlRequest+0x3>

00001062 <.Loc.180>:
    1062:	8c 3d       	cpi	r24, 0xDC	; 220
    1064:	23 e0       	ldi	r18, 0x03	; 3
    1066:	92 07       	cpc	r25, r18
    1068:	99 f5       	brne	.+102    	; 0x10d0 <.L25>

0000106a <.LBB234>:
    106a:	83 e0       	ldi	r24, 0x03	; 3
    106c:	8a 83       	std	Y+2, r24	; 0x02

0000106e <.Loc.186>:
    106e:	8a e2       	ldi	r24, 0x2A	; 42
    1070:	89 83       	std	Y+1, r24	; 0x01

00001072 <.LBB236>:
    1072:	4f b7       	in	r20, 0x3f	; 63

00001074 <.LBB237>:
    cli();
    1074:	f8 94       	cli

00001076 <.LBB239>:
    1076:	de 01       	movw	r26, r28
    1078:	13 96       	adiw	r26, 0x03	; 3

0000107a <.Loc.197>:
    107a:	20 e0       	ldi	r18, 0x00	; 0

0000107c <.LBE236>:
    107c:	3e e0       	ldi	r19, 0x0E	; 14

0000107e <.LBB240>:
    107e:	51 e2       	ldi	r21, 0x21	; 33

00001080 <.L28>:
    1080:	e3 2f       	mov	r30, r19
    1082:	f0 e0       	ldi	r31, 0x00	; 0
    1084:	50 93 57 00 	sts	0x0057, r21	; 0x800057 <__EEPROM_REGION_LENGTH__+0x7f0057>
    1088:	e4 91       	lpm	r30, Z

0000108a <.LBE242>:
    108a:	20 ff       	sbrs	r18, 0
    108c:	03 c0       	rjmp	.+6      	; 0x1094 <.L26>

0000108e <.Loc.208>:
    108e:	e2 95       	swap	r30

00001090 <.LVL42>:
    1090:	ef 70       	andi	r30, 0x0F	; 15

00001092 <.LVL43>:
    1092:	3f 5f       	subi	r19, 0xFF	; 255

00001094 <.L26>:
    1094:	ef 70       	andi	r30, 0x0F	; 15

00001096 <.LVL45>:
    1096:	80 e3       	ldi	r24, 0x30	; 48
    1098:	8e 0f       	add	r24, r30

0000109a <.LVL46>:
    109a:	8a 33       	cpi	r24, 0x3A	; 58
    109c:	10 f0       	brcs	.+4      	; 0x10a2 <.L27>
    109e:	87 e3       	ldi	r24, 0x37	; 55

000010a0 <.LVL47>:
    10a0:	8e 0f       	add	r24, r30

000010a2 <.L27>:
    10a2:	90 e0       	ldi	r25, 0x00	; 0
    10a4:	8d 93       	st	X+, r24
    10a6:	9d 93       	st	X+, r25

000010a8 <.LBE240>:
    10a8:	2f 5f       	subi	r18, 0xFF	; 255

000010aa <.Loc.225>:
    10aa:	24 31       	cpi	r18, 0x14	; 20
    10ac:	49 f7       	brne	.-46     	; 0x1080 <.L28>

000010ae <.LBB246>:
    SREG = *__s;
    10ae:	4f bf       	out	0x3f, r20	; 63

000010b0 <.LBB249>:
    10b0:	80 91 e8 00 	lds	r24, 0x00E8	; 0x8000e8 <__DATA_REGION_ORIGIN__+0x88>
    10b4:	87 7f       	andi	r24, 0xF7	; 247
    10b6:	80 93 e8 00 	sts	0x00E8, r24	; 0x8000e8 <__DATA_REGION_ORIGIN__+0x88>

000010ba <.LBE249>:
    10ba:	6a e2       	ldi	r22, 0x2A	; 42
    10bc:	70 e0       	ldi	r23, 0x00	; 0
    10be:	ce 01       	movw	r24, r28
    10c0:	01 96       	adiw	r24, 0x01	; 1
    10c2:	09 dd       	rcall	.-1518   	; 0xad6 <Endpoint_Write_Control_Stream_LE>

000010c4 <.L62>:
    10c4:	80 91 e8 00 	lds	r24, 0x00E8	; 0x8000e8 <__DATA_REGION_ORIGIN__+0x88>
    10c8:	8b 77       	andi	r24, 0x7B	; 123
    10ca:	80 93 e8 00 	sts	0x00E8, r24	; 0x8000e8 <__DATA_REGION_ORIGIN__+0x88>

000010ce <.LBE253>:
    10ce:	a9 cf       	rjmp	.-174    	; 0x1022 <.L14>

000010d0 <.L25>:
    10d0:	ae 01       	movw	r20, r28
    10d2:	4f 5f       	subi	r20, 0xFF	; 255
    10d4:	5f 4f       	sbci	r21, 0xFF	; 255
    10d6:	60 91 7e 02 	lds	r22, 0x027E	; 0x80027e <USB_ControlRequest+0x4>
    10da:	9b db       	rcall	.-2250   	; 0x812 <CALLBACK_USB_GetDescriptor>

000010dc <.LVL55>:
    10dc:	bc 01       	movw	r22, r24

000010de <.LVL56>:
    10de:	89 2b       	or	r24, r25
    10e0:	09 f4       	brne	.+2      	; 0x10e4 <.LBB255>

000010e2 <L0^A>:
    10e2:	9f cf       	rjmp	.-194    	; 0x1022 <.L14>

000010e4 <.LBB255>:
    10e4:	80 91 e8 00 	lds	r24, 0x00E8	; 0x8000e8 <__DATA_REGION_ORIGIN__+0x88>
    10e8:	87 7f       	andi	r24, 0xF7	; 247
    10ea:	80 93 e8 00 	sts	0x00E8, r24	; 0x8000e8 <__DATA_REGION_ORIGIN__+0x88>

000010ee <.LBE255>:
    10ee:	89 81       	ldd	r24, Y+1	; 0x01
    10f0:	9a 81       	ldd	r25, Y+2	; 0x02
    10f2:	46 dd       	rcall	.-1396   	; 0xb80 <Endpoint_Write_Control_PStream_LE>

000010f4 <.LVL57>:
    10f4:	e7 cf       	rjmp	.-50     	; 0x10c4 <.L62>

000010f6 <.L6>:
    10f6:	80 38       	cpi	r24, 0x80	; 128
    10f8:	19 f5       	brne	.+70     	; 0x1140 <.L3>

000010fa <.LBB189>:
    10fa:	80 91 e8 00 	lds	r24, 0x00E8	; 0x8000e8 <__DATA_REGION_ORIGIN__+0x88>

000010fe <.LVL59>:
    10fe:	87 7f       	andi	r24, 0xF7	; 247
    1100:	80 93 e8 00 	sts	0x00E8, r24	; 0x8000e8 <__DATA_REGION_ORIGIN__+0x88>

00001104 <.LBE189>:
    1104:	80 91 78 02 	lds	r24, 0x0278	; 0x800278 <USB_ConfigurationNumber>

00001108 <.LBB191>:
    1108:	80 93 f1 00 	sts	0x00F1, r24	; 0x8000f1 <__DATA_REGION_ORIGIN__+0x91>
    110c:	3b cf       	rjmp	.-394    	; 0xf84 <.L61>

0000110e <.L4>:
    110e:	81 11       	cpse	r24, r1
    1110:	17 c0       	rjmp	.+46     	; 0x1140 <.L3>

00001112 <.LBB258>:
    1112:	90 91 7c 02 	lds	r25, 0x027C	; 0x80027c <USB_ControlRequest+0x2>
    1116:	92 30       	cpi	r25, 0x02	; 2
    1118:	08 f0       	brcs	.+2      	; 0x111c <.LBB260>

0000111a <L0^A>:
    111a:	83 cf       	rjmp	.-250    	; 0x1022 <.L14>

0000111c <.LBB260>:
    111c:	80 91 e8 00 	lds	r24, 0x00E8	; 0x8000e8 <__DATA_REGION_ORIGIN__+0x88>

00001120 <.LVL63>:
    1120:	87 7f       	andi	r24, 0xF7	; 247
    1122:	80 93 e8 00 	sts	0x00E8, r24	; 0x8000e8 <__DATA_REGION_ORIGIN__+0x88>

00001126 <.LBE260>:
    1126:	90 93 78 02 	sts	0x0278, r25	; 0x800278 <USB_ConfigurationNumber>

0000112a <.Loc.287>:
    112a:	14 dc       	rcall	.-2008   	; 0x954 <Endpoint_ClearStatusStage>

0000112c <.LVL65>:
    112c:	80 91 78 02 	lds	r24, 0x0278	; 0x800278 <USB_ConfigurationNumber>
    1130:	81 11       	cpse	r24, r1
    1132:	04 c0       	rjmp	.+8      	; 0x113c <.L35>
    1134:	83 e0       	ldi	r24, 0x03	; 3

00001136 <.L30>:
    1136:	8e bb       	out	0x1e, r24	; 30

00001138 <.Loc.290>:
    1138:	91 da       	rcall	.-2782   	; 0x65c <EVENT_USB_Device_ConfigurationChanged>

0000113a <.LVL66>:
    113a:	73 cf       	rjmp	.-282    	; 0x1022 <.L14>

0000113c <.L35>:
    113c:	84 e0       	ldi	r24, 0x04	; 4
    113e:	fb cf       	rjmp	.-10     	; 0x1136 <.L30>

00001140 <.L3>:
    1140:	97 da       	rcall	.-2770   	; 0x670 <EVENT_USB_Device_UnhandledControlRequest>

00001142 <.LVL68>:
    1142:	6f cf       	rjmp	.-290    	; 0x1022 <.L14>

00001144 <.L15>:
    1144:	80 91 7c 02 	lds	r24, 0x027C	; 0x80027c <USB_ControlRequest+0x2>

00001148 <.LVL70>:
    1148:	81 30       	cpi	r24, 0x01	; 1
    114a:	09 f0       	breq	.+2      	; 0x114e <.Loc.301>

0000114c <L0^A>:
    114c:	6a cf       	rjmp	.-300    	; 0x1022 <.L14>

0000114e <.Loc.301>:
    114e:	81 e0       	ldi	r24, 0x01	; 1
    1150:	93 30       	cpi	r25, 0x03	; 3
    1152:	09 f0       	breq	.+2      	; 0x1156 <.L17>
    1154:	80 e0       	ldi	r24, 0x00	; 0

00001156 <.L17>:
    1156:	80 93 77 02 	sts	0x0277, r24	; 0x800277 <USB_RemoteWakeupEnabled>

0000115a <.L18>:
    115a:	10 92 e9 00 	sts	0x00E9, r1	; 0x8000e9 <__DATA_REGION_ORIGIN__+0x89>

0000115e <.LBB215>:
    115e:	80 91 e8 00 	lds	r24, 0x00E8	; 0x8000e8 <__DATA_REGION_ORIGIN__+0x88>
    1162:	87 7f       	andi	r24, 0xF7	; 247

00001164 <.L60>:
    1164:	80 93 e8 00 	sts	0x00E8, r24	; 0x8000e8 <__DATA_REGION_ORIGIN__+0x88>

00001168 <.LBE193>:
    1168:	f5 db       	rcall	.-2070   	; 0x954 <Endpoint_ClearStatusStage>

0000116a <.LVL73>:
    116a:	5b cf       	rjmp	.-330    	; 0x1022 <.L14>

0000116c <USB_Event_Stub>:
    116c:	08 95       	ret

0000116e <USB_USBTask>:
    116e:	cf 93       	push	r28

00001170 <.LBB22>:
    1170:	8e b3       	in	r24, 0x1e	; 30

00001172 <.Loc.5>:
    1172:	88 23       	and	r24, r24
    1174:	59 f0       	breq	.+22     	; 0x118c <.L1>

00001176 <.LBB24>:
    1176:	c0 91 e9 00 	lds	r28, 0x00E9	; 0x8000e9 <__DATA_REGION_ORIGIN__+0x89>
    117a:	c7 70       	andi	r28, 0x07	; 7

0000117c <.LBB27>:
    117c:	10 92 e9 00 	sts	0x00E9, r1	; 0x8000e9 <__DATA_REGION_ORIGIN__+0x89>

00001180 <.LBB29>:
    1180:	80 91 e8 00 	lds	r24, 0x00E8	; 0x8000e8 <__DATA_REGION_ORIGIN__+0x88>

00001184 <.LBE29>:
    1184:	83 fd       	sbrc	r24, 3

00001186 <.Loc.21>:
    1186:	bb de       	rcall	.-650    	; 0xefe <USB_Device_ProcessControlRequest>

00001188 <.LBB31>:
    1188:	c0 93 e9 00 	sts	0x00E9, r28	; 0x8000e9 <__DATA_REGION_ORIGIN__+0x89>

0000118c <.L1>:
    118c:	cf 91       	pop	r28
    118e:	08 95       	ret

00001190 <CDC_Device_Event_Stub>:
    1190:	08 95       	ret

00001192 <CDC_Device_ProcessControlRequest>:
    1192:	cf 93       	push	r28

00001194 <.LCFI0>:
    1194:	df 93       	push	r29

00001196 <.LCFI1>:
    1196:	ec 01       	movw	r28, r24

00001198 <.LBB65>:
    1198:	80 91 e8 00 	lds	r24, 0x00E8	; 0x8000e8 <__DATA_REGION_ORIGIN__+0x88>

0000119c <.LBE65>:
    119c:	83 ff       	sbrs	r24, 3
    119e:	12 c0       	rjmp	.+36     	; 0x11c4 <.L2>

000011a0 <.Loc.10>:
    11a0:	28 81       	ld	r18, Y

000011a2 <.Loc.12>:
    11a2:	80 91 7e 02 	lds	r24, 0x027E	; 0x80027e <USB_ControlRequest+0x4>
    11a6:	90 91 7f 02 	lds	r25, 0x027F	; 0x80027f <USB_ControlRequest+0x5>
    11aa:	28 17       	cp	r18, r24
    11ac:	19 06       	cpc	r1, r25
    11ae:	51 f4       	brne	.+20     	; 0x11c4 <.L2>

000011b0 <.Loc.13>:
    11b0:	80 91 7b 02 	lds	r24, 0x027B	; 0x80027b <USB_ControlRequest+0x1>

000011b4 <.Loc.15>:
    11b4:	82 32       	cpi	r24, 0x22	; 34
    11b6:	09 f4       	brne	.+2      	; 0x11ba <L0^A+0x2>

000011b8 <L0^A>:
    11b8:	40 c0       	rjmp	.+128    	; 0x123a <.L4>
    11ba:	38 f4       	brcc	.+14     	; 0x11ca <.L5>
    11bc:	80 32       	cpi	r24, 0x20	; 32
    11be:	49 f1       	breq	.+82     	; 0x1212 <.L6>
    11c0:	81 32       	cpi	r24, 0x21	; 33
    11c2:	99 f0       	breq	.+38     	; 0x11ea <.L7>

000011c4 <.L2>:
    11c4:	df 91       	pop	r29
    11c6:	cf 91       	pop	r28

000011c8 <.LVL2>:
    11c8:	08 95       	ret

000011ca <.L5>:
    11ca:	83 32       	cpi	r24, 0x23	; 35
    11cc:	d9 f7       	brne	.-10     	; 0x11c4 <.L2>

000011ce <.Loc.19>:
    11ce:	80 91 7a 02 	lds	r24, 0x027A	; 0x80027a <USB_ControlRequest>
    11d2:	81 32       	cpi	r24, 0x21	; 33
    11d4:	b9 f7       	brne	.-18     	; 0x11c4 <.L2>

000011d6 <.LBB67>:
    11d6:	80 91 e8 00 	lds	r24, 0x00E8	; 0x8000e8 <__DATA_REGION_ORIGIN__+0x88>
    11da:	87 7f       	andi	r24, 0xF7	; 247
    11dc:	80 93 e8 00 	sts	0x00E8, r24	; 0x8000e8 <__DATA_REGION_ORIGIN__+0x88>

000011e0 <.LBE67>:
    11e0:	60 91 7c 02 	lds	r22, 0x027C	; 0x80027c <USB_ControlRequest+0x2>
    11e4:	ce 01       	movw	r24, r28
    11e6:	d4 df       	rcall	.-88     	; 0x1190 <CDC_Device_Event_Stub>

000011e8 <.LVL4>:
    11e8:	37 c0       	rjmp	.+110    	; 0x1258 <.L13>

000011ea <.L7>:
    11ea:	80 91 7a 02 	lds	r24, 0x027A	; 0x80027a <USB_ControlRequest>
    11ee:	81 3a       	cpi	r24, 0xA1	; 161
    11f0:	49 f7       	brne	.-46     	; 0x11c4 <.L2>

000011f2 <.LBB69>:
    11f2:	80 91 e8 00 	lds	r24, 0x00E8	; 0x8000e8 <__DATA_REGION_ORIGIN__+0x88>
    11f6:	87 7f       	andi	r24, 0xF7	; 247
    11f8:	80 93 e8 00 	sts	0x00E8, r24	; 0x8000e8 <__DATA_REGION_ORIGIN__+0x88>

000011fc <.LBE69>:
    11fc:	67 e0       	ldi	r22, 0x07	; 7
    11fe:	70 e0       	ldi	r23, 0x00	; 0
    1200:	ce 01       	movw	r24, r28
    1202:	0f 96       	adiw	r24, 0x0f	; 15
    1204:	68 dc       	rcall	.-1840   	; 0xad6 <Endpoint_Write_Control_Stream_LE>

00001206 <.LBB71>:
    1206:	80 91 e8 00 	lds	r24, 0x00E8	; 0x8000e8 <__DATA_REGION_ORIGIN__+0x88>
    120a:	8b 77       	andi	r24, 0x7B	; 123

0000120c <.L12>:
    120c:	80 93 e8 00 	sts	0x00E8, r24	; 0x8000e8 <__DATA_REGION_ORIGIN__+0x88>

00001210 <.Loc.39>:
    1210:	d9 cf       	rjmp	.-78     	; 0x11c4 <.L2>

00001212 <.L6>:
    1212:	80 91 7a 02 	lds	r24, 0x027A	; 0x80027a <USB_ControlRequest>
    1216:	81 32       	cpi	r24, 0x21	; 33
    1218:	a9 f6       	brne	.-86     	; 0x11c4 <.L2>

0000121a <.LBB76>:
    121a:	80 91 e8 00 	lds	r24, 0x00E8	; 0x8000e8 <__DATA_REGION_ORIGIN__+0x88>
    121e:	87 7f       	andi	r24, 0xF7	; 247
    1220:	80 93 e8 00 	sts	0x00E8, r24	; 0x8000e8 <__DATA_REGION_ORIGIN__+0x88>

00001224 <.LBE76>:
    1224:	67 e0       	ldi	r22, 0x07	; 7
    1226:	70 e0       	ldi	r23, 0x00	; 0
    1228:	ce 01       	movw	r24, r28
    122a:	0f 96       	adiw	r24, 0x0f	; 15
    122c:	ff dc       	rcall	.-1538   	; 0xc2c <Endpoint_Read_Control_Stream_LE>

0000122e <.LVL6>:
    122e:	ce 01       	movw	r24, r28
    1230:	27 da       	rcall	.-2994   	; 0x680 <EVENT_CDC_Device_LineEncodingChanged>

00001232 <.LBB78>:
    1232:	80 91 e8 00 	lds	r24, 0x00E8	; 0x8000e8 <__DATA_REGION_ORIGIN__+0x88>
    1236:	8e 77       	andi	r24, 0x7E	; 126
    1238:	e9 cf       	rjmp	.-46     	; 0x120c <.L12>

0000123a <.L4>:
    123a:	80 91 7a 02 	lds	r24, 0x027A	; 0x80027a <USB_ControlRequest>
    123e:	81 32       	cpi	r24, 0x21	; 33
    1240:	09 f0       	breq	.+2      	; 0x1244 <.LBB79>

00001242 <L0^A>:
    1242:	c0 cf       	rjmp	.-128    	; 0x11c4 <.L2>

00001244 <.LBB79>:
    1244:	80 91 e8 00 	lds	r24, 0x00E8	; 0x8000e8 <__DATA_REGION_ORIGIN__+0x88>
    1248:	87 7f       	andi	r24, 0xF7	; 247
    124a:	80 93 e8 00 	sts	0x00E8, r24	; 0x8000e8 <__DATA_REGION_ORIGIN__+0x88>

0000124e <.LBE79>:
    124e:	80 91 7c 02 	lds	r24, 0x027C	; 0x80027c <USB_ControlRequest+0x2>
    1252:	8d 87       	std	Y+13, r24	; 0x0d

00001254 <.Loc.61>:
    1254:	ce 01       	movw	r24, r28
    1256:	d5 da       	rcall	.-2646   	; 0x802 <EVENT_CDC_Device_ControLineStateChanged>

00001258 <.L13>:
    1258:	df 91       	pop	r29
    125a:	cf 91       	pop	r28

0000125c <.LVL9>:
    125c:	7b cb       	rjmp	.-2314   	; 0x954 <Endpoint_ClearStatusStage>

0000125e <CDC_Device_ConfigureEndpoints>:
    125e:	0f 93       	push	r16

00001260 <.LCFI2>:
    1260:	1f 93       	push	r17

00001262 <.LCFI3>:
    1262:	cf 93       	push	r28

00001264 <.LCFI4>:
    1264:	df 93       	push	r29

00001266 <.LCFI5>:
    1266:	ec 01       	movw	r28, r24

00001268 <.Loc.68>:
    1268:	fc 01       	movw	r30, r24
    126a:	3d 96       	adiw	r30, 0x0d	; 13
    126c:	89 e0       	ldi	r24, 0x09	; 9

0000126e <.LVL12>:
    126e:	df 01       	movw	r26, r30

00001270 <.L0^B1>:
    1270:	1d 92       	st	X+, r1
    1272:	8a 95       	dec	r24
    1274:	e9 f7       	brne	.-6      	; 0x1270 <.L0^B1>

00001276 <.Loc.70>:
    1276:	8a 81       	ldd	r24, Y+2	; 0x02
    1278:	9b 81       	ldd	r25, Y+3	; 0x03
    127a:	2c 81       	ldd	r18, Y+4	; 0x04
    127c:	10 e0       	ldi	r17, 0x00	; 0
    127e:	21 11       	cpse	r18, r1
    1280:	14 e0       	ldi	r17, 0x04	; 4

00001282 <.Loc.72>:
    1282:	09 81       	ldd	r16, Y+1	; 0x01

00001284 <.LBB99>:
    1284:	32 db       	rcall	.-2460   	; 0x8ea <Endpoint_BytesToEPSizeMaskDynamic>

00001286 <.LVL14>:
    1286:	41 2f       	mov	r20, r17
    1288:	48 2b       	or	r20, r24
    128a:	42 60       	ori	r20, 0x02	; 2
    128c:	61 e8       	ldi	r22, 0x81	; 129
    128e:	80 2f       	mov	r24, r16
    1290:	3a db       	rcall	.-2444   	; 0x906 <Endpoint_ConfigureEndpoint_Prv>

00001292 <.LBE99>:
    1292:	88 23       	and	r24, r24
    1294:	11 f1       	breq	.+68     	; 0x12da <.L17>

00001296 <.Loc.79>:
    1296:	8e 81       	ldd	r24, Y+6	; 0x06
    1298:	9f 81       	ldd	r25, Y+7	; 0x07
    129a:	28 85       	ldd	r18, Y+8	; 0x08
    129c:	10 e0       	ldi	r17, 0x00	; 0
    129e:	21 11       	cpse	r18, r1
    12a0:	14 e0       	ldi	r17, 0x04	; 4

000012a2 <.Loc.81>:
    12a2:	0d 81       	ldd	r16, Y+5	; 0x05

000012a4 <.LBB101>:
    12a4:	22 db       	rcall	.-2492   	; 0x8ea <Endpoint_BytesToEPSizeMaskDynamic>

000012a6 <.LVL17>:
    12a6:	41 2f       	mov	r20, r17
    12a8:	48 2b       	or	r20, r24
    12aa:	42 60       	ori	r20, 0x02	; 2
    12ac:	60 e8       	ldi	r22, 0x80	; 128
    12ae:	80 2f       	mov	r24, r16
    12b0:	2a db       	rcall	.-2476   	; 0x906 <Endpoint_ConfigureEndpoint_Prv>

000012b2 <.LBE101>:
    12b2:	88 23       	and	r24, r24
    12b4:	91 f0       	breq	.+36     	; 0x12da <.L17>

000012b6 <.Loc.88>:
    12b6:	8a 85       	ldd	r24, Y+10	; 0x0a
    12b8:	9b 85       	ldd	r25, Y+11	; 0x0b
    12ba:	2c 85       	ldd	r18, Y+12	; 0x0c
    12bc:	10 e0       	ldi	r17, 0x00	; 0
    12be:	21 11       	cpse	r18, r1
    12c0:	14 e0       	ldi	r17, 0x04	; 4

000012c2 <.Loc.90>:
    12c2:	c9 85       	ldd	r28, Y+9	; 0x09

000012c4 <.LBB103>:
    12c4:	12 db       	rcall	.-2524   	; 0x8ea <Endpoint_BytesToEPSizeMaskDynamic>

000012c6 <.LVL20>:
    12c6:	41 2f       	mov	r20, r17
    12c8:	48 2b       	or	r20, r24
    12ca:	42 60       	ori	r20, 0x02	; 2
    12cc:	61 ec       	ldi	r22, 0xC1	; 193
    12ce:	8c 2f       	mov	r24, r28

000012d0 <.LBE103>:
    12d0:	df 91       	pop	r29
    12d2:	cf 91       	pop	r28

000012d4 <.LVL21>:
    12d4:	1f 91       	pop	r17

000012d6 <.LVL22>:
    12d6:	0f 91       	pop	r16

000012d8 <.LBB106>:
    12d8:	16 cb       	rjmp	.-2516   	; 0x906 <Endpoint_ConfigureEndpoint_Prv>

000012da <.L17>:
    12da:	80 e0       	ldi	r24, 0x00	; 0
    12dc:	df 91       	pop	r29
    12de:	cf 91       	pop	r28

000012e0 <.LVL24>:
    12e0:	1f 91       	pop	r17
    12e2:	0f 91       	pop	r16
    12e4:	08 95       	ret

000012e6 <CDC_Device_SendByte>:
    12e6:	cf 93       	push	r28

000012e8 <.LCFI8>:
    12e8:	fc 01       	movw	r30, r24
    12ea:	c6 2f       	mov	r28, r22

000012ec <.Loc.122>:
    12ec:	8e b3       	in	r24, 0x1e	; 30

000012ee <.LVL34>:
    12ee:	84 30       	cpi	r24, 0x04	; 4
    12f0:	e9 f4       	brne	.+58     	; 0x132c <.L37>

000012f2 <.Loc.125>:
    12f2:	87 85       	ldd	r24, Z+15	; 0x0f
    12f4:	90 89       	ldd	r25, Z+16	; 0x10
    12f6:	a1 89       	ldd	r26, Z+17	; 0x11
    12f8:	b2 89       	ldd	r27, Z+18	; 0x12
    12fa:	89 2b       	or	r24, r25
    12fc:	8a 2b       	or	r24, r26
    12fe:	8b 2b       	or	r24, r27
    1300:	a9 f0       	breq	.+42     	; 0x132c <.L37>

00001302 <.Loc.126>:
    1302:	81 81       	ldd	r24, Z+1	; 0x01

00001304 <.LBB109>:
    1304:	80 93 e9 00 	sts	0x00E9, r24	; 0x8000e9 <__DATA_REGION_ORIGIN__+0x89>

00001308 <.LBB111>:
    1308:	80 91 e8 00 	lds	r24, 0x00E8	; 0x8000e8 <__DATA_REGION_ORIGIN__+0x88>

0000130c <.LBE111>:
    130c:	85 ff       	sbrs	r24, 5
    130e:	05 c0       	rjmp	.+10     	; 0x131a <.L34>

00001310 <.L35>:
    1310:	c0 93 f1 00 	sts	0x00F1, r28	; 0x8000f1 <__DATA_REGION_ORIGIN__+0x91>

00001314 <.LBE113>:
    1314:	80 e0       	ldi	r24, 0x00	; 0

00001316 <.L32>:
    1316:	cf 91       	pop	r28

00001318 <.LVL39>:
    1318:	08 95       	ret

0000131a <.L34>:
    131a:	80 91 e8 00 	lds	r24, 0x00E8	; 0x8000e8 <__DATA_REGION_ORIGIN__+0x88>
    131e:	8e 77       	andi	r24, 0x7E	; 126
    1320:	80 93 e8 00 	sts	0x00E8, r24	; 0x8000e8 <__DATA_REGION_ORIGIN__+0x88>

00001324 <.LBE116>:
    1324:	34 db       	rcall	.-2456   	; 0x98e <Endpoint_WaitUntilReady>

00001326 <.LVL41>:
    1326:	88 23       	and	r24, r24
    1328:	99 f3       	breq	.-26     	; 0x1310 <.L35>
    132a:	f5 cf       	rjmp	.-22     	; 0x1316 <.L32>

0000132c <.L37>:
    132c:	82 e0       	ldi	r24, 0x02	; 2
    132e:	f3 cf       	rjmp	.-26     	; 0x1316 <.L32>

00001330 <CDC_Device_Flush>:
    1330:	fc 01       	movw	r30, r24

00001332 <.Loc.165>:
    1332:	8e b3       	in	r24, 0x1e	; 30

00001334 <.LVL48>:
    1334:	84 30       	cpi	r24, 0x04	; 4
    1336:	19 f5       	brne	.+70     	; 0x137e <.L48>

00001338 <.Loc.168>:
    1338:	87 85       	ldd	r24, Z+15	; 0x0f
    133a:	90 89       	ldd	r25, Z+16	; 0x10
    133c:	a1 89       	ldd	r26, Z+17	; 0x11
    133e:	b2 89       	ldd	r27, Z+18	; 0x12
    1340:	89 2b       	or	r24, r25
    1342:	8a 2b       	or	r24, r26
    1344:	8b 2b       	or	r24, r27
    1346:	d9 f0       	breq	.+54     	; 0x137e <.L48>

00001348 <.Loc.169>:
    1348:	81 81       	ldd	r24, Z+1	; 0x01

0000134a <.LBB118>:
    134a:	80 93 e9 00 	sts	0x00E9, r24	; 0x8000e9 <__DATA_REGION_ORIGIN__+0x89>

0000134e <.LBB120>:
    134e:	80 91 f2 00 	lds	r24, 0x00F2	; 0x8000f2 <__DATA_REGION_ORIGIN__+0x92>

00001352 <.LBE120>:
    1352:	81 11       	cpse	r24, r1
    1354:	02 c0       	rjmp	.+4      	; 0x135a <.L45>

00001356 <.L46>:
    1356:	80 e0       	ldi	r24, 0x00	; 0
    1358:	08 95       	ret

0000135a <.L45>:
    135a:	90 91 e8 00 	lds	r25, 0x00E8	; 0x8000e8 <__DATA_REGION_ORIGIN__+0x88>

0000135e <.LBB124>:
    135e:	80 91 e8 00 	lds	r24, 0x00E8	; 0x8000e8 <__DATA_REGION_ORIGIN__+0x88>
    1362:	8e 77       	andi	r24, 0x7E	; 126
    1364:	80 93 e8 00 	sts	0x00E8, r24	; 0x8000e8 <__DATA_REGION_ORIGIN__+0x88>

00001368 <.LBE124>:
    1368:	95 fd       	sbrc	r25, 5
    136a:	f5 cf       	rjmp	.-22     	; 0x1356 <.L46>

0000136c <.Loc.192>:
    136c:	10 db       	rcall	.-2528   	; 0x98e <Endpoint_WaitUntilReady>

0000136e <.LVL52>:
    136e:	81 11       	cpse	r24, r1
    1370:	07 c0       	rjmp	.+14     	; 0x1380 <.L43>

00001372 <.LBB126>:
    1372:	90 91 e8 00 	lds	r25, 0x00E8	; 0x8000e8 <__DATA_REGION_ORIGIN__+0x88>
    1376:	9e 77       	andi	r25, 0x7E	; 126
    1378:	90 93 e8 00 	sts	0x00E8, r25	; 0x8000e8 <__DATA_REGION_ORIGIN__+0x88>

0000137c <.Loc.199>:
    137c:	08 95       	ret

0000137e <.L48>:
    137e:	82 e0       	ldi	r24, 0x02	; 2

00001380 <.L43>:
    1380:	08 95       	ret

00001382 <CDC_Device_USBTask>:
    1382:	fc 01       	movw	r30, r24

00001384 <.Loc.205>:
    1384:	8e b3       	in	r24, 0x1e	; 30

00001386 <.LVL56>:
    1386:	84 30       	cpi	r24, 0x04	; 4
    1388:	51 f4       	brne	.+20     	; 0x139e <.L49>

0000138a <.Loc.208>:
    138a:	87 85       	ldd	r24, Z+15	; 0x0f
    138c:	90 89       	ldd	r25, Z+16	; 0x10
    138e:	a1 89       	ldd	r26, Z+17	; 0x11
    1390:	b2 89       	ldd	r27, Z+18	; 0x12
    1392:	89 2b       	or	r24, r25
    1394:	8a 2b       	or	r24, r26
    1396:	8b 2b       	or	r24, r27
    1398:	11 f0       	breq	.+4      	; 0x139e <.L49>

0000139a <.Loc.209>:
    139a:	cf 01       	movw	r24, r30
    139c:	c9 cf       	rjmp	.-110    	; 0x1330 <CDC_Device_Flush>

0000139e <.L49>:
    139e:	08 95       	ret

000013a0 <CDC_Device_ReceiveByte>:
    13a0:	fc 01       	movw	r30, r24

000013a2 <.Loc.245>:
    13a2:	8e b3       	in	r24, 0x1e	; 30

000013a4 <.LVL63>:
    13a4:	84 30       	cpi	r24, 0x04	; 4
    13a6:	19 f0       	breq	.+6      	; 0x13ae <.L67>

000013a8 <.L69>:
    13a8:	8f ef       	ldi	r24, 0xFF	; 255
    13aa:	9f ef       	ldi	r25, 0xFF	; 255
    13ac:	08 95       	ret

000013ae <.L67>:
    13ae:	87 85       	ldd	r24, Z+15	; 0x0f
    13b0:	90 89       	ldd	r25, Z+16	; 0x10
    13b2:	a1 89       	ldd	r26, Z+17	; 0x11
    13b4:	b2 89       	ldd	r27, Z+18	; 0x12
    13b6:	89 2b       	or	r24, r25
    13b8:	8a 2b       	or	r24, r26
    13ba:	8b 2b       	or	r24, r27
    13bc:	a9 f3       	breq	.-22     	; 0x13a8 <.L69>

000013be <.LVL64>:
    13be:	85 81       	ldd	r24, Z+5	; 0x05

000013c0 <.LBB138>:
    13c0:	80 93 e9 00 	sts	0x00E9, r24	; 0x8000e9 <__DATA_REGION_ORIGIN__+0x89>

000013c4 <.LBB140>:
    13c4:	80 91 e8 00 	lds	r24, 0x00E8	; 0x8000e8 <__DATA_REGION_ORIGIN__+0x88>

000013c8 <.LBE140>:
    13c8:	82 ff       	sbrs	r24, 2
    13ca:	ee cf       	rjmp	.-36     	; 0x13a8 <.L69>

000013cc <.LBB142>:
    13cc:	80 91 f2 00 	lds	r24, 0x00F2	; 0x8000f2 <__DATA_REGION_ORIGIN__+0x92>

000013d0 <.LBE142>:
    13d0:	88 23       	and	r24, r24
    13d2:	69 f0       	breq	.+26     	; 0x13ee <.L71>

000013d4 <.LBB144>:
    13d4:	80 91 f1 00 	lds	r24, 0x00F1	; 0x8000f1 <__DATA_REGION_ORIGIN__+0x91>

000013d8 <.LBE144>:
    13d8:	90 e0       	ldi	r25, 0x00	; 0

000013da <.L70>:
    13da:	20 91 f2 00 	lds	r18, 0x00F2	; 0x8000f2 <__DATA_REGION_ORIGIN__+0x92>

000013de <.LBE146>:
    13de:	21 11       	cpse	r18, r1
    13e0:	05 c0       	rjmp	.+10     	; 0x13ec <.L66>

000013e2 <.LBB148>:
    13e2:	20 91 e8 00 	lds	r18, 0x00E8	; 0x8000e8 <__DATA_REGION_ORIGIN__+0x88>
    13e6:	2b 77       	andi	r18, 0x7B	; 123
    13e8:	20 93 e8 00 	sts	0x00E8, r18	; 0x8000e8 <__DATA_REGION_ORIGIN__+0x88>

000013ec <.L66>:
    13ec:	08 95       	ret

000013ee <.L71>:
    13ee:	8f ef       	ldi	r24, 0xFF	; 255
    13f0:	9f ef       	ldi	r25, 0xFF	; 255
    13f2:	f3 cf       	rjmp	.-26     	; 0x13da <.L70>

000013f4 <MIDI_Device_ConfigureEndpoints>:
    13f4:	0f 93       	push	r16

000013f6 <.LCFI0>:
    13f6:	1f 93       	push	r17

000013f8 <.LCFI1>:
    13f8:	cf 93       	push	r28

000013fa <.LCFI2>:
    13fa:	df 93       	push	r29

000013fc <.LCFI3>:
    13fc:	ec 01       	movw	r28, r24

000013fe <.Loc.2>:
    13fe:	09 81       	ldd	r16, Y+1	; 0x01

00001400 <.Loc.5>:
    1400:	01 11       	cpse	r16, r1
    1402:	15 c0       	rjmp	.+42     	; 0x142e <.L2>

00001404 <.L6>:
    1404:	1d 81       	ldd	r17, Y+5	; 0x05

00001406 <.Loc.8>:
    1406:	81 e0       	ldi	r24, 0x01	; 1

00001408 <.Loc.9>:
    1408:	11 23       	and	r17, r17
    140a:	01 f1       	breq	.+64     	; 0x144c <.L1>

0000140c <.Loc.10>:
    140c:	8e 81       	ldd	r24, Y+6	; 0x06
    140e:	9f 81       	ldd	r25, Y+7	; 0x07
    1410:	28 85       	ldd	r18, Y+8	; 0x08
    1412:	c0 e0       	ldi	r28, 0x00	; 0

00001414 <.LVL2>:
    1414:	21 11       	cpse	r18, r1
    1416:	c4 e0       	ldi	r28, 0x04	; 4

00001418 <.LBB41>:
    1418:	68 da       	rcall	.-2864   	; 0x8ea <Endpoint_BytesToEPSizeMaskDynamic>

0000141a <.LVL4>:
    141a:	4c 2f       	mov	r20, r28
    141c:	48 2b       	or	r20, r24
    141e:	42 60       	ori	r20, 0x02	; 2
    1420:	60 e8       	ldi	r22, 0x80	; 128
    1422:	81 2f       	mov	r24, r17

00001424 <.LBE41>:
    1424:	df 91       	pop	r29
    1426:	cf 91       	pop	r28

00001428 <.LVL5>:
    1428:	1f 91       	pop	r17

0000142a <.LVL6>:
    142a:	0f 91       	pop	r16

0000142c <.LBB44>:
    142c:	6c ca       	rjmp	.-2856   	; 0x906 <Endpoint_ConfigureEndpoint_Prv>

0000142e <.L2>:
    142e:	8a 81       	ldd	r24, Y+2	; 0x02
    1430:	9b 81       	ldd	r25, Y+3	; 0x03

00001432 <.LVL8>:
    1432:	2c 81       	ldd	r18, Y+4	; 0x04
    1434:	10 e0       	ldi	r17, 0x00	; 0
    1436:	21 11       	cpse	r18, r1
    1438:	14 e0       	ldi	r17, 0x04	; 4

0000143a <.LBB45>:
    143a:	57 da       	rcall	.-2898   	; 0x8ea <Endpoint_BytesToEPSizeMaskDynamic>

0000143c <.LVL10>:
    143c:	41 2f       	mov	r20, r17
    143e:	48 2b       	or	r20, r24
    1440:	42 60       	ori	r20, 0x02	; 2
    1442:	61 e8       	ldi	r22, 0x81	; 129
    1444:	80 2f       	mov	r24, r16
    1446:	5f da       	rcall	.-2882   	; 0x906 <Endpoint_ConfigureEndpoint_Prv>

00001448 <.LBE45>:
    1448:	81 11       	cpse	r24, r1
    144a:	dc cf       	rjmp	.-72     	; 0x1404 <.L6>

0000144c <.L1>:
    144c:	df 91       	pop	r29
    144e:	cf 91       	pop	r28

00001450 <.LVL12>:
    1450:	1f 91       	pop	r17
    1452:	0f 91       	pop	r16
    1454:	08 95       	ret

00001456 <MIDI_Device_SendEventPacket>:
    1456:	fc 01       	movw	r30, r24
    1458:	cb 01       	movw	r24, r22

0000145a <.LVL14>:
    145a:	2e b3       	in	r18, 0x1e	; 30

0000145c <.Loc.37>:
    145c:	24 30       	cpi	r18, 0x04	; 4
    145e:	e1 f4       	brne	.+56     	; 0x1498 <.L14>

00001460 <.Loc.38>:
    1460:	21 81       	ldd	r18, Z+1	; 0x01

00001462 <.LBB47>:
    1462:	20 93 e9 00 	sts	0x00E9, r18	; 0x8000e9 <__DATA_REGION_ORIGIN__+0x89>

00001466 <.LBB49>:
    1466:	20 91 e8 00 	lds	r18, 0x00E8	; 0x8000e8 <__DATA_REGION_ORIGIN__+0x88>

0000146a <.LBE49>:
    146a:	25 fd       	sbrc	r18, 5
    146c:	02 c0       	rjmp	.+4      	; 0x1472 <.L12>

0000146e <.L13>:
    146e:	80 e0       	ldi	r24, 0x00	; 0
    1470:	08 95       	ret

00001472 <.L12>:
    1472:	50 e0       	ldi	r21, 0x00	; 0
    1474:	40 e0       	ldi	r20, 0x00	; 0
    1476:	64 e0       	ldi	r22, 0x04	; 4
    1478:	70 e0       	ldi	r23, 0x00	; 0

0000147a <.LVL19>:
    147a:	b7 da       	rcall	.-2706   	; 0x9ea <Endpoint_Write_Stream_LE>

0000147c <.LVL20>:
    147c:	81 11       	cpse	r24, r1
    147e:	0d c0       	rjmp	.+26     	; 0x149a <.L10>

00001480 <.LBB52>:
    1480:	90 91 e8 00 	lds	r25, 0x00E8	; 0x8000e8 <__DATA_REGION_ORIGIN__+0x88>

00001484 <.LBE52>:
    1484:	89 2f       	mov	r24, r25

00001486 <.LVL21>:
    1486:	80 72       	andi	r24, 0x20	; 32
    1488:	95 fd       	sbrc	r25, 5
    148a:	f1 cf       	rjmp	.-30     	; 0x146e <.L13>

0000148c <.LBB54>:
    148c:	90 91 e8 00 	lds	r25, 0x00E8	; 0x8000e8 <__DATA_REGION_ORIGIN__+0x88>
    1490:	9e 77       	andi	r25, 0x7E	; 126
    1492:	90 93 e8 00 	sts	0x00E8, r25	; 0x8000e8 <__DATA_REGION_ORIGIN__+0x88>

00001496 <.Loc.64>:
    1496:	08 95       	ret

00001498 <.L14>:
    1498:	82 e0       	ldi	r24, 0x02	; 2

0000149a <.L10>:
    149a:	08 95       	ret

0000149c <MIDI_Device_Flush>:
    149c:	fc 01       	movw	r30, r24

0000149e <.Loc.70>:
    149e:	8e b3       	in	r24, 0x1e	; 30

000014a0 <.LVL25>:
    14a0:	84 30       	cpi	r24, 0x04	; 4
    14a2:	69 f4       	brne	.+26     	; 0x14be <.L17>

000014a4 <.Loc.73>:
    14a4:	81 81       	ldd	r24, Z+1	; 0x01

000014a6 <.LBB56>:
    14a6:	80 93 e9 00 	sts	0x00E9, r24	; 0x8000e9 <__DATA_REGION_ORIGIN__+0x89>

000014aa <.LBB58>:
    14aa:	80 91 f2 00 	lds	r24, 0x00F2	; 0x8000f2 <__DATA_REGION_ORIGIN__+0x92>

000014ae <.LBE58>:
    14ae:	88 23       	and	r24, r24
    14b0:	39 f0       	breq	.+14     	; 0x14c0 <.L15>

000014b2 <.LBB60>:
    14b2:	80 91 e8 00 	lds	r24, 0x00E8	; 0x8000e8 <__DATA_REGION_ORIGIN__+0x88>
    14b6:	8e 77       	andi	r24, 0x7E	; 126
    14b8:	80 93 e8 00 	sts	0x00E8, r24	; 0x8000e8 <__DATA_REGION_ORIGIN__+0x88>

000014bc <.LBE60>:
    14bc:	68 ca       	rjmp	.-2864   	; 0x98e <Endpoint_WaitUntilReady>

000014be <.L17>:
    14be:	82 e0       	ldi	r24, 0x02	; 2

000014c0 <.L15>:
    14c0:	08 95       	ret

000014c2 <MIDI_Device_ReceiveEventPacket>:
    14c2:	fc 01       	movw	r30, r24
    14c4:	cb 01       	movw	r24, r22

000014c6 <.LVL30>:
    14c6:	2e b3       	in	r18, 0x1e	; 30

000014c8 <.Loc.96>:
    14c8:	24 30       	cpi	r18, 0x04	; 4
    14ca:	11 f0       	breq	.+4      	; 0x14d0 <.L22>

000014cc <.L24>:
    14cc:	80 e0       	ldi	r24, 0x00	; 0
    14ce:	08 95       	ret

000014d0 <.L22>:
    14d0:	25 81       	ldd	r18, Z+5	; 0x05

000014d2 <.LBB62>:
    14d2:	20 93 e9 00 	sts	0x00E9, r18	; 0x8000e9 <__DATA_REGION_ORIGIN__+0x89>

000014d6 <.LBB64>:
    14d6:	20 91 e8 00 	lds	r18, 0x00E8	; 0x8000e8 <__DATA_REGION_ORIGIN__+0x88>

000014da <.LBE64>:
    14da:	25 ff       	sbrs	r18, 5
    14dc:	f7 cf       	rjmp	.-18     	; 0x14cc <.L24>

000014de <.Loc.108>:
    14de:	50 e0       	ldi	r21, 0x00	; 0
    14e0:	40 e0       	ldi	r20, 0x00	; 0
    14e2:	64 e0       	ldi	r22, 0x04	; 4
    14e4:	70 e0       	ldi	r23, 0x00	; 0

000014e6 <.LVL33>:
    14e6:	bc da       	rcall	.-2696   	; 0xa60 <Endpoint_Read_Stream_LE>

000014e8 <.LBB66>:
    14e8:	80 91 e8 00 	lds	r24, 0x00E8	; 0x8000e8 <__DATA_REGION_ORIGIN__+0x88>

000014ec <.LBE66>:
    14ec:	85 fd       	sbrc	r24, 5
    14ee:	05 c0       	rjmp	.+10     	; 0x14fa <.L25>

000014f0 <.LBB68>:
    14f0:	80 91 e8 00 	lds	r24, 0x00E8	; 0x8000e8 <__DATA_REGION_ORIGIN__+0x88>
    14f4:	8b 77       	andi	r24, 0x7B	; 123
    14f6:	80 93 e8 00 	sts	0x00E8, r24	; 0x8000e8 <__DATA_REGION_ORIGIN__+0x88>

000014fa <.L25>:
    14fa:	81 e0       	ldi	r24, 0x01	; 1

000014fc <.Loc.120>:
    14fc:	08 95       	ret

000014fe <__udivmodsi4>:
    14fe:	a1 e2       	ldi	r26, 0x21	; 33

00001500 <.Loc.1>:
    1500:	1a 2e       	mov	r1, r26

00001502 <.Loc.2>:
    1502:	aa 1b       	sub	r26, r26

00001504 <.Loc.3>:
    1504:	bb 1b       	sub	r27, r27

00001506 <.Loc.4>:
    1506:	fd 01       	movw	r30, r26

00001508 <.Loc.5>:
    1508:	0d c0       	rjmp	.+26     	; 0x1524 <__udivmodsi4_ep>

0000150a <__udivmodsi4_loop>:
    150a:	aa 1f       	adc	r26, r26

0000150c <.Loc.7>:
    150c:	bb 1f       	adc	r27, r27

0000150e <.Loc.8>:
    150e:	ee 1f       	adc	r30, r30

00001510 <.Loc.9>:
    1510:	ff 1f       	adc	r31, r31

00001512 <.Loc.10>:
    1512:	a2 17       	cp	r26, r18

00001514 <.Loc.11>:
    1514:	b3 07       	cpc	r27, r19

00001516 <.Loc.12>:
    1516:	e4 07       	cpc	r30, r20

00001518 <.Loc.13>:
    1518:	f5 07       	cpc	r31, r21

0000151a <.Loc.14>:
    151a:	20 f0       	brcs	.+8      	; 0x1524 <__udivmodsi4_ep>

0000151c <.Loc.15>:
    151c:	a2 1b       	sub	r26, r18

0000151e <.Loc.16>:
    151e:	b3 0b       	sbc	r27, r19

00001520 <.Loc.17>:
    1520:	e4 0b       	sbc	r30, r20

00001522 <.Loc.18>:
    1522:	f5 0b       	sbc	r31, r21

00001524 <__udivmodsi4_ep>:
    1524:	66 1f       	adc	r22, r22

00001526 <.Loc.20>:
    1526:	77 1f       	adc	r23, r23

00001528 <.Loc.21>:
    1528:	88 1f       	adc	r24, r24

0000152a <.Loc.22>:
    152a:	99 1f       	adc	r25, r25

0000152c <.Loc.23>:
    152c:	1a 94       	dec	r1

0000152e <.Loc.24>:
    152e:	69 f7       	brne	.-38     	; 0x150a <__udivmodsi4_loop>

00001530 <.Loc.25>:
    1530:	60 95       	com	r22

00001532 <.Loc.26>:
    1532:	70 95       	com	r23

00001534 <.Loc.27>:
    1534:	80 95       	com	r24

00001536 <.Loc.28>:
    1536:	90 95       	com	r25

00001538 <.Loc.29>:
    1538:	9b 01       	movw	r18, r22

0000153a <.Loc.30>:
    153a:	ac 01       	movw	r20, r24

0000153c <.Loc.31>:
    153c:	bd 01       	movw	r22, r26

0000153e <.Loc.32>:
    153e:	cf 01       	movw	r24, r30

00001540 <.Loc.33>:
    1540:	08 95       	ret

00001542 <__tablejump2__>:
    1542:	ee 0f       	add	r30, r30

00001544 <.Loc.1>:
    1544:	ff 1f       	adc	r31, r31

00001546 <.Loc.2>:
    1546:	05 90       	lpm	r0, Z+

00001548 <.Loc.3>:
    1548:	f4 91       	lpm	r31, Z

0000154a <.Loc.4>:
    154a:	e0 2d       	mov	r30, r0

0000154c <.Loc.5>:
    154c:	09 94       	ijmp

0000154e <_exit>:
    154e:	f8 94       	cli

00001550 <__stop_program>:
    1550:	ff cf       	rjmp	.-2      	; 0x1550 <__stop_program>

00001552 <L0^A>:
    1552:	a1 07       	cpc	r26, r17
    1554:	c6 07       	cpc	r28, r22
    1556:	a0 08       	sbc	r10, r0
    1558:	c6 07       	cpc	r28, r22
    155a:	a0 08       	sbc	r10, r0
    155c:	f6 07       	cpc	r31, r22
    155e:	29 08       	sbc	r2, r9
    1560:	a0 08       	sbc	r10, r0
    1562:	7b 08       	sbc	r7, r11
    1564:	87 08       	sbc	r8, r7
