   1               		.file	"dualMoco.c"
   2               	__SP_H__ = 0x3e
   3               	__SP_L__ = 0x3d
   4               	__SREG__ = 0x3f
   5               	__tmp_reg__ = 0
   6               	__zero_reg__ = 1
   7               		.text
   8               	.Ltext0:
   9               		.cfi_sections	.debug_frame
  10               		.section	.text.RingBuffer_Remove,"ax",@progbits
  12               	RingBuffer_Remove:
  13               	.LVL0:
  14               	.LFB78:
  15               		.file 1 "Lib/LightweightRingBuff.h"
   1:Lib/LightweightRingBuff.h **** /*
   2:Lib/LightweightRingBuff.h ****              LUFA Library
   3:Lib/LightweightRingBuff.h ****      Copyright (C) Dean Camera, 2010.
   4:Lib/LightweightRingBuff.h ****               
   5:Lib/LightweightRingBuff.h ****   dean [at] fourwalledcubicle [dot] com
   6:Lib/LightweightRingBuff.h ****       www.fourwalledcubicle.com
   7:Lib/LightweightRingBuff.h **** */
   8:Lib/LightweightRingBuff.h **** 
   9:Lib/LightweightRingBuff.h **** /*
  10:Lib/LightweightRingBuff.h ****   Copyright 2010  Dean Camera (dean [at] fourwalledcubicle [dot] com)
  11:Lib/LightweightRingBuff.h **** 
  12:Lib/LightweightRingBuff.h ****   Permission to use, copy, modify, distribute, and sell this 
  13:Lib/LightweightRingBuff.h ****   software and its documentation for any purpose is hereby granted
  14:Lib/LightweightRingBuff.h ****   without fee, provided that the above copyright notice appear in 
  15:Lib/LightweightRingBuff.h ****   all copies and that both that the copyright notice and this
  16:Lib/LightweightRingBuff.h ****   permission notice and warranty disclaimer appear in supporting 
  17:Lib/LightweightRingBuff.h ****   documentation, and that the name of the author not be used in 
  18:Lib/LightweightRingBuff.h ****   advertising or publicity pertaining to distribution of the 
  19:Lib/LightweightRingBuff.h ****   software without specific, written prior permission.
  20:Lib/LightweightRingBuff.h **** 
  21:Lib/LightweightRingBuff.h ****   The author disclaim all warranties with regard to this
  22:Lib/LightweightRingBuff.h ****   software, including all implied warranties of merchantability
  23:Lib/LightweightRingBuff.h ****   and fitness.  In no event shall the author be liable for any
  24:Lib/LightweightRingBuff.h ****   special, indirect or consequential damages or any damages
  25:Lib/LightweightRingBuff.h ****   whatsoever resulting from loss of use, data or profits, whether
  26:Lib/LightweightRingBuff.h ****   in an action of contract, negligence or other tortious action,
  27:Lib/LightweightRingBuff.h ****   arising out of or in connection with the use or performance of
  28:Lib/LightweightRingBuff.h ****   this software.
  29:Lib/LightweightRingBuff.h **** */
  30:Lib/LightweightRingBuff.h **** 
  31:Lib/LightweightRingBuff.h **** /** \file
  32:Lib/LightweightRingBuff.h ****  *
  33:Lib/LightweightRingBuff.h ****  *  Ultra lightweight ring buffer, for fast insertion/deletion.
  34:Lib/LightweightRingBuff.h ****  */
  35:Lib/LightweightRingBuff.h ****  
  36:Lib/LightweightRingBuff.h **** #ifndef _ULW_RING_BUFF_H_
  37:Lib/LightweightRingBuff.h **** #define _ULW_RING_BUFF_H_
  38:Lib/LightweightRingBuff.h **** 
  39:Lib/LightweightRingBuff.h **** 	/* Includes: */
  40:Lib/LightweightRingBuff.h **** 		#include <util/atomic.h>
  41:Lib/LightweightRingBuff.h **** 	
  42:Lib/LightweightRingBuff.h **** 		#include <stdint.h>
  43:Lib/LightweightRingBuff.h **** 		#include <stdbool.h>
  44:Lib/LightweightRingBuff.h **** 
  45:Lib/LightweightRingBuff.h **** 	/* Defines: */
  46:Lib/LightweightRingBuff.h **** 		/** Size of each ring buffer, in data elements - must be between 1 and 255. */
  47:Lib/LightweightRingBuff.h **** 		#define BUFFER_SIZE         128
  48:Lib/LightweightRingBuff.h **** 		
  49:Lib/LightweightRingBuff.h **** 		/** Maximum number of data elements to buffer before forcing a flush. 
  50:Lib/LightweightRingBuff.h **** 		 *  Must be less than BUFFER_SIZE
  51:Lib/LightweightRingBuff.h **** 		 */
  52:Lib/LightweightRingBuff.h **** 		#define BUFFER_NEARLY_FULL	96
  53:Lib/LightweightRingBuff.h **** 		
  54:Lib/LightweightRingBuff.h **** 		/** Type of data to store into the buffer. */
  55:Lib/LightweightRingBuff.h **** 		#define RingBuff_Data_t     uint8_t
  56:Lib/LightweightRingBuff.h **** 
  57:Lib/LightweightRingBuff.h **** 		/** Datatype which may be used to store the count of data stored in a buffer, retrieved
  58:Lib/LightweightRingBuff.h **** 		 *  via a call to \ref RingBuffer_GetCount().
  59:Lib/LightweightRingBuff.h **** 		 */
  60:Lib/LightweightRingBuff.h **** 		#if (BUFFER_SIZE <= 0xFF)
  61:Lib/LightweightRingBuff.h **** 			#define RingBuff_Count_t   uint8_t
  62:Lib/LightweightRingBuff.h **** 		#else
  63:Lib/LightweightRingBuff.h **** 			#define RingBuff_Count_t   uint16_t
  64:Lib/LightweightRingBuff.h **** 		#endif
  65:Lib/LightweightRingBuff.h **** 
  66:Lib/LightweightRingBuff.h **** 	/* Type Defines: */
  67:Lib/LightweightRingBuff.h **** 		/** Type define for a new ring buffer object. Buffers should be initialized via a call to
  68:Lib/LightweightRingBuff.h **** 		 *  \ref RingBuffer_InitBuffer() before use.
  69:Lib/LightweightRingBuff.h **** 		 */
  70:Lib/LightweightRingBuff.h **** 		typedef struct
  71:Lib/LightweightRingBuff.h **** 		{
  72:Lib/LightweightRingBuff.h **** 			RingBuff_Data_t  Buffer[BUFFER_SIZE]; /**< Internal ring buffer data, referenced by the buffer p
  73:Lib/LightweightRingBuff.h **** 			RingBuff_Data_t* In; /**< Current storage location in the circular buffer */
  74:Lib/LightweightRingBuff.h **** 			RingBuff_Data_t* Out; /**< Current retrieval location in the circular buffer */
  75:Lib/LightweightRingBuff.h **** 			RingBuff_Count_t Count;
  76:Lib/LightweightRingBuff.h **** 		} RingBuff_t;
  77:Lib/LightweightRingBuff.h **** 	
  78:Lib/LightweightRingBuff.h **** 	/* Inline Functions: */
  79:Lib/LightweightRingBuff.h **** 		/** Initializes a ring buffer ready for use. Buffers must be initialized via this function
  80:Lib/LightweightRingBuff.h **** 		 *  before any operations are called upon them. Already initialized buffers may be reset
  81:Lib/LightweightRingBuff.h **** 		 *  by re-initializing them using this function.
  82:Lib/LightweightRingBuff.h **** 		 *
  83:Lib/LightweightRingBuff.h **** 		 *  \param[out] Buffer  Pointer to a ring buffer structure to initialize
  84:Lib/LightweightRingBuff.h **** 		 */
  85:Lib/LightweightRingBuff.h **** 		static inline void RingBuffer_InitBuffer(RingBuff_t* const Buffer)
  86:Lib/LightweightRingBuff.h **** 		{
  87:Lib/LightweightRingBuff.h **** 			ATOMIC_BLOCK(ATOMIC_RESTORESTATE)
  88:Lib/LightweightRingBuff.h **** 			{
  89:Lib/LightweightRingBuff.h **** 				Buffer->In  = Buffer->Buffer;
  90:Lib/LightweightRingBuff.h **** 				Buffer->Out = Buffer->Buffer;
  91:Lib/LightweightRingBuff.h **** 			}
  92:Lib/LightweightRingBuff.h **** 		}
  93:Lib/LightweightRingBuff.h **** 		
  94:Lib/LightweightRingBuff.h **** 		/** Retrieves the minimum number of bytes stored in a particular buffer. This value is computed
  95:Lib/LightweightRingBuff.h **** 		 *  by entering an atomic lock on the buffer while the IN and OUT locations are fetched, so that
  96:Lib/LightweightRingBuff.h **** 		 *  the buffer cannot be modified while the computation takes place. This value should be cached
  97:Lib/LightweightRingBuff.h **** 		 *  when reading out the contents of the buffer, so that as small a time as possible is spent
  98:Lib/LightweightRingBuff.h **** 		 *  in an atomic lock.
  99:Lib/LightweightRingBuff.h **** 		 *
 100:Lib/LightweightRingBuff.h **** 		 *  \note The value returned by this function is guaranteed to only be the minimum number of byte
 101:Lib/LightweightRingBuff.h **** 		 *        stored in the given buffer; this value may change as other threads write new data and s
 102:Lib/LightweightRingBuff.h **** 		 *        the returned number should be used only to determine how many successive reads may safe
 103:Lib/LightweightRingBuff.h **** 		 *        be performed on the buffer.
 104:Lib/LightweightRingBuff.h **** 		 *
 105:Lib/LightweightRingBuff.h **** 		 *  \param[in] Buffer  Pointer to a ring buffer structure whose count is to be computed
 106:Lib/LightweightRingBuff.h **** 		 */
 107:Lib/LightweightRingBuff.h **** 		static inline RingBuff_Count_t RingBuffer_GetCount(RingBuff_t* const Buffer)
 108:Lib/LightweightRingBuff.h **** 		{
 109:Lib/LightweightRingBuff.h **** 			RingBuff_Count_t Count;
 110:Lib/LightweightRingBuff.h **** 			
 111:Lib/LightweightRingBuff.h **** 			ATOMIC_BLOCK(ATOMIC_RESTORESTATE)
 112:Lib/LightweightRingBuff.h **** 			{
 113:Lib/LightweightRingBuff.h **** 				Count = Buffer->Count;
 114:Lib/LightweightRingBuff.h **** 			}
 115:Lib/LightweightRingBuff.h **** 			
 116:Lib/LightweightRingBuff.h **** 			return Count;
 117:Lib/LightweightRingBuff.h **** 		}
 118:Lib/LightweightRingBuff.h **** 		
 119:Lib/LightweightRingBuff.h **** 		/** Atomically determines if the specified ring buffer contains any free space. This should
 120:Lib/LightweightRingBuff.h **** 		 *  be tested before storing data to the buffer, to ensure that no data is lost due to a
 121:Lib/LightweightRingBuff.h **** 		 *  buffer overrun.
 122:Lib/LightweightRingBuff.h **** 		 *
 123:Lib/LightweightRingBuff.h **** 		 *  \param[in,out] Buffer  Pointer to a ring buffer structure to insert into
 124:Lib/LightweightRingBuff.h **** 		 *
 125:Lib/LightweightRingBuff.h **** 		 *  \return Boolean true if the buffer contains no free space, false otherwise
 126:Lib/LightweightRingBuff.h **** 		 */		 
 127:Lib/LightweightRingBuff.h **** 		static inline bool RingBuffer_IsFull(RingBuff_t* const Buffer)
 128:Lib/LightweightRingBuff.h **** 		{
 129:Lib/LightweightRingBuff.h **** 			return (RingBuffer_GetCount(Buffer) == BUFFER_SIZE);
 130:Lib/LightweightRingBuff.h **** 		}
 131:Lib/LightweightRingBuff.h **** 
 132:Lib/LightweightRingBuff.h **** 		/** Atomically determines if the specified ring buffer contains any data. This should
 133:Lib/LightweightRingBuff.h **** 		 *  be tested before removing data from the buffer, to ensure that the buffer does not
 134:Lib/LightweightRingBuff.h **** 		 *  underflow.
 135:Lib/LightweightRingBuff.h **** 		 *
 136:Lib/LightweightRingBuff.h **** 		 *  If the data is to be removed in a loop, store the total number of bytes stored in the
 137:Lib/LightweightRingBuff.h **** 		 *  buffer (via a call to the \ref RingBuffer_GetCount() function) in a temporary variable
 138:Lib/LightweightRingBuff.h **** 		 *  to reduce the time spent in atomicity locks.
 139:Lib/LightweightRingBuff.h **** 		 *
 140:Lib/LightweightRingBuff.h **** 		 *  \param[in,out] Buffer  Pointer to a ring buffer structure to insert into
 141:Lib/LightweightRingBuff.h **** 		 *
 142:Lib/LightweightRingBuff.h **** 		 *  \return Boolean true if the buffer contains no free space, false otherwise
 143:Lib/LightweightRingBuff.h **** 		 */		 
 144:Lib/LightweightRingBuff.h **** 		static inline bool RingBuffer_IsEmpty(RingBuff_t* const Buffer)
 145:Lib/LightweightRingBuff.h **** 		{
 146:Lib/LightweightRingBuff.h **** 			return (RingBuffer_GetCount(Buffer) == 0);
 147:Lib/LightweightRingBuff.h **** 		}
 148:Lib/LightweightRingBuff.h **** 
 149:Lib/LightweightRingBuff.h **** 		/** Inserts an element into the ring buffer.
 150:Lib/LightweightRingBuff.h **** 		 *
 151:Lib/LightweightRingBuff.h **** 		 *  \note Only one execution thread (main program thread or an ISR) may insert into a single buff
 152:Lib/LightweightRingBuff.h **** 		 *        otherwise data corruption may occur. Insertion and removal may occur from different exe
 153:Lib/LightweightRingBuff.h **** 		 *        threads.
 154:Lib/LightweightRingBuff.h **** 		 *
 155:Lib/LightweightRingBuff.h **** 		 *  \param[in,out] Buffer  Pointer to a ring buffer structure to insert into
 156:Lib/LightweightRingBuff.h **** 		 *  \param[in]     Data    Data element to insert into the buffer
 157:Lib/LightweightRingBuff.h **** 		 */
 158:Lib/LightweightRingBuff.h **** 		static inline void RingBuffer_Insert(RingBuff_t* const Buffer,
 159:Lib/LightweightRingBuff.h **** 		                                     const RingBuff_Data_t Data)
 160:Lib/LightweightRingBuff.h **** 		{
 161:Lib/LightweightRingBuff.h **** 			*Buffer->In = Data;
 162:Lib/LightweightRingBuff.h **** 			
 163:Lib/LightweightRingBuff.h **** 			if (++Buffer->In == &Buffer->Buffer[BUFFER_SIZE])
 164:Lib/LightweightRingBuff.h **** 			  Buffer->In = Buffer->Buffer;
 165:Lib/LightweightRingBuff.h **** 
 166:Lib/LightweightRingBuff.h **** 			ATOMIC_BLOCK(ATOMIC_RESTORESTATE)
 167:Lib/LightweightRingBuff.h **** 			{
 168:Lib/LightweightRingBuff.h **** 				Buffer->Count++;
 169:Lib/LightweightRingBuff.h **** 			}
 170:Lib/LightweightRingBuff.h **** 		}
 171:Lib/LightweightRingBuff.h **** 
 172:Lib/LightweightRingBuff.h **** 		/** Removes an element from the ring buffer.
 173:Lib/LightweightRingBuff.h **** 		 *
 174:Lib/LightweightRingBuff.h **** 		 *  \note Only one execution thread (main program thread or an ISR) may remove from a single buff
 175:Lib/LightweightRingBuff.h **** 		 *        otherwise data corruption may occur. Insertion and removal may occur from different exe
 176:Lib/LightweightRingBuff.h **** 		 *        threads.
 177:Lib/LightweightRingBuff.h **** 		 *
 178:Lib/LightweightRingBuff.h **** 		 *  \param[in,out] Buffer  Pointer to a ring buffer structure to retrieve from
 179:Lib/LightweightRingBuff.h **** 		 *
 180:Lib/LightweightRingBuff.h **** 		 *  \return Next data element stored in the buffer
 181:Lib/LightweightRingBuff.h **** 		 */
 182:Lib/LightweightRingBuff.h **** 		static inline RingBuff_Data_t RingBuffer_Remove(RingBuff_t* const Buffer)
 183:Lib/LightweightRingBuff.h **** 		{
  16               		.loc 1 183 3 view -0
  17               		.cfi_startproc
  18               	/* prologue: function */
  19               	/* frame size = 0 */
  20               	/* stack size = 0 */
  21               	.L__stack_usage = 0
  22               		.loc 1 183 3 is_stmt 0 view .LVU1
  23 0000 9C01      		movw r18,r24
 184:Lib/LightweightRingBuff.h **** 			RingBuff_Data_t Data = *Buffer->Out;
  24               		.loc 1 184 4 is_stmt 1 view .LVU2
  25               		.loc 1 184 34 is_stmt 0 view .LVU3
  26 0002 DC01      		movw r26,r24
  27 0004 AE57      		subi r26,126
  28 0006 BF4F      		sbci r27,-1
  29               		.loc 1 184 20 view .LVU4
  30 0008 ED91      		ld r30,X+
  31 000a FC91      		ld r31,X
  32 000c 1197      		sbiw r26,1
  33 000e 8191      		ld r24,Z+
  34               	.LVL1:
 185:Lib/LightweightRingBuff.h **** 			
 186:Lib/LightweightRingBuff.h **** 			if (++Buffer->Out == &Buffer->Buffer[BUFFER_SIZE])
  35               		.loc 1 186 4 is_stmt 1 view .LVU5
  36               		.loc 1 186 25 is_stmt 0 view .LVU6
  37 0010 A901      		movw r20,r18
  38 0012 4058      		subi r20,-128
  39 0014 5F4F      		sbci r21,-1
  40               		.loc 1 186 7 view .LVU7
  41 0016 E417      		cp r30,r20
  42 0018 F507      		cpc r31,r21
  43 001a 01F0      		breq .L2
  44 001c ED93      		st X+,r30
  45 001e FC93      		st X,r31
  46               	.L3:
 187:Lib/LightweightRingBuff.h **** 			  Buffer->Out = Buffer->Buffer;
 188:Lib/LightweightRingBuff.h **** 
 189:Lib/LightweightRingBuff.h **** 			ATOMIC_BLOCK(ATOMIC_RESTORESTATE)
  47               		.loc 1 189 4 is_stmt 1 view .LVU8
  48               	.LBB41:
  49               		.loc 1 189 4 view .LVU9
  50 0020 4FB7      		in r20,__SREG__
  51               	.LVL2:
  52               	.LBB42:
  53               	.LBI42:
  54               		.file 2 "/opt/homebrew/Cellar/avr-gcc@9/9.4.0_1/avr/include/util/atomic.h"
   1:/opt/homebrew/Cellar/avr-gcc@9/9.4.0_1/avr/include/util/atomic.h **** /* Copyright (c) 2007 Dean Camera
   2:/opt/homebrew/Cellar/avr-gcc@9/9.4.0_1/avr/include/util/atomic.h ****    All rights reserved.
   3:/opt/homebrew/Cellar/avr-gcc@9/9.4.0_1/avr/include/util/atomic.h **** 
   4:/opt/homebrew/Cellar/avr-gcc@9/9.4.0_1/avr/include/util/atomic.h ****    Redistribution and use in source and binary forms, with or without
   5:/opt/homebrew/Cellar/avr-gcc@9/9.4.0_1/avr/include/util/atomic.h ****    modification, are permitted provided that the following conditions are met:
   6:/opt/homebrew/Cellar/avr-gcc@9/9.4.0_1/avr/include/util/atomic.h **** 
   7:/opt/homebrew/Cellar/avr-gcc@9/9.4.0_1/avr/include/util/atomic.h ****    * Redistributions of source code must retain the above copyright
   8:/opt/homebrew/Cellar/avr-gcc@9/9.4.0_1/avr/include/util/atomic.h ****      notice, this list of conditions and the following disclaimer.
   9:/opt/homebrew/Cellar/avr-gcc@9/9.4.0_1/avr/include/util/atomic.h **** 
  10:/opt/homebrew/Cellar/avr-gcc@9/9.4.0_1/avr/include/util/atomic.h ****    * Redistributions in binary form must reproduce the above copyright
  11:/opt/homebrew/Cellar/avr-gcc@9/9.4.0_1/avr/include/util/atomic.h ****      notice, this list of conditions and the following disclaimer in
  12:/opt/homebrew/Cellar/avr-gcc@9/9.4.0_1/avr/include/util/atomic.h ****      the documentation and/or other materials provided with the
  13:/opt/homebrew/Cellar/avr-gcc@9/9.4.0_1/avr/include/util/atomic.h ****      distribution.
  14:/opt/homebrew/Cellar/avr-gcc@9/9.4.0_1/avr/include/util/atomic.h **** 
  15:/opt/homebrew/Cellar/avr-gcc@9/9.4.0_1/avr/include/util/atomic.h ****    * Neither the name of the copyright holders nor the names of
  16:/opt/homebrew/Cellar/avr-gcc@9/9.4.0_1/avr/include/util/atomic.h ****      contributors may be used to endorse or promote products derived
  17:/opt/homebrew/Cellar/avr-gcc@9/9.4.0_1/avr/include/util/atomic.h ****      from this software without specific prior written permission.
  18:/opt/homebrew/Cellar/avr-gcc@9/9.4.0_1/avr/include/util/atomic.h **** 
  19:/opt/homebrew/Cellar/avr-gcc@9/9.4.0_1/avr/include/util/atomic.h ****   THIS SOFTWARE IS PROVIDED BY THE COPYRIGHT HOLDERS AND CONTRIBUTORS "AS IS"
  20:/opt/homebrew/Cellar/avr-gcc@9/9.4.0_1/avr/include/util/atomic.h ****   AND ANY EXPRESS OR IMPLIED WARRANTIES, INCLUDING, BUT NOT LIMITED TO, THE
  21:/opt/homebrew/Cellar/avr-gcc@9/9.4.0_1/avr/include/util/atomic.h ****   IMPLIED WARRANTIES OF MERCHANTABILITY AND FITNESS FOR A PARTICULAR PURPOSE
  22:/opt/homebrew/Cellar/avr-gcc@9/9.4.0_1/avr/include/util/atomic.h ****   ARE DISCLAIMED. IN NO EVENT SHALL THE COPYRIGHT OWNER OR CONTRIBUTORS BE
  23:/opt/homebrew/Cellar/avr-gcc@9/9.4.0_1/avr/include/util/atomic.h ****   LIABLE FOR ANY DIRECT, INDIRECT, INCIDENTAL, SPECIAL, EXEMPLARY, OR
  24:/opt/homebrew/Cellar/avr-gcc@9/9.4.0_1/avr/include/util/atomic.h ****   CONSEQUENTIAL DAMAGES (INCLUDING, BUT NOT LIMITED TO, PROCUREMENT OF
  25:/opt/homebrew/Cellar/avr-gcc@9/9.4.0_1/avr/include/util/atomic.h ****   SUBSTITUTE GOODS OR SERVICES; LOSS OF USE, DATA, OR PROFITS; OR BUSINESS
  26:/opt/homebrew/Cellar/avr-gcc@9/9.4.0_1/avr/include/util/atomic.h ****   INTERRUPTION) HOWEVER CAUSED AND ON ANY THEORY OF LIABILITY, WHETHER IN
  27:/opt/homebrew/Cellar/avr-gcc@9/9.4.0_1/avr/include/util/atomic.h ****   CONTRACT, STRICT LIABILITY, OR TORT (INCLUDING NEGLIGENCE OR OTHERWISE)
  28:/opt/homebrew/Cellar/avr-gcc@9/9.4.0_1/avr/include/util/atomic.h ****   ARISING IN ANY WAY OUT OF THE USE OF THIS SOFTWARE, EVEN IF ADVISED OF THE
  29:/opt/homebrew/Cellar/avr-gcc@9/9.4.0_1/avr/include/util/atomic.h ****   POSSIBILITY OF SUCH DAMAGE.
  30:/opt/homebrew/Cellar/avr-gcc@9/9.4.0_1/avr/include/util/atomic.h **** */
  31:/opt/homebrew/Cellar/avr-gcc@9/9.4.0_1/avr/include/util/atomic.h **** 
  32:/opt/homebrew/Cellar/avr-gcc@9/9.4.0_1/avr/include/util/atomic.h **** /* $Id: atomic.h 2541 2017-06-11 15:41:47Z joerg_wunsch $ */
  33:/opt/homebrew/Cellar/avr-gcc@9/9.4.0_1/avr/include/util/atomic.h **** 
  34:/opt/homebrew/Cellar/avr-gcc@9/9.4.0_1/avr/include/util/atomic.h **** #ifndef _UTIL_ATOMIC_H_
  35:/opt/homebrew/Cellar/avr-gcc@9/9.4.0_1/avr/include/util/atomic.h **** #define _UTIL_ATOMIC_H_ 1
  36:/opt/homebrew/Cellar/avr-gcc@9/9.4.0_1/avr/include/util/atomic.h **** 
  37:/opt/homebrew/Cellar/avr-gcc@9/9.4.0_1/avr/include/util/atomic.h **** #include <avr/io.h>
  38:/opt/homebrew/Cellar/avr-gcc@9/9.4.0_1/avr/include/util/atomic.h **** #include <avr/interrupt.h>
  39:/opt/homebrew/Cellar/avr-gcc@9/9.4.0_1/avr/include/util/atomic.h **** 
  40:/opt/homebrew/Cellar/avr-gcc@9/9.4.0_1/avr/include/util/atomic.h **** #if !defined(__DOXYGEN__)
  41:/opt/homebrew/Cellar/avr-gcc@9/9.4.0_1/avr/include/util/atomic.h **** /* Internal helper functions. */
  42:/opt/homebrew/Cellar/avr-gcc@9/9.4.0_1/avr/include/util/atomic.h **** static __inline__ uint8_t __iSeiRetVal(void)
  43:/opt/homebrew/Cellar/avr-gcc@9/9.4.0_1/avr/include/util/atomic.h **** {
  44:/opt/homebrew/Cellar/avr-gcc@9/9.4.0_1/avr/include/util/atomic.h ****     sei();
  45:/opt/homebrew/Cellar/avr-gcc@9/9.4.0_1/avr/include/util/atomic.h ****     return 1;
  46:/opt/homebrew/Cellar/avr-gcc@9/9.4.0_1/avr/include/util/atomic.h **** }
  47:/opt/homebrew/Cellar/avr-gcc@9/9.4.0_1/avr/include/util/atomic.h **** 
  48:/opt/homebrew/Cellar/avr-gcc@9/9.4.0_1/avr/include/util/atomic.h **** static __inline__ uint8_t __iCliRetVal(void)
  55               		.loc 2 48 27 view .LVU10
  56               	.LBB43:
  49:/opt/homebrew/Cellar/avr-gcc@9/9.4.0_1/avr/include/util/atomic.h **** {
  50:/opt/homebrew/Cellar/avr-gcc@9/9.4.0_1/avr/include/util/atomic.h ****     cli();
  57               		.loc 2 50 5 view .LVU11
  58               	/* #APP */
  59               	 ;  50 "/opt/homebrew/Cellar/avr-gcc@9/9.4.0_1/avr/include/util/atomic.h" 1
  60 0022 F894      		cli
  61               	 ;  0 "" 2
  51:/opt/homebrew/Cellar/avr-gcc@9/9.4.0_1/avr/include/util/atomic.h ****     return 1;
  62               		.loc 2 51 5 view .LVU12
  63               	.LVL3:
  64               		.loc 2 51 5 is_stmt 0 view .LVU13
  65               	/* #NOAPP */
  66               	.LBE43:
  67               	.LBE42:
  68               		.loc 1 189 4 is_stmt 1 view .LVU14
 190:Lib/LightweightRingBuff.h **** 			{
 191:Lib/LightweightRingBuff.h **** 				Buffer->Count--;
  69               		.loc 1 191 5 view .LVU15
  70               		.loc 1 191 18 is_stmt 0 view .LVU16
  71 0024 F901      		movw r30,r18
  72 0026 EC57      		subi r30,124
  73 0028 FF4F      		sbci r31,-1
  74 002a 9081      		ld r25,Z
  75 002c 9150      		subi r25,lo8(-(-1))
  76 002e 9083      		st Z,r25
 189:Lib/LightweightRingBuff.h **** 			{
  77               		.loc 1 189 4 is_stmt 1 view .LVU17
  78               	.LVL4:
 189:Lib/LightweightRingBuff.h **** 			{
  79               		.loc 1 189 4 view .LVU18
  80               	.LBB44:
  81               	.LBI44:
  52:/opt/homebrew/Cellar/avr-gcc@9/9.4.0_1/avr/include/util/atomic.h **** }
  53:/opt/homebrew/Cellar/avr-gcc@9/9.4.0_1/avr/include/util/atomic.h **** 
  54:/opt/homebrew/Cellar/avr-gcc@9/9.4.0_1/avr/include/util/atomic.h **** static __inline__ void __iSeiParam(const uint8_t *__s)
  55:/opt/homebrew/Cellar/avr-gcc@9/9.4.0_1/avr/include/util/atomic.h **** {
  56:/opt/homebrew/Cellar/avr-gcc@9/9.4.0_1/avr/include/util/atomic.h ****     sei();
  57:/opt/homebrew/Cellar/avr-gcc@9/9.4.0_1/avr/include/util/atomic.h ****     __asm__ volatile ("" ::: "memory");
  58:/opt/homebrew/Cellar/avr-gcc@9/9.4.0_1/avr/include/util/atomic.h ****     (void)__s;
  59:/opt/homebrew/Cellar/avr-gcc@9/9.4.0_1/avr/include/util/atomic.h **** }
  60:/opt/homebrew/Cellar/avr-gcc@9/9.4.0_1/avr/include/util/atomic.h **** 
  61:/opt/homebrew/Cellar/avr-gcc@9/9.4.0_1/avr/include/util/atomic.h **** static __inline__ void __iCliParam(const uint8_t *__s)
  62:/opt/homebrew/Cellar/avr-gcc@9/9.4.0_1/avr/include/util/atomic.h **** {
  63:/opt/homebrew/Cellar/avr-gcc@9/9.4.0_1/avr/include/util/atomic.h ****     cli();
  64:/opt/homebrew/Cellar/avr-gcc@9/9.4.0_1/avr/include/util/atomic.h ****     __asm__ volatile ("" ::: "memory");
  65:/opt/homebrew/Cellar/avr-gcc@9/9.4.0_1/avr/include/util/atomic.h ****     (void)__s;
  66:/opt/homebrew/Cellar/avr-gcc@9/9.4.0_1/avr/include/util/atomic.h **** }
  67:/opt/homebrew/Cellar/avr-gcc@9/9.4.0_1/avr/include/util/atomic.h **** 
  68:/opt/homebrew/Cellar/avr-gcc@9/9.4.0_1/avr/include/util/atomic.h **** static __inline__ void __iRestore(const  uint8_t *__s)
  82               		.loc 2 68 24 view .LVU19
  83               	.LBB45:
  69:/opt/homebrew/Cellar/avr-gcc@9/9.4.0_1/avr/include/util/atomic.h **** {
  70:/opt/homebrew/Cellar/avr-gcc@9/9.4.0_1/avr/include/util/atomic.h ****     SREG = *__s;
  84               		.loc 2 70 5 view .LVU20
  85               		.loc 2 70 10 is_stmt 0 view .LVU21
  86 0030 4FBF      		out __SREG__,r20
  71:/opt/homebrew/Cellar/avr-gcc@9/9.4.0_1/avr/include/util/atomic.h ****     __asm__ volatile ("" ::: "memory");
  87               		.loc 2 71 5 is_stmt 1 view .LVU22
  88               	.LVL5:
  89               		.loc 2 71 5 is_stmt 0 view .LVU23
  90               	.LBE45:
  91               	.LBE44:
  92               	.LBE41:
 192:Lib/LightweightRingBuff.h **** 			}
 193:Lib/LightweightRingBuff.h **** 			
 194:Lib/LightweightRingBuff.h **** 			return Data;
  93               		.loc 1 194 4 is_stmt 1 view .LVU24
  94               	/* epilogue start */
 195:Lib/LightweightRingBuff.h **** 		}
  95               		.loc 1 195 3 is_stmt 0 view .LVU25
  96 0032 0895      		ret
  97               	.LVL6:
  98               	.L2:
 187:Lib/LightweightRingBuff.h **** 
  99               		.loc 1 187 6 is_stmt 1 view .LVU26
 187:Lib/LightweightRingBuff.h **** 
 100               		.loc 1 187 18 is_stmt 0 view .LVU27
 101 0034 2D93      		st X+,r18
 102 0036 3C93      		st X,r19
 103 0038 00C0      		rjmp .L3
 104               		.cfi_endproc
 105               	.LFE78:
 107               		.section	.text.parseUSBMidiMessage,"ax",@progbits
 108               	.global	parseUSBMidiMessage
 110               	parseUSBMidiMessage:
 111               	.LVL7:
 112               	.LFB91:
 113               		.file 3 "dualMoco.c"
   1:dualMoco.c    **** /*
   2:dualMoco.c    ****      dualMocoLUFA Project
   3:dualMoco.c    ****      Copyright (C) 2013 by morecat_lab
   4:dualMoco.c    **** 
   5:dualMoco.c    ****      2013/09/22
   6:dualMoco.c    ****               
   7:dualMoco.c    ****      http://morecatlab.akiba.coocan.jp/
   8:dualMoco.c    **** 
   9:dualMoco.c    ****      based on LUFA-100807
  10:dualMoco.c    **** */
  11:dualMoco.c    **** /*
  12:dualMoco.c    ****              LUFA Library
  13:dualMoco.c    ****      Copyright (C) Dean Camera, 2010.
  14:dualMoco.c    ****               
  15:dualMoco.c    ****   dean [at] fourwalledcubicle [dot] com
  16:dualMoco.c    ****       www.fourwalledcubicle.com
  17:dualMoco.c    **** */
  18:dualMoco.c    **** /*
  19:dualMoco.c    ****   Copyright 2010  Dean Camera (dean [at] fourwalledcubicle [dot] com)
  20:dualMoco.c    **** 
  21:dualMoco.c    ****   Permission to use, copy, modify, distribute, and sell this 
  22:dualMoco.c    ****   software and its documentation for any purpose is hereby granted
  23:dualMoco.c    ****   without fee, provided that the above copyright notice appear in 
  24:dualMoco.c    ****   all copies and that both that the copyright notice and this
  25:dualMoco.c    ****   permission notice and warranty disclaimer appear in supporting 
  26:dualMoco.c    ****   documentation, and that the name of the author not be used in 
  27:dualMoco.c    ****   advertising or publicity pertaining to distribution of the 
  28:dualMoco.c    ****   software without specific, written prior permission.
  29:dualMoco.c    **** 
  30:dualMoco.c    ****   The author disclaim all warranties with regard to this
  31:dualMoco.c    ****   software, including all implied warranties of merchantability
  32:dualMoco.c    ****   and fitness.  In no event shall the author be liable for any
  33:dualMoco.c    ****   special, indirect or consequential damages or any damages
  34:dualMoco.c    ****   whatsoever resulting from loss of use, data or profits, whether
  35:dualMoco.c    ****   in an action of contract, negligence or other tortious action,
  36:dualMoco.c    ****   arising out of or in connection with the use or performance of
  37:dualMoco.c    ****   this software.
  38:dualMoco.c    **** */
  39:dualMoco.c    **** 
  40:dualMoco.c    **** /** \file
  41:dualMoco.c    ****  *
  42:dualMoco.c    ****  *  Main source file for the dualMocoLUFA project. 
  43:dualMoco.c    ****  * This file contains the main tasks of the project and is responsible for the initial application 
  44:dualMoco.c    ****  */
  45:dualMoco.c    **** 
  46:dualMoco.c    **** #include "dualMoco.h"
  47:dualMoco.c    **** #include "Arduino-usbserial.h"
  48:dualMoco.c    **** 
  49:dualMoco.c    **** uchar mocoMode = 1;	/* 0: Serial , 1: MIDI */
  50:dualMoco.c    **** uchar highSpeed = 0;		/* 0: normal speed(31250bps),
  51:dualMoco.c    **** 				   1: high speed (1250000bps) */
  52:dualMoco.c    **** 
  53:dualMoco.c    **** /** Circular buffer to hold data from the host before it is sent to the device via the serial port.
  54:dualMoco.c    **** RingBuff_t USBtoUSART_Buffer;
  55:dualMoco.c    **** 
  56:dualMoco.c    **** /** Circular buffer to hold data from the serial port before it is sent to the host. */
  57:dualMoco.c    **** RingBuff_t USARTtoUSB_Buffer;
  58:dualMoco.c    **** 
  59:dualMoco.c    **** /** Pulse generation counters to keep track of the number of milliseconds remaining for each pulse 
  60:dualMoco.c    **** volatile struct {
  61:dualMoco.c    ****   uint8_t TxLEDPulse; /**< Milliseconds remaining for data Tx LED pulse */
  62:dualMoco.c    ****   uint8_t RxLEDPulse; /**< Milliseconds remaining for data Rx LED pulse */
  63:dualMoco.c    ****   uint8_t PingPongLEDPulse; /**< Milliseconds remaining for enumeration Tx/Rx ping-pong LED pulse *
  64:dualMoco.c    **** } PulseMSRemaining;
  65:dualMoco.c    **** 
  66:dualMoco.c    **** #define    RX_SIZE        (HW_CDC_BULK_IN_SIZE)
  67:dualMoco.c    **** static uchar utxrdy = FALSE;	/* USB Packet ready in utx_buf */
  68:dualMoco.c    **** static uchar rx_buf[RX_SIZE];	/* tempory buffer */
  69:dualMoco.c    **** static uchar utx_buf[RX_SIZE];	/* BULK_IN buffer */
  70:dualMoco.c    **** 
  71:dualMoco.c    **** #define    TX_SIZE        (HW_CDC_BULK_OUT_SIZE<<2)
  72:dualMoco.c    **** #define    TX_MASK        (TX_SIZE-1)
  73:dualMoco.c    **** static uchar uwptr = 0, irptr = 0;
  74:dualMoco.c    **** static uchar tx_buf[TX_SIZE];
  75:dualMoco.c    **** 
  76:dualMoco.c    **** /** LUFA CDC Class driver interface configuration and state information. This structure is
  77:dualMoco.c    ****  *  passed to all CDC Class driver functions, so that multiple instances of the same class
  78:dualMoco.c    ****  *  within a device can be differentiated from one another.
  79:dualMoco.c    ****  */
  80:dualMoco.c    **** /* for serial */
  81:dualMoco.c    **** USB_ClassInfo_CDC_Device_t VirtualSerial_CDC_Interface = {
  82:dualMoco.c    ****   .Config = {
  83:dualMoco.c    ****     .ControlInterfaceNumber         = 0,
  84:dualMoco.c    ****       
  85:dualMoco.c    ****     .DataINEndpointNumber           = CDC_TX_EPNUM,
  86:dualMoco.c    ****     .DataINEndpointSize             = CDC_TXRX_EPSIZE,
  87:dualMoco.c    ****     .DataINEndpointDoubleBank       = false,
  88:dualMoco.c    **** 
  89:dualMoco.c    ****     .DataOUTEndpointNumber          = CDC_RX_EPNUM,
  90:dualMoco.c    ****     .DataOUTEndpointSize            = CDC_TXRX_EPSIZE,
  91:dualMoco.c    ****     .DataOUTEndpointDoubleBank      = false,
  92:dualMoco.c    ****       
  93:dualMoco.c    ****     .NotificationEndpointNumber     = CDC_NOTIFICATION_EPNUM,
  94:dualMoco.c    ****     .NotificationEndpointSize       = CDC_NOTIFICATION_EPSIZE,
  95:dualMoco.c    ****     .NotificationEndpointDoubleBank = false,
  96:dualMoco.c    ****   },
  97:dualMoco.c    **** };
  98:dualMoco.c    **** /* for MIDI */
  99:dualMoco.c    **** USB_ClassInfo_MIDI_Device_t Keyboard_MIDI_Interface =  {
 100:dualMoco.c    ****   .Config = {
 101:dualMoco.c    ****     .StreamingInterfaceNumber = 1,
 102:dualMoco.c    ****     
 103:dualMoco.c    ****     .DataINEndpointNumber      = MIDI_STREAM_IN_EPNUM,
 104:dualMoco.c    ****     .DataINEndpointSize        = MIDI_STREAM_EPSIZE,
 105:dualMoco.c    ****     .DataINEndpointDoubleBank  = false,
 106:dualMoco.c    ****     
 107:dualMoco.c    ****     .DataOUTEndpointNumber     = MIDI_STREAM_OUT_EPNUM,
 108:dualMoco.c    ****     .DataOUTEndpointSize       = MIDI_STREAM_EPSIZE,
 109:dualMoco.c    ****     .DataOUTEndpointDoubleBank = false,
 110:dualMoco.c    ****   },
 111:dualMoco.c    **** };
 112:dualMoco.c    **** 
 113:dualMoco.c    **** void parseUSBMidiMessage(uchar *data, uchar len) {
 114               		.loc 3 113 50 is_stmt 1 view -0
 115               		.cfi_startproc
 116               		.loc 3 113 50 is_stmt 0 view .LVU29
 117 0000 CF93      		push r28
 118               	.LCFI0:
 119               		.cfi_def_cfa_offset 3
 120               		.cfi_offset 28, -2
 121 0002 DF93      		push r29
 122               	.LCFI1:
 123               		.cfi_def_cfa_offset 4
 124               		.cfi_offset 29, -3
 125               	/* prologue: function */
 126               	/* frame size = 0 */
 127               	/* stack size = 2 */
 128               	.L__stack_usage = 2
 129 0004 2091 0000 		lds r18,uwptr
 130               		.loc 3 113 50 view .LVU30
 131 0008 FC01      		movw r30,r24
 132 000a 860F      		add r24,r22
 133               	.LVL8:
 134               	.L10:
 114:dualMoco.c    ****   uchar cin = (*data) & 0x0f;	/* ignore cable no */
 135               		.loc 3 114 3 is_stmt 1 view .LVU31
 136               		.loc 3 114 16 is_stmt 0 view .LVU32
 137 000c 3081      		ld r19,Z
 138               	.LVL9:
 115:dualMoco.c    ****   uchar i;
 139               		.loc 3 115 3 is_stmt 1 view .LVU33
 116:dualMoco.c    **** 
 117:dualMoco.c    ****   if (cin > 1) {		/* ignore cin == 0 and cin == 1 */
 140               		.loc 3 117 3 view .LVU34
 141               		.loc 3 117 6 is_stmt 0 view .LVU35
 142 000e 932F      		mov r25,r19
 143 0010 9E70      		andi r25,lo8(14)
 144 0012 01F0      		breq .L5
 114:dualMoco.c    ****   uchar i;
 145               		.loc 3 114 9 view .LVU36
 146 0014 432F      		mov r20,r19
 147 0016 4F70      		andi r20,lo8(15)
 148               	.LVL10:
 114:dualMoco.c    ****   uchar i;
 149               		.loc 3 114 9 view .LVU37
 150 0018 EF01      		movw r28,r30
 151 001a 2196      		adiw r28,1
 118:dualMoco.c    ****     for (i = 1 ; i < 4 ; i++) {
 152               		.loc 3 118 12 view .LVU38
 153 001c 91E0      		ldi r25,lo8(1)
 119:dualMoco.c    ****       tx_buf[uwptr++] = *(data + i); /* copy to buffer */
 120:dualMoco.c    ****       uwptr &= TX_MASK;
 121:dualMoco.c    ****       if (i == 1) {
 122:dualMoco.c    **** 	if ((cin == 5) || /* single byte system common */
 123:dualMoco.c    **** 	    (cin == 15))  /* single byte */
 124:dualMoco.c    **** 	  break;
 125:dualMoco.c    ****       }
 126:dualMoco.c    ****       if (i == 2) {
 127:dualMoco.c    **** 	if ((cin == 2) ||  /* two-byte system common */
 154               		.loc 3 127 5 view .LVU39
 155 001e 3B70      		andi r19,lo8(11)
 128:dualMoco.c    **** 	    (cin == 6) ||  /* system ex end with 2 bytes */
 156               		.loc 3 128 17 view .LVU40
 157 0020 54EF      		ldi r21,lo8(-12)
 158 0022 540F      		add r21,r20
 159               	.L8:
 160               	.LVL11:
 119:dualMoco.c    ****       tx_buf[uwptr++] = *(data + i); /* copy to buffer */
 161               		.loc 3 119 7 is_stmt 1 view .LVU41
 119:dualMoco.c    ****       tx_buf[uwptr++] = *(data + i); /* copy to buffer */
 162               		.loc 3 119 25 is_stmt 0 view .LVU42
 163 0024 6991      		ld r22,Y+
 119:dualMoco.c    ****       tx_buf[uwptr++] = *(data + i); /* copy to buffer */
 164               		.loc 3 119 19 view .LVU43
 165 0026 A22F      		mov r26,r18
 166 0028 B0E0      		ldi r27,0
 119:dualMoco.c    ****       tx_buf[uwptr++] = *(data + i); /* copy to buffer */
 167               		.loc 3 119 23 view .LVU44
 168 002a A050      		subi r26,lo8(-(tx_buf))
 169 002c B040      		sbci r27,hi8(-(tx_buf))
 170 002e 6C93      		st X,r22
 120:dualMoco.c    ****       if (i == 1) {
 171               		.loc 3 120 7 is_stmt 1 view .LVU45
 119:dualMoco.c    ****       tx_buf[uwptr++] = *(data + i); /* copy to buffer */
 172               		.loc 3 119 19 is_stmt 0 view .LVU46
 173 0030 2F5F      		subi r18,lo8(-(1))
 120:dualMoco.c    ****       if (i == 1) {
 174               		.loc 3 120 13 view .LVU47
 175 0032 2F71      		andi r18,lo8(31)
 121:dualMoco.c    **** 	if ((cin == 5) || /* single byte system common */
 176               		.loc 3 121 7 is_stmt 1 view .LVU48
 121:dualMoco.c    **** 	if ((cin == 5) || /* single byte system common */
 177               		.loc 3 121 10 is_stmt 0 view .LVU49
 178 0034 9130      		cpi r25,lo8(1)
 179 0036 01F4      		brne .L6
 180               	.LVL12:
 122:dualMoco.c    **** 	    (cin == 15))  /* single byte */
 181               		.loc 3 122 2 is_stmt 1 view .LVU50
 122:dualMoco.c    **** 	    (cin == 15))  /* single byte */
 182               		.loc 3 122 5 is_stmt 0 view .LVU51
 183 0038 4530      		cpi r20,lo8(5)
 184 003a 01F0      		breq .L5
 122:dualMoco.c    **** 	    (cin == 15))  /* single byte */
 185               		.loc 3 122 17 discriminator 1 view .LVU52
 186 003c 4F30      		cpi r20,lo8(15)
 187 003e 01F4      		brne .L7
 188               	.LVL13:
 189               	.L5:
 129:dualMoco.c    **** 	    (cin == 12) || /* program change */
 130:dualMoco.c    **** 	    (cin == 13))   /* channel pressure */
 131:dualMoco.c    **** 	  break;
 132:dualMoco.c    ****       }
 133:dualMoco.c    ****     }
 134:dualMoco.c    ****   }
 135:dualMoco.c    **** 
 136:dualMoco.c    ****   if (len > 4) {
 190               		.loc 3 136 3 is_stmt 1 view .LVU53
 191               		.loc 3 136 6 is_stmt 0 view .LVU54
 192 0040 982F      		mov r25,r24
 193 0042 9E1B      		sub r25,r30
 194 0044 9530      		cpi r25,lo8(5)
 195 0046 00F0      		brlo .L9
 137:dualMoco.c    ****     parseUSBMidiMessage(data+4, len-4);
 196               		.loc 3 137 5 is_stmt 1 view .LVU55
 197 0048 3496      		adiw r30,4
 198               	.LVL14:
 199               		.loc 3 137 5 is_stmt 0 view .LVU56
 200 004a 00C0      		rjmp .L10
 201               	.LVL15:
 202               	.L6:
 126:dualMoco.c    **** 	if ((cin == 2) ||  /* two-byte system common */
 203               		.loc 3 126 7 is_stmt 1 view .LVU57
 126:dualMoco.c    **** 	if ((cin == 2) ||  /* two-byte system common */
 204               		.loc 3 126 10 is_stmt 0 view .LVU58
 205 004c 9230      		cpi r25,lo8(2)
 206 004e 01F4      		brne .L7
 127:dualMoco.c    **** 	    (cin == 6) ||  /* system ex end with 2 bytes */
 207               		.loc 3 127 2 is_stmt 1 view .LVU59
 127:dualMoco.c    **** 	    (cin == 6) ||  /* system ex end with 2 bytes */
 208               		.loc 3 127 5 is_stmt 0 view .LVU60
 209 0050 3230      		cpi r19,lo8(2)
 210 0052 01F0      		breq .L5
 128:dualMoco.c    **** 	    (cin == 12) || /* program change */
 211               		.loc 3 128 17 view .LVU61
 212 0054 5230      		cpi r21,lo8(2)
 213 0056 00F0      		brlo .L5
 214               	.LVL16:
 215               	.L7:
 118:dualMoco.c    ****       tx_buf[uwptr++] = *(data + i); /* copy to buffer */
 216               		.loc 3 118 26 is_stmt 1 discriminator 2 view .LVU62
 118:dualMoco.c    ****       tx_buf[uwptr++] = *(data + i); /* copy to buffer */
 217               		.loc 3 118 27 is_stmt 0 discriminator 2 view .LVU63
 218 0058 9F5F      		subi r25,lo8(-(1))
 219               	.LVL17:
 118:dualMoco.c    ****       tx_buf[uwptr++] = *(data + i); /* copy to buffer */
 220               		.loc 3 118 18 is_stmt 1 discriminator 2 view .LVU64
 118:dualMoco.c    ****       tx_buf[uwptr++] = *(data + i); /* copy to buffer */
 221               		.loc 3 118 5 is_stmt 0 discriminator 2 view .LVU65
 222 005a 9430      		cpi r25,lo8(4)
 223 005c 01F4      		brne .L8
 224 005e 00C0      		rjmp .L5
 225               	.LVL18:
 226               	.L9:
 118:dualMoco.c    ****       tx_buf[uwptr++] = *(data + i); /* copy to buffer */
 227               		.loc 3 118 5 discriminator 2 view .LVU66
 228 0060 2093 0000 		sts uwptr,r18
 229               	/* epilogue start */
 138:dualMoco.c    ****   }
 139:dualMoco.c    **** }
 230               		.loc 3 139 1 view .LVU67
 231 0064 DF91      		pop r29
 232 0066 CF91      		pop r28
 233 0068 0895      		ret
 234               		.cfi_endproc
 235               	.LFE91:
 237               		.section	.text.parseSerialMidiMessage,"ax",@progbits
 238               	.global	parseSerialMidiMessage
 240               	parseSerialMidiMessage:
 241               	.LVL19:
 242               	.LFB92:
 140:dualMoco.c    **** 
 141:dualMoco.c    **** uchar parseSerialMidiMessage(uchar RxByte) {
 243               		.loc 3 141 44 is_stmt 1 view -0
 244               		.cfi_startproc
 245               	/* prologue: function */
 246               	/* frame size = 0 */
 247               	/* stack size = 0 */
 248               	.L__stack_usage = 0
 249               		.loc 3 141 44 is_stmt 0 view .LVU69
 250 0000 982F      		mov r25,r24
 142:dualMoco.c    ****   static uchar PC = 0;
 251               		.loc 3 142 3 is_stmt 1 view .LVU70
 143:dualMoco.c    ****   static uchar SysEx = FALSE;
 252               		.loc 3 143 3 view .LVU71
 144:dualMoco.c    ****   static uchar sysExCnt = 0;
 253               		.loc 3 144 3 view .LVU72
 145:dualMoco.c    ****   static uchar stateTransTable[] = {
 254               		.loc 3 145 3 view .LVU73
 146:dualMoco.c    ****     0, 				/* 0 dummy */
 147:dualMoco.c    ****     0,				/* 1 dummy */
 148:dualMoco.c    ****     3,				/* 2->3 NOTE OFF (3) */
 149:dualMoco.c    ****     2 | 0x80,			/* 3->2 */
 150:dualMoco.c    ****     5,				/* 4->5 NOTE ON (3) */
 151:dualMoco.c    ****     4 | 0x80,			/* 5->4 */
 152:dualMoco.c    ****     7,				/* 6->7 Polyphonic key pressure (3) */
 153:dualMoco.c    ****     6 | 0x80,			/* 7->6 */
 154:dualMoco.c    ****     9,				/* 8->9 Control Change (3) */
 155:dualMoco.c    ****     8 | 0x80,			/* 8->9 */
 156:dualMoco.c    ****     10 | 0x80,			/* 10->10 program change (2) */
 157:dualMoco.c    ****     0,				/* dummy */
 158:dualMoco.c    ****     12 | 0x80,			/* 12->12 Channel Pressure (2) */
 159:dualMoco.c    ****     0,				/* 13 dummy */
 160:dualMoco.c    ****     15,				/* 14->15 Pitch Bend (3) */
 161:dualMoco.c    ****     14 | 0x80			/* 15->14 */
 162:dualMoco.c    ****   };
 163:dualMoco.c    **** 
 164:dualMoco.c    ****   if(SysEx){  /* MIDI System Message */
 255               		.loc 3 164 3 view .LVU74
 256               		.loc 3 164 6 is_stmt 0 view .LVU75
 257 0002 8091 0000 		lds r24,SysEx.3233
 258               	.LVL20:
 259               		.loc 3 164 5 view .LVU76
 260 0006 8823      		tst r24
 261 0008 01F0      		breq .L25
 165:dualMoco.c    ****     if(RxByte == 0xf7){		/* MIDI_EndSysEx */
 262               		.loc 3 165 5 is_stmt 1 view .LVU77
 263 000a 8091 0000 		lds r24,sysExCnt.3234
 264 000e 21E0      		ldi r18,lo8(1)
 265 0010 280F      		add r18,r24
 266 0012 E82F      		mov r30,r24
 267 0014 F0E0      		ldi r31,0
 268 0016 E050      		subi r30,lo8(-(utx_buf))
 269 0018 F040      		sbci r31,hi8(-(utx_buf))
 166:dualMoco.c    ****       utx_buf[sysExCnt++] = RxByte;
 270               		.loc 3 166 23 is_stmt 0 view .LVU78
 271 001a 2093 0000 		sts sysExCnt.3234,r18
 272               		.loc 3 166 27 view .LVU79
 273 001e 9083      		st Z,r25
 165:dualMoco.c    ****     if(RxByte == 0xf7){		/* MIDI_EndSysEx */
 274               		.loc 3 165 7 view .LVU80
 275 0020 973F      		cpi r25,lo8(-9)
 276 0022 01F4      		brne .L26
 277               		.loc 3 166 7 is_stmt 1 view .LVU81
 167:dualMoco.c    ****       utx_buf[0] = sysExCnt + 3; /* 0x05(single byte), 0x06(two bytes), or 0x07(three bytes) */
 278               		.loc 3 167 7 view .LVU82
 279               		.loc 3 167 29 is_stmt 0 view .LVU83
 280 0024 8C5F      		subi r24,lo8(-(4))
 281               		.loc 3 167 18 view .LVU84
 282 0026 8093 0000 		sts utx_buf,r24
 168:dualMoco.c    ****       SysEx = FALSE;
 283               		.loc 3 168 7 is_stmt 1 view .LVU85
 284               		.loc 3 168 13 is_stmt 0 view .LVU86
 285 002a 1092 0000 		sts SysEx.3233,__zero_reg__
 169:dualMoco.c    ****       PC = 0;
 286               		.loc 3 169 7 is_stmt 1 view .LVU87
 287               		.loc 3 169 10 is_stmt 0 view .LVU88
 288 002e 1092 0000 		sts PC.3232,__zero_reg__
 170:dualMoco.c    ****       return TRUE;		/* send sysEx */
 289               		.loc 3 170 7 is_stmt 1 view .LVU89
 290               	.L34:
 291               	.LBB46:
 171:dualMoco.c    ****     } else {
 172:dualMoco.c    ****       utx_buf[sysExCnt++] = RxByte;
 173:dualMoco.c    ****       if (sysExCnt == 4) {	/* buffer full */
 174:dualMoco.c    **** 	utx_buf[0] = 0x04;	/* sysEx start */
 175:dualMoco.c    **** 	sysExCnt = 1;
 176:dualMoco.c    **** 	return TRUE;		/* send sysEx */
 177:dualMoco.c    ****       }
 178:dualMoco.c    ****     }
 179:dualMoco.c    ****     return FALSE;
 180:dualMoco.c    ****   }
 181:dualMoco.c    ****   if (RxByte >= 0xf8){		/* Single Byte Message */
 182:dualMoco.c    ****     utx_buf[0] = 0x0f;
 183:dualMoco.c    ****     utx_buf[1] = RxByte;
 184:dualMoco.c    ****     utx_buf[2] = 0;
 185:dualMoco.c    ****     utx_buf[3] = 0;
 186:dualMoco.c    ****     return TRUE;
 187:dualMoco.c    ****   }
 188:dualMoco.c    **** 
 189:dualMoco.c    ****   if(RxByte > 0x7f){		/* Channel message */
 190:dualMoco.c    ****     if(RxByte == 0xf0){		/* MIDI_StartSysEx */
 191:dualMoco.c    ****       SysEx = TRUE;
 192:dualMoco.c    ****       utx_buf[1] = 0xf0;
 193:dualMoco.c    ****       sysExCnt = 2;		/* start utx_buf[2]  */
 194:dualMoco.c    ****       return FALSE;
 195:dualMoco.c    ****     }
 196:dualMoco.c    ****     PC = 0;
 197:dualMoco.c    ****   }
 198:dualMoco.c    **** 
 199:dualMoco.c    ****   if (PC == 0) {
 200:dualMoco.c    ****     PC = (((RxByte >> 4) & 0x07) + 1) * 2;
 201:dualMoco.c    ****     // conversion
 202:dualMoco.c    ****     // 0x80 -> 2, 0x90 -> 4, 0xa0 -> 6, 0xb0 -> 8, 0xc0 -> 10, 0xd0 -> 12, 0xe0 -> 14
 203:dualMoco.c    ****     rx_buf[0] = RxByte >> 4;
 204:dualMoco.c    ****     rx_buf[1] = RxByte;
 205:dualMoco.c    ****     rx_buf[3] = 0;
 206:dualMoco.c    ****   } else {
 207:dualMoco.c    ****     uchar tt = stateTransTable[PC];
 208:dualMoco.c    ****     rx_buf[(PC & 1) + 2] = RxByte;
 209:dualMoco.c    ****     PC = tt & 0x0f;
 210:dualMoco.c    ****     if ((tt & 0x80) != 0) {
 211:dualMoco.c    ****       memcpy(utx_buf, rx_buf, 4);
 212:dualMoco.c    ****       return TRUE;
 292               		.loc 3 212 7 view .LVU90
 293               		.loc 3 212 14 is_stmt 0 view .LVU91
 294 0032 81E0      		ldi r24,lo8(1)
 295               	/* epilogue start */
 296               	.LBE46:
 213:dualMoco.c    ****     }
 214:dualMoco.c    ****   }
 215:dualMoco.c    ****   return FALSE;
 216:dualMoco.c    **** }
 297               		.loc 3 216 1 view .LVU92
 298 0034 0895      		ret
 299               	.L26:
 172:dualMoco.c    ****       if (sysExCnt == 4) {	/* buffer full */
 300               		.loc 3 172 7 is_stmt 1 view .LVU93
 173:dualMoco.c    **** 	utx_buf[0] = 0x04;	/* sysEx start */
 301               		.loc 3 173 7 view .LVU94
 173:dualMoco.c    **** 	utx_buf[0] = 0x04;	/* sysEx start */
 302               		.loc 3 173 10 is_stmt 0 view .LVU95
 303 0036 2430      		cpi r18,lo8(4)
 304 0038 01F0      		breq .L28
 305               	.L33:
 179:dualMoco.c    ****   }
 306               		.loc 3 179 12 view .LVU96
 307 003a 80E0      		ldi r24,0
 308 003c 0895      		ret
 309               	.L28:
 174:dualMoco.c    **** 	sysExCnt = 1;
 310               		.loc 3 174 2 is_stmt 1 view .LVU97
 174:dualMoco.c    **** 	sysExCnt = 1;
 311               		.loc 3 174 13 is_stmt 0 view .LVU98
 312 003e 2093 0000 		sts utx_buf,r18
 175:dualMoco.c    **** 	return TRUE;		/* send sysEx */
 313               		.loc 3 175 2 is_stmt 1 view .LVU99
 175:dualMoco.c    **** 	return TRUE;		/* send sysEx */
 314               		.loc 3 175 11 is_stmt 0 view .LVU100
 315 0042 81E0      		ldi r24,lo8(1)
 316 0044 8093 0000 		sts sysExCnt.3234,r24
 176:dualMoco.c    ****       }
 317               		.loc 3 176 2 is_stmt 1 view .LVU101
 176:dualMoco.c    ****       }
 318               		.loc 3 176 9 is_stmt 0 view .LVU102
 319 0048 0895      		ret
 320               	.L25:
 181:dualMoco.c    ****     utx_buf[0] = 0x0f;
 321               		.loc 3 181 3 is_stmt 1 view .LVU103
 181:dualMoco.c    ****     utx_buf[0] = 0x0f;
 322               		.loc 3 181 6 is_stmt 0 view .LVU104
 323 004a 983F      		cpi r25,lo8(-8)
 324 004c 00F0      		brlo .L29
 182:dualMoco.c    ****     utx_buf[1] = RxByte;
 325               		.loc 3 182 5 is_stmt 1 view .LVU105
 182:dualMoco.c    ****     utx_buf[1] = RxByte;
 326               		.loc 3 182 16 is_stmt 0 view .LVU106
 327 004e 8FE0      		ldi r24,lo8(15)
 328 0050 8093 0000 		sts utx_buf,r24
 183:dualMoco.c    ****     utx_buf[2] = 0;
 329               		.loc 3 183 5 is_stmt 1 view .LVU107
 183:dualMoco.c    ****     utx_buf[2] = 0;
 330               		.loc 3 183 16 is_stmt 0 view .LVU108
 331 0054 9093 0000 		sts utx_buf+1,r25
 184:dualMoco.c    ****     utx_buf[3] = 0;
 332               		.loc 3 184 5 is_stmt 1 view .LVU109
 184:dualMoco.c    ****     utx_buf[3] = 0;
 333               		.loc 3 184 16 is_stmt 0 view .LVU110
 334 0058 1092 0000 		sts utx_buf+2,__zero_reg__
 185:dualMoco.c    ****     return TRUE;
 335               		.loc 3 185 5 is_stmt 1 view .LVU111
 185:dualMoco.c    ****     return TRUE;
 336               		.loc 3 185 16 is_stmt 0 view .LVU112
 337 005c 1092 0000 		sts utx_buf+3,__zero_reg__
 186:dualMoco.c    ****   }
 338               		.loc 3 186 5 is_stmt 1 view .LVU113
 339 0060 00C0      		rjmp .L34
 340               	.L29:
 189:dualMoco.c    ****     if(RxByte == 0xf0){		/* MIDI_StartSysEx */
 341               		.loc 3 189 3 view .LVU114
 189:dualMoco.c    ****     if(RxByte == 0xf0){		/* MIDI_StartSysEx */
 342               		.loc 3 189 5 is_stmt 0 view .LVU115
 343 0062 97FF      		sbrs r25,7
 344 0064 00C0      		rjmp .L30
 190:dualMoco.c    ****       SysEx = TRUE;
 345               		.loc 3 190 5 is_stmt 1 view .LVU116
 190:dualMoco.c    ****       SysEx = TRUE;
 346               		.loc 3 190 7 is_stmt 0 view .LVU117
 347 0066 903F      		cpi r25,lo8(-16)
 348 0068 01F4      		brne .L31
 191:dualMoco.c    ****       utx_buf[1] = 0xf0;
 349               		.loc 3 191 7 is_stmt 1 view .LVU118
 191:dualMoco.c    ****       utx_buf[1] = 0xf0;
 350               		.loc 3 191 13 is_stmt 0 view .LVU119
 351 006a 21E0      		ldi r18,lo8(1)
 352 006c 2093 0000 		sts SysEx.3233,r18
 192:dualMoco.c    ****       sysExCnt = 2;		/* start utx_buf[2]  */
 353               		.loc 3 192 7 is_stmt 1 view .LVU120
 192:dualMoco.c    ****       sysExCnt = 2;		/* start utx_buf[2]  */
 354               		.loc 3 192 18 is_stmt 0 view .LVU121
 355 0070 9093 0000 		sts utx_buf+1,r25
 193:dualMoco.c    ****       return FALSE;
 356               		.loc 3 193 7 is_stmt 1 view .LVU122
 193:dualMoco.c    ****       return FALSE;
 357               		.loc 3 193 16 is_stmt 0 view .LVU123
 358 0074 92E0      		ldi r25,lo8(2)
 359               	.LVL21:
 193:dualMoco.c    ****       return FALSE;
 360               		.loc 3 193 16 view .LVU124
 361 0076 9093 0000 		sts sysExCnt.3234,r25
 194:dualMoco.c    ****     }
 362               		.loc 3 194 7 is_stmt 1 view .LVU125
 194:dualMoco.c    ****     }
 363               		.loc 3 194 14 is_stmt 0 view .LVU126
 364 007a 0895      		ret
 365               	.LVL22:
 366               	.L31:
 196:dualMoco.c    ****   }
 367               		.loc 3 196 5 is_stmt 1 view .LVU127
 196:dualMoco.c    ****   }
 368               		.loc 3 196 8 is_stmt 0 view .LVU128
 369 007c 1092 0000 		sts PC.3232,__zero_reg__
 370               	.L30:
 199:dualMoco.c    ****     PC = (((RxByte >> 4) & 0x07) + 1) * 2;
 371               		.loc 3 199 3 is_stmt 1 view .LVU129
 199:dualMoco.c    ****     PC = (((RxByte >> 4) & 0x07) + 1) * 2;
 372               		.loc 3 199 10 is_stmt 0 view .LVU130
 373 0080 8091 0000 		lds r24,PC.3232
 199:dualMoco.c    ****     PC = (((RxByte >> 4) & 0x07) + 1) * 2;
 374               		.loc 3 199 6 view .LVU131
 375 0084 8111      		cpse r24,__zero_reg__
 376 0086 00C0      		rjmp .L32
 200:dualMoco.c    ****     // conversion
 377               		.loc 3 200 5 is_stmt 1 view .LVU132
 200:dualMoco.c    ****     // conversion
 378               		.loc 3 200 26 is_stmt 0 view .LVU133
 379 0088 392F      		mov r19,r25
 380 008a 3295      		swap r19
 381 008c 3F70      		andi r19,lo8(15)
 200:dualMoco.c    ****     // conversion
 382               		.loc 3 200 8 view .LVU134
 383 008e 232F      		mov r18,r19
 384 0090 2770      		andi r18,lo8(7)
 385 0092 2F5F      		subi r18,lo8(-(1))
 386 0094 220F      		lsl r18
 387 0096 2093 0000 		sts PC.3232,r18
 203:dualMoco.c    ****     rx_buf[1] = RxByte;
 388               		.loc 3 203 5 is_stmt 1 view .LVU135
 203:dualMoco.c    ****     rx_buf[1] = RxByte;
 389               		.loc 3 203 15 is_stmt 0 view .LVU136
 390 009a 3093 0000 		sts rx_buf,r19
 204:dualMoco.c    ****     rx_buf[3] = 0;
 391               		.loc 3 204 5 is_stmt 1 view .LVU137
 204:dualMoco.c    ****     rx_buf[3] = 0;
 392               		.loc 3 204 15 is_stmt 0 view .LVU138
 393 009e 9093 0000 		sts rx_buf+1,r25
 205:dualMoco.c    ****   } else {
 394               		.loc 3 205 5 is_stmt 1 view .LVU139
 205:dualMoco.c    ****   } else {
 395               		.loc 3 205 15 is_stmt 0 view .LVU140
 396 00a2 1092 0000 		sts rx_buf+3,__zero_reg__
 397 00a6 0895      		ret
 398               	.L32:
 399               	.LBB47:
 207:dualMoco.c    ****     rx_buf[(PC & 1) + 2] = RxByte;
 400               		.loc 3 207 5 is_stmt 1 view .LVU141
 207:dualMoco.c    ****     rx_buf[(PC & 1) + 2] = RxByte;
 401               		.loc 3 207 31 is_stmt 0 view .LVU142
 402 00a8 E82F      		mov r30,r24
 403 00aa F0E0      		ldi r31,0
 207:dualMoco.c    ****     rx_buf[(PC & 1) + 2] = RxByte;
 404               		.loc 3 207 11 view .LVU143
 405 00ac E050      		subi r30,lo8(-(stateTransTable.3235))
 406 00ae F040      		sbci r31,hi8(-(stateTransTable.3235))
 407 00b0 4081      		ld r20,Z
 408               	.LVL23:
 208:dualMoco.c    ****     PC = tt & 0x0f;
 409               		.loc 3 208 5 is_stmt 1 view .LVU144
 208:dualMoco.c    ****     PC = tt & 0x0f;
 410               		.loc 3 208 16 is_stmt 0 view .LVU145
 411 00b2 282F      		mov r18,r24
 412 00b4 2170      		andi r18,1
 413 00b6 30E0      		ldi r19,0
 208:dualMoco.c    ****     PC = tt & 0x0f;
 414               		.loc 3 208 26 view .LVU146
 415 00b8 2050      		subi r18,lo8(-(rx_buf))
 416 00ba 3040      		sbci r19,hi8(-(rx_buf))
 417 00bc F901      		movw r30,r18
 418 00be 9283      		std Z+2,r25
 209:dualMoco.c    ****     if ((tt & 0x80) != 0) {
 419               		.loc 3 209 5 is_stmt 1 view .LVU147
 209:dualMoco.c    ****     if ((tt & 0x80) != 0) {
 420               		.loc 3 209 13 is_stmt 0 view .LVU148
 421 00c0 842F      		mov r24,r20
 422 00c2 8F70      		andi r24,lo8(15)
 209:dualMoco.c    ****     if ((tt & 0x80) != 0) {
 423               		.loc 3 209 8 view .LVU149
 424 00c4 8093 0000 		sts PC.3232,r24
 210:dualMoco.c    ****       memcpy(utx_buf, rx_buf, 4);
 425               		.loc 3 210 5 is_stmt 1 view .LVU150
 210:dualMoco.c    ****       memcpy(utx_buf, rx_buf, 4);
 426               		.loc 3 210 8 is_stmt 0 view .LVU151
 427 00c8 47FF      		sbrs r20,7
 428 00ca 00C0      		rjmp .L33
 211:dualMoco.c    ****       return TRUE;
 429               		.loc 3 211 7 is_stmt 1 view .LVU152
 430 00cc 84E0      		ldi r24,lo8(4)
 431 00ce E0E0      		ldi r30,lo8(rx_buf)
 432 00d0 F0E0      		ldi r31,hi8(rx_buf)
 433 00d2 A0E0      		ldi r26,lo8(utx_buf)
 434 00d4 B0E0      		ldi r27,hi8(utx_buf)
 435               		0:
 436 00d6 0190      		ld r0,Z+
 437 00d8 0D92      		st X+,r0
 438 00da 8A95      		dec r24
 439 00dc 01F4      		brne 0b
 440 00de 00C0      		rjmp .L34
 441               	.LBE47:
 442               		.cfi_endproc
 443               	.LFE92:
 445               		.section	.text.processMIDI,"ax",@progbits
 446               	.global	processMIDI
 448               	processMIDI:
 449               	.LFB94:
 217:dualMoco.c    **** 
 218:dualMoco.c    **** /** Main program entry point. This routine contains the overall program flow, including initial
 219:dualMoco.c    ****  *  setup of all components and the main program loop.
 220:dualMoco.c    ****  */
 221:dualMoco.c    **** int main(void) {
 222:dualMoco.c    ****   SetupHardware();
 223:dualMoco.c    **** 
 224:dualMoco.c    ****   if (mocoMode == 1) {
 225:dualMoco.c    ****     processMIDI();
 226:dualMoco.c    ****   } else {
 227:dualMoco.c    ****     processSerial();
 228:dualMoco.c    ****   }
 229:dualMoco.c    **** }
 230:dualMoco.c    **** 
 231:dualMoco.c    **** 
 232:dualMoco.c    **** void processMIDI() {
 450               		.loc 3 232 20 view -0
 451               		.cfi_startproc
 452 0000 CF93      		push r28
 453               	.LCFI2:
 454               		.cfi_def_cfa_offset 3
 455               		.cfi_offset 28, -2
 456 0002 DF93      		push r29
 457               	.LCFI3:
 458               		.cfi_def_cfa_offset 4
 459               		.cfi_offset 29, -3
 460 0004 00D0      		rcall .
 461 0006 00D0      		rcall .
 462               	.LCFI4:
 463               		.cfi_def_cfa_offset 8
 464 0008 CDB7      		in r28,__SP_L__
 465 000a DEB7      		in r29,__SP_H__
 466               	.LCFI5:
 467               		.cfi_def_cfa_register 28
 468               	/* prologue: function */
 469               	/* frame size = 4 */
 470               	/* stack size = 6 */
 471               	.L__stack_usage = 6
 233:dualMoco.c    **** #define CNTMAX 40
 234:dualMoco.c    ****   static uint8_t cnt = CNTMAX;
 472               		.loc 3 234 3 view .LVU154
 235:dualMoco.c    **** 
 236:dualMoco.c    ****   sei();
 473               		.loc 3 236 3 view .LVU155
 474               	/* #APP */
 475               	 ;  236 "dualMoco.c" 1
 476 000c 7894      		sei
 477               	 ;  0 "" 2
 478               	/* #NOAPP */
 479               	.LBB57:
 237:dualMoco.c    **** 
 238:dualMoco.c    ****   for (;;){
 239:dualMoco.c    ****     /* receive from Serial MIDI line */
 240:dualMoco.c    ****     if( UCSR1A & (1<<RXC1)) {
 241:dualMoco.c    ****       utxrdy |= parseSerialMidiMessage(UDR1);
 242:dualMoco.c    ****       LEDs_TurnOnLEDs(LEDMASK_TX);
 243:dualMoco.c    ****       PulseMSRemaining.TxLEDPulse = TX_RX_LED_PULSE_MS;
 480               		.loc 3 243 35 is_stmt 0 view .LVU156
 481 000e 13E0      		ldi r17,lo8(3)
 244:dualMoco.c    ****     }
 245:dualMoco.c    **** 
 246:dualMoco.c    ****     /* send packets to USB MIDI */
 247:dualMoco.c    ****     if( utxrdy ) {
 248:dualMoco.c    ****       MIDI_Device_SendEventPacket(&Keyboard_MIDI_Interface, (MIDI_EventPacket_t *)&utx_buf);
 249:dualMoco.c    ****       MIDI_Device_Flush(&Keyboard_MIDI_Interface);
 250:dualMoco.c    ****       utxrdy = FALSE;
 251:dualMoco.c    ****     }
 252:dualMoco.c    **** 
 253:dualMoco.c    ****     /* receive from USB MIDI */
 254:dualMoco.c    ****     MIDI_EventPacket_t ReceivedMIDIEvent;
 255:dualMoco.c    ****     while (MIDI_Device_ReceiveEventPacket(&Keyboard_MIDI_Interface, &ReceivedMIDIEvent)) {
 256:dualMoco.c    ****       /* for each MIDI packet w/ 4 bytes */
 257:dualMoco.c    ****       parseUSBMidiMessage((uchar *)&ReceivedMIDIEvent, 4);
 258:dualMoco.c    ****       LEDs_TurnOnLEDs(LEDMASK_RX);
 259:dualMoco.c    ****       PulseMSRemaining.RxLEDPulse = TX_RX_LED_PULSE_MS;
 260:dualMoco.c    ****     }
 261:dualMoco.c    ****       
 262:dualMoco.c    ****     /* send to Serial MIDI line  */
 263:dualMoco.c    ****     if( (UCSR1A & (1<<UDRE1)) && uwptr!=irptr ) {
 264:dualMoco.c    ****       UDR1 = tx_buf[irptr++];
 265:dualMoco.c    ****       irptr &= TX_MASK;
 266:dualMoco.c    ****     }
 267:dualMoco.c    ****     
 268:dualMoco.c    ****     if (TIFR0 & (1 << TOV0)) {
 269:dualMoco.c    ****       TIFR0 |= (1 << TOV0);
 270:dualMoco.c    ****       /* Turn off TX LED(s) once the TX pulse period has elapsed */
 271:dualMoco.c    ****       if (PulseMSRemaining.TxLEDPulse && !(--PulseMSRemaining.TxLEDPulse))
 272:dualMoco.c    **** 	LEDs_TurnOffLEDs(LEDMASK_TX);
 273:dualMoco.c    ****       
 274:dualMoco.c    ****       /* Turn off RX LED(s) once the RX pulse period has elapsed */
 275:dualMoco.c    ****       if (PulseMSRemaining.RxLEDPulse && !(--PulseMSRemaining.RxLEDPulse))
 276:dualMoco.c    **** 	LEDs_TurnOffLEDs(LEDMASK_RX);
 277:dualMoco.c    ****     }
 278:dualMoco.c    **** 
 279:dualMoco.c    ****     MIDI_Device_USBTask(&Keyboard_MIDI_Interface);
 280:dualMoco.c    ****     USB_USBTask();
 281:dualMoco.c    **** 
 282:dualMoco.c    ****     if (highSpeed == 1) {
 283:dualMoco.c    ****       cnt--;
 284:dualMoco.c    ****       if (cnt == 0) {
 285:dualMoco.c    **** 	cnt = CNTMAX;
 482               		.loc 3 285 6 view .LVU157
 483 0010 88E2      		ldi r24,lo8(40)
 484 0012 F82E      		mov r15,r24
 286:dualMoco.c    **** 	PORTB ^= 0x02;
 485               		.loc 3 286 8 view .LVU158
 486 0014 02E0      		ldi r16,lo8(2)
 487               	.L51:
 488               	.LBE57:
 238:dualMoco.c    ****     /* receive from Serial MIDI line */
 489               		.loc 3 238 3 is_stmt 1 view .LVU159
 490               	.LBB66:
 240:dualMoco.c    ****       utxrdy |= parseSerialMidiMessage(UDR1);
 491               		.loc 3 240 5 view .LVU160
 240:dualMoco.c    ****       utxrdy |= parseSerialMidiMessage(UDR1);
 492               		.loc 3 240 9 is_stmt 0 view .LVU161
 493 0016 8091 C800 		lds r24,200
 240:dualMoco.c    ****       utxrdy |= parseSerialMidiMessage(UDR1);
 494               		.loc 3 240 7 view .LVU162
 495 001a 87FF      		sbrs r24,7
 496 001c 00C0      		rjmp .L36
 497 001e E090 0000 		lds r14,utxrdy
 241:dualMoco.c    ****       LEDs_TurnOnLEDs(LEDMASK_TX);
 498               		.loc 3 241 7 is_stmt 1 view .LVU163
 241:dualMoco.c    ****       LEDs_TurnOnLEDs(LEDMASK_TX);
 499               		.loc 3 241 17 is_stmt 0 view .LVU164
 500 0022 8091 CE00 		lds r24,206
 501 0026 0E94 0000 		call parseSerialMidiMessage
 502               	.LVL24:
 241:dualMoco.c    ****       LEDs_TurnOnLEDs(LEDMASK_TX);
 503               		.loc 3 241 14 view .LVU165
 504 002a 8E29      		or r24,r14
 505 002c 8093 0000 		sts utxrdy,r24
 242:dualMoco.c    ****       PulseMSRemaining.TxLEDPulse = TX_RX_LED_PULSE_MS;
 506               		.loc 3 242 7 is_stmt 1 view .LVU166
 507               	.LVL25:
 508               	.LBB58:
 509               	.LBI58:
 510               		.file 4 "./Board/LEDs.h"
   1:./Board/LEDs.h **** /*
   2:./Board/LEDs.h ****              LUFA Library
   3:./Board/LEDs.h ****      Copyright (C) Dean Camera, 2010.
   4:./Board/LEDs.h ****               
   5:./Board/LEDs.h ****   dean [at] fourwalledcubicle [dot] com
   6:./Board/LEDs.h ****       www.fourwalledcubicle.com
   7:./Board/LEDs.h **** */
   8:./Board/LEDs.h **** 
   9:./Board/LEDs.h **** /*
  10:./Board/LEDs.h ****   Copyright 2010  Dean Camera (dean [at] fourwalledcubicle [dot] com)
  11:./Board/LEDs.h **** 
  12:./Board/LEDs.h ****   Permission to use, copy, modify, distribute, and sell this 
  13:./Board/LEDs.h ****   software and its documentation for any purpose is hereby granted
  14:./Board/LEDs.h ****   without fee, provided that the above copyright notice appear in 
  15:./Board/LEDs.h ****   all copies and that both that the copyright notice and this
  16:./Board/LEDs.h ****   permission notice and warranty disclaimer appear in supporting 
  17:./Board/LEDs.h ****   documentation, and that the name of the author not be used in 
  18:./Board/LEDs.h ****   advertising or publicity pertaining to distribution of the 
  19:./Board/LEDs.h ****   software without specific, written prior permission.
  20:./Board/LEDs.h **** 
  21:./Board/LEDs.h ****   The author disclaim all warranties with regard to this
  22:./Board/LEDs.h ****   software, including all implied warranties of merchantability
  23:./Board/LEDs.h ****   and fitness.  In no event shall the author be liable for any
  24:./Board/LEDs.h ****   special, indirect or consequential damages or any damages
  25:./Board/LEDs.h ****   whatsoever resulting from loss of use, data or profits, whether
  26:./Board/LEDs.h ****   in an action of contract, negligence or other tortious action,
  27:./Board/LEDs.h ****   arising out of or in connection with the use or performance of
  28:./Board/LEDs.h ****   this software.
  29:./Board/LEDs.h **** */
  30:./Board/LEDs.h **** 
  31:./Board/LEDs.h **** /*
  32:./Board/LEDs.h ****    Board LEDs driver for the Benito board, from www.dorkbotpdx.org.
  33:./Board/LEDs.h **** */
  34:./Board/LEDs.h **** 
  35:./Board/LEDs.h **** #ifndef __LEDS_ARDUINOUNO_H__
  36:./Board/LEDs.h **** #define __LEDS_ARDUINOUNO_H__
  37:./Board/LEDs.h **** 
  38:./Board/LEDs.h **** 	/* Includes: */
  39:./Board/LEDs.h **** 		#include <avr/io.h>
  40:./Board/LEDs.h **** 
  41:./Board/LEDs.h **** /* Enable C linkage for C++ Compilers: */
  42:./Board/LEDs.h **** 		#if defined(__cplusplus)
  43:./Board/LEDs.h **** 			extern "C" {
  44:./Board/LEDs.h **** 		#endif
  45:./Board/LEDs.h **** 
  46:./Board/LEDs.h **** 	/* Preprocessor Checks: */
  47:./Board/LEDs.h **** 		#if !defined(INCLUDE_FROM_LEDS_H)
  48:./Board/LEDs.h **** 			#error Do not include this file directly. Include LUFA/Drivers/Board/LEDS.h instead.
  49:./Board/LEDs.h **** 		#endif
  50:./Board/LEDs.h **** 
  51:./Board/LEDs.h **** 	/* Public Interface - May be used in end-application: */
  52:./Board/LEDs.h **** 		/* Macros: */
  53:./Board/LEDs.h **** 			/** LED mask for the first LED on the board. */
  54:./Board/LEDs.h **** 			#define LEDS_LED1        (1 << 5)
  55:./Board/LEDs.h **** 
  56:./Board/LEDs.h **** 			/** LED mask for the second LED on the board. */
  57:./Board/LEDs.h **** 			#define LEDS_LED2        (1 << 4)
  58:./Board/LEDs.h **** 
  59:./Board/LEDs.h **** 			/** LED mask for all the LEDs on the board. */
  60:./Board/LEDs.h **** 			#define LEDS_ALL_LEDS    (LEDS_LED1 | LEDS_LED2)
  61:./Board/LEDs.h **** 
  62:./Board/LEDs.h **** 			/** LED mask for the none of the board LEDs */
  63:./Board/LEDs.h **** 			#define LEDS_NO_LEDS     0
  64:./Board/LEDs.h **** 
  65:./Board/LEDs.h **** 		/* Inline Functions: */
  66:./Board/LEDs.h **** 		#if !defined(__DOXYGEN__)
  67:./Board/LEDs.h **** 			static inline void LEDs_Init(void)
  68:./Board/LEDs.h **** 			{
  69:./Board/LEDs.h **** 				DDRD  |= LEDS_ALL_LEDS;
  70:./Board/LEDs.h **** 				PORTD |= LEDS_ALL_LEDS;
  71:./Board/LEDs.h **** 			}
  72:./Board/LEDs.h **** 			
  73:./Board/LEDs.h **** 			static inline void LEDs_TurnOnLEDs(const uint8_t LEDMask)
 511               		.loc 4 73 23 view .LVU167
 512               	.LBB59:
  74:./Board/LEDs.h **** 			{
  75:./Board/LEDs.h **** 				PORTD &= ~LEDMask;
 513               		.loc 4 75 5 view .LVU168
 514               		.loc 4 75 11 is_stmt 0 view .LVU169
 515 0030 5D98      		cbi 0xb,5
 516               	.LVL26:
 517               		.loc 4 75 11 view .LVU170
 518               	.LBE59:
 519               	.LBE58:
 243:dualMoco.c    ****     }
 520               		.loc 3 243 7 is_stmt 1 view .LVU171
 243:dualMoco.c    ****     }
 521               		.loc 3 243 35 is_stmt 0 view .LVU172
 522 0032 1093 0000 		sts PulseMSRemaining,r17
 523               	.L36:
 247:dualMoco.c    ****       MIDI_Device_SendEventPacket(&Keyboard_MIDI_Interface, (MIDI_EventPacket_t *)&utx_buf);
 524               		.loc 3 247 5 is_stmt 1 view .LVU173
 247:dualMoco.c    ****       MIDI_Device_SendEventPacket(&Keyboard_MIDI_Interface, (MIDI_EventPacket_t *)&utx_buf);
 525               		.loc 3 247 7 is_stmt 0 view .LVU174
 526 0036 8091 0000 		lds r24,utxrdy
 527 003a 8823      		tst r24
 528 003c 01F0      		breq .L38
 248:dualMoco.c    ****       MIDI_Device_Flush(&Keyboard_MIDI_Interface);
 529               		.loc 3 248 7 is_stmt 1 view .LVU175
 530 003e 60E0      		ldi r22,lo8(utx_buf)
 531 0040 70E0      		ldi r23,hi8(utx_buf)
 532 0042 80E0      		ldi r24,lo8(Keyboard_MIDI_Interface)
 533 0044 90E0      		ldi r25,hi8(Keyboard_MIDI_Interface)
 534 0046 0E94 0000 		call MIDI_Device_SendEventPacket
 535               	.LVL27:
 249:dualMoco.c    ****       utxrdy = FALSE;
 536               		.loc 3 249 7 view .LVU176
 537 004a 80E0      		ldi r24,lo8(Keyboard_MIDI_Interface)
 538 004c 90E0      		ldi r25,hi8(Keyboard_MIDI_Interface)
 539 004e 0E94 0000 		call MIDI_Device_Flush
 540               	.LVL28:
 250:dualMoco.c    ****     }
 541               		.loc 3 250 7 view .LVU177
 250:dualMoco.c    ****     }
 542               		.loc 3 250 14 is_stmt 0 view .LVU178
 543 0052 1092 0000 		sts utxrdy,__zero_reg__
 544               	.L38:
 255:dualMoco.c    ****       /* for each MIDI packet w/ 4 bytes */
 545               		.loc 3 255 11 is_stmt 1 view .LVU179
 255:dualMoco.c    ****       /* for each MIDI packet w/ 4 bytes */
 546               		.loc 3 255 12 is_stmt 0 view .LVU180
 547 0056 BE01      		movw r22,r28
 548 0058 6F5F      		subi r22,-1
 549 005a 7F4F      		sbci r23,-1
 550 005c 80E0      		ldi r24,lo8(Keyboard_MIDI_Interface)
 551 005e 90E0      		ldi r25,hi8(Keyboard_MIDI_Interface)
 552 0060 0E94 0000 		call MIDI_Device_ReceiveEventPacket
 553               	.LVL29:
 255:dualMoco.c    ****       /* for each MIDI packet w/ 4 bytes */
 554               		.loc 3 255 11 view .LVU181
 555 0064 8111      		cpse r24,__zero_reg__
 556 0066 00C0      		rjmp .L39
 263:dualMoco.c    ****       UDR1 = tx_buf[irptr++];
 557               		.loc 3 263 5 is_stmt 1 view .LVU182
 263:dualMoco.c    ****       UDR1 = tx_buf[irptr++];
 558               		.loc 3 263 10 is_stmt 0 view .LVU183
 559 0068 8091 C800 		lds r24,200
 263:dualMoco.c    ****       UDR1 = tx_buf[irptr++];
 560               		.loc 3 263 7 view .LVU184
 561 006c 85FF      		sbrs r24,5
 562 006e 00C0      		rjmp .L40
 263:dualMoco.c    ****       UDR1 = tx_buf[irptr++];
 563               		.loc 3 263 39 discriminator 1 view .LVU185
 564 0070 E091 0000 		lds r30,irptr
 263:dualMoco.c    ****       UDR1 = tx_buf[irptr++];
 565               		.loc 3 263 31 discriminator 1 view .LVU186
 566 0074 8091 0000 		lds r24,uwptr
 567 0078 8E17      		cp r24,r30
 568 007a 01F0      		breq .L40
 264:dualMoco.c    ****       irptr &= TX_MASK;
 569               		.loc 3 264 7 is_stmt 1 view .LVU187
 264:dualMoco.c    ****       irptr &= TX_MASK;
 570               		.loc 3 264 26 is_stmt 0 view .LVU188
 571 007c 81E0      		ldi r24,lo8(1)
 572 007e 8E0F      		add r24,r30
 573 0080 8093 0000 		sts irptr,r24
 574 0084 F0E0      		ldi r31,0
 264:dualMoco.c    ****       irptr &= TX_MASK;
 575               		.loc 3 264 20 view .LVU189
 576 0086 E050      		subi r30,lo8(-(tx_buf))
 577 0088 F040      		sbci r31,hi8(-(tx_buf))
 578 008a 8081      		ld r24,Z
 264:dualMoco.c    ****       irptr &= TX_MASK;
 579               		.loc 3 264 12 view .LVU190
 580 008c 8093 CE00 		sts 206,r24
 265:dualMoco.c    ****     }
 581               		.loc 3 265 7 is_stmt 1 view .LVU191
 265:dualMoco.c    ****     }
 582               		.loc 3 265 13 is_stmt 0 view .LVU192
 583 0090 8091 0000 		lds r24,irptr
 584 0094 8F71      		andi r24,lo8(31)
 585 0096 8093 0000 		sts irptr,r24
 586               	.L40:
 268:dualMoco.c    ****       TIFR0 |= (1 << TOV0);
 587               		.loc 3 268 5 is_stmt 1 view .LVU193
 268:dualMoco.c    ****       TIFR0 |= (1 << TOV0);
 588               		.loc 3 268 8 is_stmt 0 view .LVU194
 589 009a A89B      		sbis 0x15,0
 590 009c 00C0      		rjmp .L42
 269:dualMoco.c    ****       /* Turn off TX LED(s) once the TX pulse period has elapsed */
 591               		.loc 3 269 7 is_stmt 1 view .LVU195
 269:dualMoco.c    ****       /* Turn off TX LED(s) once the TX pulse period has elapsed */
 592               		.loc 3 269 13 is_stmt 0 view .LVU196
 593 009e A89A      		sbi 0x15,0
 271:dualMoco.c    **** 	LEDs_TurnOffLEDs(LEDMASK_TX);
 594               		.loc 3 271 7 is_stmt 1 view .LVU197
 271:dualMoco.c    **** 	LEDs_TurnOffLEDs(LEDMASK_TX);
 595               		.loc 3 271 27 is_stmt 0 view .LVU198
 596 00a0 8091 0000 		lds r24,PulseMSRemaining
 271:dualMoco.c    **** 	LEDs_TurnOffLEDs(LEDMASK_TX);
 597               		.loc 3 271 10 view .LVU199
 598 00a4 8823      		tst r24
 599 00a6 01F0      		breq .L44
 271:dualMoco.c    **** 	LEDs_TurnOffLEDs(LEDMASK_TX);
 600               		.loc 3 271 62 discriminator 1 view .LVU200
 601 00a8 8091 0000 		lds r24,PulseMSRemaining
 271:dualMoco.c    **** 	LEDs_TurnOffLEDs(LEDMASK_TX);
 602               		.loc 3 271 44 discriminator 1 view .LVU201
 603 00ac 8150      		subi r24,lo8(-(-1))
 271:dualMoco.c    **** 	LEDs_TurnOffLEDs(LEDMASK_TX);
 604               		.loc 3 271 39 discriminator 1 view .LVU202
 605 00ae 8093 0000 		sts PulseMSRemaining,r24
 606 00b2 8111      		cpse r24,__zero_reg__
 607 00b4 00C0      		rjmp .L44
 272:dualMoco.c    ****       
 608               		.loc 3 272 2 is_stmt 1 view .LVU203
 609               	.LVL30:
 610               	.LBB60:
 611               	.LBI60:
  76:./Board/LEDs.h **** 			}
  77:./Board/LEDs.h **** 
  78:./Board/LEDs.h **** 			static inline void LEDs_TurnOffLEDs(const uint8_t LEDMask)
 612               		.loc 4 78 23 view .LVU204
 613               	.LBB61:
  79:./Board/LEDs.h **** 			{
  80:./Board/LEDs.h **** 				PORTD |= LEDMask;
 614               		.loc 4 80 5 view .LVU205
 615               		.loc 4 80 11 is_stmt 0 view .LVU206
 616 00b6 5D9A      		sbi 0xb,5
 617               	.LVL31:
 618               	.L44:
 619               		.loc 4 80 11 view .LVU207
 620               	.LBE61:
 621               	.LBE60:
 275:dualMoco.c    **** 	LEDs_TurnOffLEDs(LEDMASK_RX);
 622               		.loc 3 275 7 is_stmt 1 view .LVU208
 275:dualMoco.c    **** 	LEDs_TurnOffLEDs(LEDMASK_RX);
 623               		.loc 3 275 27 is_stmt 0 view .LVU209
 624 00b8 8091 0000 		lds r24,PulseMSRemaining+1
 275:dualMoco.c    **** 	LEDs_TurnOffLEDs(LEDMASK_RX);
 625               		.loc 3 275 10 view .LVU210
 626 00bc 8823      		tst r24
 627 00be 01F0      		breq .L42
 275:dualMoco.c    **** 	LEDs_TurnOffLEDs(LEDMASK_RX);
 628               		.loc 3 275 62 discriminator 1 view .LVU211
 629 00c0 8091 0000 		lds r24,PulseMSRemaining+1
 275:dualMoco.c    **** 	LEDs_TurnOffLEDs(LEDMASK_RX);
 630               		.loc 3 275 44 discriminator 1 view .LVU212
 631 00c4 8150      		subi r24,lo8(-(-1))
 275:dualMoco.c    **** 	LEDs_TurnOffLEDs(LEDMASK_RX);
 632               		.loc 3 275 39 discriminator 1 view .LVU213
 633 00c6 8093 0000 		sts PulseMSRemaining+1,r24
 634 00ca 8111      		cpse r24,__zero_reg__
 635 00cc 00C0      		rjmp .L42
 276:dualMoco.c    ****     }
 636               		.loc 3 276 2 is_stmt 1 view .LVU214
 637               	.LVL32:
 638               	.LBB62:
 639               	.LBI62:
  78:./Board/LEDs.h **** 			{
 640               		.loc 4 78 23 view .LVU215
 641               	.LBB63:
 642               		.loc 4 80 5 view .LVU216
 643               		.loc 4 80 11 is_stmt 0 view .LVU217
 644 00ce 5C9A      		sbi 0xb,4
 645               	.LVL33:
 646               	.L42:
 647               		.loc 4 80 11 view .LVU218
 648               	.LBE63:
 649               	.LBE62:
 279:dualMoco.c    ****     USB_USBTask();
 650               		.loc 3 279 5 is_stmt 1 view .LVU219
 279:dualMoco.c    ****     USB_USBTask();
 651               		.loc 3 279 5 is_stmt 0 view .LVU220
 652               	.LBE66:
 653               		.file 5 "LUFA-100807/LUFA/Drivers/USB/Class/Device/MIDI.h"
   1:LUFA-100807/LUFA/Drivers/USB/Class/Device/MIDI.h **** /*
   2:LUFA-100807/LUFA/Drivers/USB/Class/Device/MIDI.h ****              LUFA Library
   3:LUFA-100807/LUFA/Drivers/USB/Class/Device/MIDI.h ****      Copyright (C) Dean Camera, 2010.
   4:LUFA-100807/LUFA/Drivers/USB/Class/Device/MIDI.h ****               
   5:LUFA-100807/LUFA/Drivers/USB/Class/Device/MIDI.h ****   dean [at] fourwalledcubicle [dot] com
   6:LUFA-100807/LUFA/Drivers/USB/Class/Device/MIDI.h ****       www.fourwalledcubicle.com
   7:LUFA-100807/LUFA/Drivers/USB/Class/Device/MIDI.h **** */
   8:LUFA-100807/LUFA/Drivers/USB/Class/Device/MIDI.h **** 
   9:LUFA-100807/LUFA/Drivers/USB/Class/Device/MIDI.h **** /*
  10:LUFA-100807/LUFA/Drivers/USB/Class/Device/MIDI.h ****   Copyright 2010  Dean Camera (dean [at] fourwalledcubicle [dot] com)
  11:LUFA-100807/LUFA/Drivers/USB/Class/Device/MIDI.h **** 
  12:LUFA-100807/LUFA/Drivers/USB/Class/Device/MIDI.h ****   Permission to use, copy, modify, distribute, and sell this 
  13:LUFA-100807/LUFA/Drivers/USB/Class/Device/MIDI.h ****   software and its documentation for any purpose is hereby granted
  14:LUFA-100807/LUFA/Drivers/USB/Class/Device/MIDI.h ****   without fee, provided that the above copyright notice appear in 
  15:LUFA-100807/LUFA/Drivers/USB/Class/Device/MIDI.h ****   all copies and that both that the copyright notice and this
  16:LUFA-100807/LUFA/Drivers/USB/Class/Device/MIDI.h ****   permission notice and warranty disclaimer appear in supporting 
  17:LUFA-100807/LUFA/Drivers/USB/Class/Device/MIDI.h ****   documentation, and that the name of the author not be used in 
  18:LUFA-100807/LUFA/Drivers/USB/Class/Device/MIDI.h ****   advertising or publicity pertaining to distribution of the 
  19:LUFA-100807/LUFA/Drivers/USB/Class/Device/MIDI.h ****   software without specific, written prior permission.
  20:LUFA-100807/LUFA/Drivers/USB/Class/Device/MIDI.h **** 
  21:LUFA-100807/LUFA/Drivers/USB/Class/Device/MIDI.h ****   The author disclaim all warranties with regard to this
  22:LUFA-100807/LUFA/Drivers/USB/Class/Device/MIDI.h ****   software, including all implied warranties of merchantability
  23:LUFA-100807/LUFA/Drivers/USB/Class/Device/MIDI.h ****   and fitness.  In no event shall the author be liable for any
  24:LUFA-100807/LUFA/Drivers/USB/Class/Device/MIDI.h ****   special, indirect or consequential damages or any damages
  25:LUFA-100807/LUFA/Drivers/USB/Class/Device/MIDI.h ****   whatsoever resulting from loss of use, data or profits, whether
  26:LUFA-100807/LUFA/Drivers/USB/Class/Device/MIDI.h ****   in an action of contract, negligence or other tortious action,
  27:LUFA-100807/LUFA/Drivers/USB/Class/Device/MIDI.h ****   arising out of or in connection with the use or performance of
  28:LUFA-100807/LUFA/Drivers/USB/Class/Device/MIDI.h ****   this software.
  29:LUFA-100807/LUFA/Drivers/USB/Class/Device/MIDI.h **** */
  30:LUFA-100807/LUFA/Drivers/USB/Class/Device/MIDI.h **** 
  31:LUFA-100807/LUFA/Drivers/USB/Class/Device/MIDI.h **** /** \file
  32:LUFA-100807/LUFA/Drivers/USB/Class/Device/MIDI.h ****  *  \brief Device mode driver for the library USB MIDI Class driver.
  33:LUFA-100807/LUFA/Drivers/USB/Class/Device/MIDI.h ****  *
  34:LUFA-100807/LUFA/Drivers/USB/Class/Device/MIDI.h ****  *  Device mode driver for the library USB MIDI Class driver.
  35:LUFA-100807/LUFA/Drivers/USB/Class/Device/MIDI.h ****  *
  36:LUFA-100807/LUFA/Drivers/USB/Class/Device/MIDI.h ****  *  \note This file should not be included directly. It is automatically included as needed by the 
  37:LUFA-100807/LUFA/Drivers/USB/Class/Device/MIDI.h ****  *        dispatch header located in LUFA/Drivers/USB/Class/MIDI.h.
  38:LUFA-100807/LUFA/Drivers/USB/Class/Device/MIDI.h ****  */
  39:LUFA-100807/LUFA/Drivers/USB/Class/Device/MIDI.h **** 
  40:LUFA-100807/LUFA/Drivers/USB/Class/Device/MIDI.h **** /** \ingroup Group_USBClassMIDI
  41:LUFA-100807/LUFA/Drivers/USB/Class/Device/MIDI.h ****  *  @defgroup Group_USBClassMIDIDevice MIDI Class Device Mode Driver
  42:LUFA-100807/LUFA/Drivers/USB/Class/Device/MIDI.h ****  *
  43:LUFA-100807/LUFA/Drivers/USB/Class/Device/MIDI.h ****  *  \section Sec_Dependencies Module Source Dependencies
  44:LUFA-100807/LUFA/Drivers/USB/Class/Device/MIDI.h ****  *  The following files must be built with any user project that uses this module:
  45:LUFA-100807/LUFA/Drivers/USB/Class/Device/MIDI.h ****  *    - LUFA/Drivers/USB/Class/Device/MIDI.c <i>(Makefile source module name: LUFA_SRC_USBCLASS)</i
  46:LUFA-100807/LUFA/Drivers/USB/Class/Device/MIDI.h ****  *
  47:LUFA-100807/LUFA/Drivers/USB/Class/Device/MIDI.h ****  *  \section Module Description
  48:LUFA-100807/LUFA/Drivers/USB/Class/Device/MIDI.h ****  *  Device Mode USB Class driver framework interface, for the MIDI USB Class driver.
  49:LUFA-100807/LUFA/Drivers/USB/Class/Device/MIDI.h ****  *
  50:LUFA-100807/LUFA/Drivers/USB/Class/Device/MIDI.h ****  *  @{
  51:LUFA-100807/LUFA/Drivers/USB/Class/Device/MIDI.h ****  */
  52:LUFA-100807/LUFA/Drivers/USB/Class/Device/MIDI.h **** 
  53:LUFA-100807/LUFA/Drivers/USB/Class/Device/MIDI.h **** #ifndef _MIDI_CLASS_DEVICE_H_
  54:LUFA-100807/LUFA/Drivers/USB/Class/Device/MIDI.h **** #define _MIDI_CLASS_DEVICE_H_
  55:LUFA-100807/LUFA/Drivers/USB/Class/Device/MIDI.h **** 
  56:LUFA-100807/LUFA/Drivers/USB/Class/Device/MIDI.h **** 	/* Includes: */
  57:LUFA-100807/LUFA/Drivers/USB/Class/Device/MIDI.h **** 		#include "../../USB.h"
  58:LUFA-100807/LUFA/Drivers/USB/Class/Device/MIDI.h **** 		#include "../Common/MIDI.h"
  59:LUFA-100807/LUFA/Drivers/USB/Class/Device/MIDI.h **** 
  60:LUFA-100807/LUFA/Drivers/USB/Class/Device/MIDI.h **** 		#include <string.h>
  61:LUFA-100807/LUFA/Drivers/USB/Class/Device/MIDI.h **** 
  62:LUFA-100807/LUFA/Drivers/USB/Class/Device/MIDI.h **** 	/* Enable C linkage for C++ Compilers: */
  63:LUFA-100807/LUFA/Drivers/USB/Class/Device/MIDI.h **** 		#if defined(__cplusplus)
  64:LUFA-100807/LUFA/Drivers/USB/Class/Device/MIDI.h **** 			extern "C" {
  65:LUFA-100807/LUFA/Drivers/USB/Class/Device/MIDI.h **** 		#endif
  66:LUFA-100807/LUFA/Drivers/USB/Class/Device/MIDI.h **** 
  67:LUFA-100807/LUFA/Drivers/USB/Class/Device/MIDI.h **** 	/* Preprocessor Checks: */
  68:LUFA-100807/LUFA/Drivers/USB/Class/Device/MIDI.h **** 		#if !defined(__INCLUDE_FROM_MIDI_DRIVER)
  69:LUFA-100807/LUFA/Drivers/USB/Class/Device/MIDI.h **** 			#error Do not include this file directly. Include LUFA/Drivers/Class/MIDI.h instead.
  70:LUFA-100807/LUFA/Drivers/USB/Class/Device/MIDI.h **** 		#endif
  71:LUFA-100807/LUFA/Drivers/USB/Class/Device/MIDI.h **** 
  72:LUFA-100807/LUFA/Drivers/USB/Class/Device/MIDI.h **** 	/* Public Interface - May be used in end-application: */
  73:LUFA-100807/LUFA/Drivers/USB/Class/Device/MIDI.h **** 		/* Type Define: */
  74:LUFA-100807/LUFA/Drivers/USB/Class/Device/MIDI.h **** 			/** \brief MIDI Class Device Mode Configuration and State Structure.
  75:LUFA-100807/LUFA/Drivers/USB/Class/Device/MIDI.h **** 			 *
  76:LUFA-100807/LUFA/Drivers/USB/Class/Device/MIDI.h **** 			 *  Class state structure. An instance of this structure should be made for each MIDI interface
  77:LUFA-100807/LUFA/Drivers/USB/Class/Device/MIDI.h **** 			 *  within the user application, and passed to each of the MIDI class driver functions as the
  78:LUFA-100807/LUFA/Drivers/USB/Class/Device/MIDI.h **** 			 *  MIDIInterfaceInfo parameter. This stores each MIDI interface's configuration and state infor
  79:LUFA-100807/LUFA/Drivers/USB/Class/Device/MIDI.h **** 			 */
  80:LUFA-100807/LUFA/Drivers/USB/Class/Device/MIDI.h **** 			typedef struct
  81:LUFA-100807/LUFA/Drivers/USB/Class/Device/MIDI.h **** 			{
  82:LUFA-100807/LUFA/Drivers/USB/Class/Device/MIDI.h **** 				const struct
  83:LUFA-100807/LUFA/Drivers/USB/Class/Device/MIDI.h **** 				{
  84:LUFA-100807/LUFA/Drivers/USB/Class/Device/MIDI.h **** 					uint8_t  StreamingInterfaceNumber; /**< Index of the Audio Streaming interface within the devi
  85:LUFA-100807/LUFA/Drivers/USB/Class/Device/MIDI.h **** 
  86:LUFA-100807/LUFA/Drivers/USB/Class/Device/MIDI.h **** 					uint8_t  DataINEndpointNumber; /**< Endpoint number of the incoming MIDI data, if available (z
  87:LUFA-100807/LUFA/Drivers/USB/Class/Device/MIDI.h **** 					uint16_t DataINEndpointSize; /**< Size in bytes of the incoming MIDI data endpoint, if availab
  88:LUFA-100807/LUFA/Drivers/USB/Class/Device/MIDI.h **** 					bool     DataINEndpointDoubleBank; /**< Indicates if the MIDI interface's IN data endpoint sho
  89:LUFA-100807/LUFA/Drivers/USB/Class/Device/MIDI.h **** 
  90:LUFA-100807/LUFA/Drivers/USB/Class/Device/MIDI.h **** 					uint8_t  DataOUTEndpointNumber; /**< Endpoint number of the outgoing MIDI data, if available (
  91:LUFA-100807/LUFA/Drivers/USB/Class/Device/MIDI.h **** 					uint16_t DataOUTEndpointSize; /**< Size in bytes of the outgoing MIDI data endpoint, if availa
  92:LUFA-100807/LUFA/Drivers/USB/Class/Device/MIDI.h **** 					bool     DataOUTEndpointDoubleBank; /**< Indicates if the MIDI interface's IN data endpoint sh
  93:LUFA-100807/LUFA/Drivers/USB/Class/Device/MIDI.h **** 				} Config; /**< Config data for the USB class interface within the device. All elements in this 
  94:LUFA-100807/LUFA/Drivers/USB/Class/Device/MIDI.h **** 				           *   <b>must</b> be set or the interface will fail to enumerate and operate correctly
  95:LUFA-100807/LUFA/Drivers/USB/Class/Device/MIDI.h **** 				           */									 
  96:LUFA-100807/LUFA/Drivers/USB/Class/Device/MIDI.h **** 				struct
  97:LUFA-100807/LUFA/Drivers/USB/Class/Device/MIDI.h **** 				{
  98:LUFA-100807/LUFA/Drivers/USB/Class/Device/MIDI.h **** 					// No state information for this class yet
  99:LUFA-100807/LUFA/Drivers/USB/Class/Device/MIDI.h **** 				} State; /**< State data for the USB class interface within the device. All elements in this se
 100:LUFA-100807/LUFA/Drivers/USB/Class/Device/MIDI.h **** 				          *   are reset to their defaults when the interface is enumerated.
 101:LUFA-100807/LUFA/Drivers/USB/Class/Device/MIDI.h **** 				          */
 102:LUFA-100807/LUFA/Drivers/USB/Class/Device/MIDI.h **** 			} USB_ClassInfo_MIDI_Device_t;	
 103:LUFA-100807/LUFA/Drivers/USB/Class/Device/MIDI.h **** 	
 104:LUFA-100807/LUFA/Drivers/USB/Class/Device/MIDI.h **** 		/* Function Prototypes: */
 105:LUFA-100807/LUFA/Drivers/USB/Class/Device/MIDI.h **** 			/** Configures the endpoints of a given MIDI interface, ready for use. This should be linked to 
 106:LUFA-100807/LUFA/Drivers/USB/Class/Device/MIDI.h **** 			 *  \ref EVENT_USB_Device_ConfigurationChanged() event so that the endpoints are configured when
 107:LUFA-100807/LUFA/Drivers/USB/Class/Device/MIDI.h **** 			 *  containing the given MIDI interface is selected.
 108:LUFA-100807/LUFA/Drivers/USB/Class/Device/MIDI.h **** 			 *
 109:LUFA-100807/LUFA/Drivers/USB/Class/Device/MIDI.h **** 			 *  \param[in,out] MIDIInterfaceInfo  Pointer to a structure containing a MIDI Class configurati
 110:LUFA-100807/LUFA/Drivers/USB/Class/Device/MIDI.h **** 			 *
 111:LUFA-100807/LUFA/Drivers/USB/Class/Device/MIDI.h **** 			 *  \return Boolean true if the endpoints were successfully configured, false otherwise.
 112:LUFA-100807/LUFA/Drivers/USB/Class/Device/MIDI.h **** 			 */
 113:LUFA-100807/LUFA/Drivers/USB/Class/Device/MIDI.h **** 			bool MIDI_Device_ConfigureEndpoints(USB_ClassInfo_MIDI_Device_t* const MIDIInterfaceInfo) ATTR_N
 114:LUFA-100807/LUFA/Drivers/USB/Class/Device/MIDI.h **** 			
 115:LUFA-100807/LUFA/Drivers/USB/Class/Device/MIDI.h **** 			/** Sends a MIDI event packet to the host. If no host is connected, the event packet is discarde
 116:LUFA-100807/LUFA/Drivers/USB/Class/Device/MIDI.h **** 			 *  endpoint bank until either the endpoint bank is full, or \ref MIDI_Device_Flush() is called.
 117:LUFA-100807/LUFA/Drivers/USB/Class/Device/MIDI.h **** 			 *  MIDI events to be packed into a single endpoint packet, increasing data throughput.
 118:LUFA-100807/LUFA/Drivers/USB/Class/Device/MIDI.h **** 			 *
 119:LUFA-100807/LUFA/Drivers/USB/Class/Device/MIDI.h **** 			 *  \pre This function must only be called when the Host state machine is in the HOST_STATE_Conf
 120:LUFA-100807/LUFA/Drivers/USB/Class/Device/MIDI.h **** 			 *       call will fail.
 121:LUFA-100807/LUFA/Drivers/USB/Class/Device/MIDI.h **** 			 *
 122:LUFA-100807/LUFA/Drivers/USB/Class/Device/MIDI.h **** 			 *  \param[in,out] MIDIInterfaceInfo  Pointer to a structure containing a MIDI Class configurati
 123:LUFA-100807/LUFA/Drivers/USB/Class/Device/MIDI.h **** 			 *  \param[in]     Event              Pointer to a populated USB_MIDI_EventPacket_t structure co
 124:LUFA-100807/LUFA/Drivers/USB/Class/Device/MIDI.h **** 			 *
 125:LUFA-100807/LUFA/Drivers/USB/Class/Device/MIDI.h **** 			 *  \return A value from the \ref Endpoint_Stream_RW_ErrorCodes_t enum.
 126:LUFA-100807/LUFA/Drivers/USB/Class/Device/MIDI.h **** 			 */
 127:LUFA-100807/LUFA/Drivers/USB/Class/Device/MIDI.h **** 			uint8_t MIDI_Device_SendEventPacket(USB_ClassInfo_MIDI_Device_t* const MIDIInterfaceInfo,
 128:LUFA-100807/LUFA/Drivers/USB/Class/Device/MIDI.h **** 			                                    const MIDI_EventPacket_t* const Event) ATTR_NON_NULL_PTR_ARG
 129:LUFA-100807/LUFA/Drivers/USB/Class/Device/MIDI.h **** 
 130:LUFA-100807/LUFA/Drivers/USB/Class/Device/MIDI.h **** 
 131:LUFA-100807/LUFA/Drivers/USB/Class/Device/MIDI.h **** 			/** Flushes the MIDI send buffer, sending any queued MIDI events to the host. This should be cal
 132:LUFA-100807/LUFA/Drivers/USB/Class/Device/MIDI.h **** 			 *  \ref MIDI_Device_SendEventPacket() function's packing behaviour, to flush queued events.
 133:LUFA-100807/LUFA/Drivers/USB/Class/Device/MIDI.h **** 			 *
 134:LUFA-100807/LUFA/Drivers/USB/Class/Device/MIDI.h **** 			 *  \param[in,out] MIDIInterfaceInfo  Pointer to a structure containing a MIDI Class configurati
 135:LUFA-100807/LUFA/Drivers/USB/Class/Device/MIDI.h **** 			 *
 136:LUFA-100807/LUFA/Drivers/USB/Class/Device/MIDI.h **** 			 *  \return A value from the \ref Endpoint_WaitUntilReady_ErrorCodes_t enum.
 137:LUFA-100807/LUFA/Drivers/USB/Class/Device/MIDI.h **** 			 */
 138:LUFA-100807/LUFA/Drivers/USB/Class/Device/MIDI.h **** 			uint8_t MIDI_Device_Flush(USB_ClassInfo_MIDI_Device_t* const MIDIInterfaceInfo) ATTR_NON_NULL_PT
 139:LUFA-100807/LUFA/Drivers/USB/Class/Device/MIDI.h **** 
 140:LUFA-100807/LUFA/Drivers/USB/Class/Device/MIDI.h **** 			/** Receives a MIDI event packet from the host. Events are unpacked from the endpoint, thus if t
 141:LUFA-100807/LUFA/Drivers/USB/Class/Device/MIDI.h **** 			 *  multiple MIDI events from the host in the one packet, multiple calls to this function will r
 142:LUFA-100807/LUFA/Drivers/USB/Class/Device/MIDI.h **** 			 *
 143:LUFA-100807/LUFA/Drivers/USB/Class/Device/MIDI.h **** 			 *  \pre This function must only be called when the Host state machine is in the HOST_STATE_Conf
 144:LUFA-100807/LUFA/Drivers/USB/Class/Device/MIDI.h **** 			 *       call will fail.
 145:LUFA-100807/LUFA/Drivers/USB/Class/Device/MIDI.h **** 			 *
 146:LUFA-100807/LUFA/Drivers/USB/Class/Device/MIDI.h **** 			 *  \param[in,out] MIDIInterfaceInfo  Pointer to a structure containing a MIDI Class configurati
 147:LUFA-100807/LUFA/Drivers/USB/Class/Device/MIDI.h **** 			 *  \param[out]    Event              Pointer to a USB_MIDI_EventPacket_t structure where the re
 148:LUFA-100807/LUFA/Drivers/USB/Class/Device/MIDI.h **** 			 *
 149:LUFA-100807/LUFA/Drivers/USB/Class/Device/MIDI.h **** 			 *  \return Boolean true if a MIDI event packet was received, false otherwise.
 150:LUFA-100807/LUFA/Drivers/USB/Class/Device/MIDI.h **** 			 */
 151:LUFA-100807/LUFA/Drivers/USB/Class/Device/MIDI.h **** 			bool MIDI_Device_ReceiveEventPacket(USB_ClassInfo_MIDI_Device_t* const MIDIInterfaceInfo,
 152:LUFA-100807/LUFA/Drivers/USB/Class/Device/MIDI.h **** 			                                    MIDI_EventPacket_t* const Event) ATTR_NON_NULL_PTR_ARG(1) AT
 153:LUFA-100807/LUFA/Drivers/USB/Class/Device/MIDI.h **** 
 154:LUFA-100807/LUFA/Drivers/USB/Class/Device/MIDI.h **** 		/* Inline Functions: */
 155:LUFA-100807/LUFA/Drivers/USB/Class/Device/MIDI.h **** 			/** General management task for a given MIDI class interface, required for the correct operation
 156:LUFA-100807/LUFA/Drivers/USB/Class/Device/MIDI.h **** 			 *  be called frequently in the main program loop, before the master USB management task \ref US
 157:LUFA-100807/LUFA/Drivers/USB/Class/Device/MIDI.h **** 			 *
 158:LUFA-100807/LUFA/Drivers/USB/Class/Device/MIDI.h **** 			 *  \param[in,out] MIDIInterfaceInfo  Pointer to a structure containing a MIDI Class configurati
 159:LUFA-100807/LUFA/Drivers/USB/Class/Device/MIDI.h **** 			 */
 160:LUFA-100807/LUFA/Drivers/USB/Class/Device/MIDI.h **** 			static inline void MIDI_Device_USBTask(USB_ClassInfo_MIDI_Device_t* const MIDIInterfaceInfo) ATT
 161:LUFA-100807/LUFA/Drivers/USB/Class/Device/MIDI.h **** 			static inline void MIDI_Device_USBTask(USB_ClassInfo_MIDI_Device_t* const MIDIInterfaceInfo)
 162:LUFA-100807/LUFA/Drivers/USB/Class/Device/MIDI.h **** 			{
 163:LUFA-100807/LUFA/Drivers/USB/Class/Device/MIDI.h **** 				(void)MIDIInterfaceInfo;
 654               		.loc 5 163 5 is_stmt 1 view .LVU221
 655               	.LBB67:
 280:dualMoco.c    **** 
 656               		.loc 3 280 5 view .LVU222
 657 00d0 0E94 0000 		call USB_USBTask
 658               	.LVL34:
 282:dualMoco.c    ****       cnt--;
 659               		.loc 3 282 5 view .LVU223
 282:dualMoco.c    ****       cnt--;
 660               		.loc 3 282 8 is_stmt 0 view .LVU224
 661 00d4 8091 0000 		lds r24,highSpeed
 662 00d8 8130      		cpi r24,lo8(1)
 663 00da 01F0      		breq .+2
 664 00dc 00C0      		rjmp .L51
 283:dualMoco.c    ****       if (cnt == 0) {
 665               		.loc 3 283 7 is_stmt 1 view .LVU225
 283:dualMoco.c    ****       if (cnt == 0) {
 666               		.loc 3 283 10 is_stmt 0 view .LVU226
 667 00de 8091 0000 		lds r24,cnt.3242
 668 00e2 9FEF      		ldi r25,lo8(-1)
 669 00e4 980F      		add r25,r24
 284:dualMoco.c    **** 	cnt = CNTMAX;
 670               		.loc 3 284 7 is_stmt 1 view .LVU227
 284:dualMoco.c    **** 	cnt = CNTMAX;
 671               		.loc 3 284 10 is_stmt 0 view .LVU228
 672 00e6 8130      		cpi r24,lo8(1)
 673 00e8 01F0      		breq .L49
 283:dualMoco.c    ****       if (cnt == 0) {
 674               		.loc 3 283 10 view .LVU229
 675 00ea 9093 0000 		sts cnt.3242,r25
 676 00ee 00C0      		rjmp .L51
 677               	.LVL35:
 678               	.L39:
 257:dualMoco.c    ****       LEDs_TurnOnLEDs(LEDMASK_RX);
 679               		.loc 3 257 7 is_stmt 1 view .LVU230
 680 00f0 64E0      		ldi r22,lo8(4)
 681 00f2 CE01      		movw r24,r28
 682 00f4 0196      		adiw r24,1
 683 00f6 0E94 0000 		call parseUSBMidiMessage
 684               	.LVL36:
 258:dualMoco.c    ****       PulseMSRemaining.RxLEDPulse = TX_RX_LED_PULSE_MS;
 685               		.loc 3 258 7 view .LVU231
 686               	.LBB64:
 687               	.LBI64:
  73:./Board/LEDs.h **** 			{
 688               		.loc 4 73 23 view .LVU232
 689               	.LBB65:
  75:./Board/LEDs.h **** 			}
 690               		.loc 4 75 5 view .LVU233
  75:./Board/LEDs.h **** 			}
 691               		.loc 4 75 11 is_stmt 0 view .LVU234
 692 00fa 5C98      		cbi 0xb,4
 693               	.LVL37:
  75:./Board/LEDs.h **** 			}
 694               		.loc 4 75 11 view .LVU235
 695               	.LBE65:
 696               	.LBE64:
 259:dualMoco.c    ****     }
 697               		.loc 3 259 7 is_stmt 1 view .LVU236
 259:dualMoco.c    ****     }
 698               		.loc 3 259 35 is_stmt 0 view .LVU237
 699 00fc 1093 0000 		sts PulseMSRemaining+1,r17
 700 0100 00C0      		rjmp .L38
 701               	.LVL38:
 702               	.L49:
 285:dualMoco.c    **** 	PORTB ^= 0x02;
 703               		.loc 3 285 2 is_stmt 1 view .LVU238
 285:dualMoco.c    **** 	PORTB ^= 0x02;
 704               		.loc 3 285 6 is_stmt 0 view .LVU239
 705 0102 F092 0000 		sts cnt.3242,r15
 706               		.loc 3 286 2 is_stmt 1 view .LVU240
 707               		.loc 3 286 8 is_stmt 0 view .LVU241
 708 0106 85B1      		in r24,0x5
 709 0108 8027      		eor r24,r16
 710 010a 85B9      		out 0x5,r24
 711               	.LBE67:
 238:dualMoco.c    ****     /* receive from Serial MIDI line */
 712               		.loc 3 238 9 is_stmt 1 view .LVU242
 238:dualMoco.c    ****     /* receive from Serial MIDI line */
 713               		.loc 3 238 11 is_stmt 0 view .LVU243
 714 010c 00C0      		rjmp .L51
 715               		.cfi_endproc
 716               	.LFE94:
 718               		.section	.text.processSerial,"ax",@progbits
 719               	.global	processSerial
 721               	processSerial:
 722               	.LFB95:
 287:dualMoco.c    ****       }
 288:dualMoco.c    ****     }
 289:dualMoco.c    ****   } /* for */
 290:dualMoco.c    **** }
 291:dualMoco.c    **** 
 292:dualMoco.c    **** 
 293:dualMoco.c    **** void processSerial(void) {
 723               		.loc 3 293 26 is_stmt 1 view -0
 724               		.cfi_startproc
 725               	/* prologue: function */
 726               	/* frame size = 0 */
 727               	/* stack size = 0 */
 728               	.L__stack_usage = 0
 294:dualMoco.c    **** 	
 295:dualMoco.c    ****   RingBuffer_InitBuffer(&USBtoUSART_Buffer);
 729               		.loc 3 295 3 view .LVU245
 730               	.LVL39:
 731               	.LBB126:
 732               	.LBI126:
  85:Lib/LightweightRingBuff.h **** 		{
 733               		.loc 1 85 22 view .LVU246
 734               	.LBE126:
  87:Lib/LightweightRingBuff.h **** 			{
 735               		.loc 1 87 4 view .LVU247
 736               	.LBB132:
 737               	.LBB127:
  87:Lib/LightweightRingBuff.h **** 			{
 738               		.loc 1 87 4 view .LVU248
 739 0000 2FB7      		in r18,__SREG__
 740               	.LVL40:
 741               	.LBB128:
 742               	.LBI128:
  48:/opt/homebrew/Cellar/avr-gcc@9/9.4.0_1/avr/include/util/atomic.h **** {
 743               		.loc 2 48 27 view .LVU249
 744               	.LBB129:
  50:/opt/homebrew/Cellar/avr-gcc@9/9.4.0_1/avr/include/util/atomic.h ****     return 1;
 745               		.loc 2 50 5 view .LVU250
 746               	/* #APP */
 747               	 ;  50 "/opt/homebrew/Cellar/avr-gcc@9/9.4.0_1/avr/include/util/atomic.h" 1
 748 0002 F894      		cli
 749               	 ;  0 "" 2
  51:/opt/homebrew/Cellar/avr-gcc@9/9.4.0_1/avr/include/util/atomic.h **** }
 750               		.loc 2 51 5 view .LVU251
 751               	.LVL41:
  51:/opt/homebrew/Cellar/avr-gcc@9/9.4.0_1/avr/include/util/atomic.h **** }
 752               		.loc 2 51 5 is_stmt 0 view .LVU252
 753               	/* #NOAPP */
 754               	.LBE129:
 755               	.LBE128:
  87:Lib/LightweightRingBuff.h **** 			{
 756               		.loc 1 87 4 is_stmt 1 view .LVU253
  89:Lib/LightweightRingBuff.h **** 				Buffer->Out = Buffer->Buffer;
 757               		.loc 1 89 5 view .LVU254
  89:Lib/LightweightRingBuff.h **** 				Buffer->Out = Buffer->Buffer;
 758               		.loc 1 89 17 is_stmt 0 view .LVU255
 759 0004 80E0      		ldi r24,lo8(USBtoUSART_Buffer)
 760 0006 90E0      		ldi r25,hi8(USBtoUSART_Buffer)
 761 0008 9093 0000 		sts USBtoUSART_Buffer+128+1,r25
 762 000c 8093 0000 		sts USBtoUSART_Buffer+128,r24
  90:Lib/LightweightRingBuff.h **** 			}
 763               		.loc 1 90 5 is_stmt 1 view .LVU256
  90:Lib/LightweightRingBuff.h **** 			}
 764               		.loc 1 90 17 is_stmt 0 view .LVU257
 765 0010 9093 0000 		sts USBtoUSART_Buffer+130+1,r25
 766 0014 8093 0000 		sts USBtoUSART_Buffer+130,r24
  87:Lib/LightweightRingBuff.h **** 			{
 767               		.loc 1 87 4 is_stmt 1 view .LVU258
 768               	.LVL42:
  87:Lib/LightweightRingBuff.h **** 			{
 769               		.loc 1 87 4 view .LVU259
 770               	.LBB130:
 771               	.LBI130:
  68:/opt/homebrew/Cellar/avr-gcc@9/9.4.0_1/avr/include/util/atomic.h **** {
 772               		.loc 2 68 24 view .LVU260
 773               	.LBB131:
  70:/opt/homebrew/Cellar/avr-gcc@9/9.4.0_1/avr/include/util/atomic.h ****     __asm__ volatile ("" ::: "memory");
 774               		.loc 2 70 5 view .LVU261
  70:/opt/homebrew/Cellar/avr-gcc@9/9.4.0_1/avr/include/util/atomic.h ****     __asm__ volatile ("" ::: "memory");
 775               		.loc 2 70 10 is_stmt 0 view .LVU262
 776 0018 2FBF      		out __SREG__,r18
 777               		.loc 2 71 5 is_stmt 1 view .LVU263
 778               	.LVL43:
 779               		.loc 2 71 5 is_stmt 0 view .LVU264
 780               	.LBE131:
 781               	.LBE130:
 782               	.LBE127:
 783               	.LBE132:
 296:dualMoco.c    ****   RingBuffer_InitBuffer(&USARTtoUSB_Buffer);
 784               		.loc 3 296 3 is_stmt 1 view .LVU265
 785               	.LBB133:
 786               	.LBI133:
  85:Lib/LightweightRingBuff.h **** 		{
 787               		.loc 1 85 22 view .LVU266
 788               	.LBE133:
  87:Lib/LightweightRingBuff.h **** 			{
 789               		.loc 1 87 4 view .LVU267
 790               	.LBB139:
 791               	.LBB134:
  87:Lib/LightweightRingBuff.h **** 			{
 792               		.loc 1 87 4 view .LVU268
 793 001a 2FB7      		in r18,__SREG__
 794               	.LVL44:
 795               	.LBB135:
 796               	.LBI135:
  48:/opt/homebrew/Cellar/avr-gcc@9/9.4.0_1/avr/include/util/atomic.h **** {
 797               		.loc 2 48 27 view .LVU269
 798               	.LBB136:
  50:/opt/homebrew/Cellar/avr-gcc@9/9.4.0_1/avr/include/util/atomic.h ****     return 1;
 799               		.loc 2 50 5 view .LVU270
 800               	/* #APP */
 801               	 ;  50 "/opt/homebrew/Cellar/avr-gcc@9/9.4.0_1/avr/include/util/atomic.h" 1
 802 001c F894      		cli
 803               	 ;  0 "" 2
  51:/opt/homebrew/Cellar/avr-gcc@9/9.4.0_1/avr/include/util/atomic.h **** }
 804               		.loc 2 51 5 view .LVU271
 805               	.LVL45:
  51:/opt/homebrew/Cellar/avr-gcc@9/9.4.0_1/avr/include/util/atomic.h **** }
 806               		.loc 2 51 5 is_stmt 0 view .LVU272
 807               	/* #NOAPP */
 808               	.LBE136:
 809               	.LBE135:
  87:Lib/LightweightRingBuff.h **** 			{
 810               		.loc 1 87 4 is_stmt 1 view .LVU273
  89:Lib/LightweightRingBuff.h **** 				Buffer->Out = Buffer->Buffer;
 811               		.loc 1 89 5 view .LVU274
  89:Lib/LightweightRingBuff.h **** 				Buffer->Out = Buffer->Buffer;
 812               		.loc 1 89 17 is_stmt 0 view .LVU275
 813 001e 80E0      		ldi r24,lo8(USARTtoUSB_Buffer)
 814 0020 90E0      		ldi r25,hi8(USARTtoUSB_Buffer)
 815 0022 9093 0000 		sts USARTtoUSB_Buffer+128+1,r25
 816 0026 8093 0000 		sts USARTtoUSB_Buffer+128,r24
  90:Lib/LightweightRingBuff.h **** 			}
 817               		.loc 1 90 5 is_stmt 1 view .LVU276
  90:Lib/LightweightRingBuff.h **** 			}
 818               		.loc 1 90 17 is_stmt 0 view .LVU277
 819 002a 9093 0000 		sts USARTtoUSB_Buffer+130+1,r25
 820 002e 8093 0000 		sts USARTtoUSB_Buffer+130,r24
  87:Lib/LightweightRingBuff.h **** 			{
 821               		.loc 1 87 4 is_stmt 1 view .LVU278
 822               	.LVL46:
  87:Lib/LightweightRingBuff.h **** 			{
 823               		.loc 1 87 4 view .LVU279
 824               	.LBB137:
 825               	.LBI137:
  68:/opt/homebrew/Cellar/avr-gcc@9/9.4.0_1/avr/include/util/atomic.h **** {
 826               		.loc 2 68 24 view .LVU280
 827               	.LBB138:
  70:/opt/homebrew/Cellar/avr-gcc@9/9.4.0_1/avr/include/util/atomic.h ****     __asm__ volatile ("" ::: "memory");
 828               		.loc 2 70 5 view .LVU281
  70:/opt/homebrew/Cellar/avr-gcc@9/9.4.0_1/avr/include/util/atomic.h ****     __asm__ volatile ("" ::: "memory");
 829               		.loc 2 70 10 is_stmt 0 view .LVU282
 830 0032 2FBF      		out __SREG__,r18
 831               		.loc 2 71 5 is_stmt 1 view .LVU283
 832               	.LVL47:
 833               		.loc 2 71 5 is_stmt 0 view .LVU284
 834               	.LBE138:
 835               	.LBE137:
 836               	.LBE134:
 837               	.LBE139:
 297:dualMoco.c    **** 
 298:dualMoco.c    ****   sei();
 838               		.loc 3 298 3 is_stmt 1 view .LVU285
 839               	/* #APP */
 840               	 ;  298 "dualMoco.c" 1
 841 0034 7894      		sei
 842               	 ;  0 "" 2
 843               	/* #NOAPP */
 844               	.LBB140:
 845               	.LBB141:
 846               	.LBB142:
 847               	.LBB143:
 848               	.LBB144:
 113:Lib/LightweightRingBuff.h **** 			}
 849               		.loc 1 113 11 is_stmt 0 view .LVU286
 850 0036 00E0      		ldi r16,lo8(USBtoUSART_Buffer)
 851 0038 10E0      		ldi r17,hi8(USBtoUSART_Buffer)
 852               	.LBE144:
 853               	.LBE143:
 854               	.LBE142:
 855               	.LBE141:
 299:dualMoco.c    **** 
 300:dualMoco.c    ****   for (;;)
 301:dualMoco.c    ****     {
 302:dualMoco.c    ****       /* Only try to read in bytes from the CDC interface if the transmit buffer is not full */
 303:dualMoco.c    ****       if (!(RingBuffer_IsFull(&USBtoUSART_Buffer)))
 304:dualMoco.c    **** 	{
 305:dualMoco.c    **** 	  int16_t ReceivedByte = CDC_Device_ReceiveByte(&VirtualSerial_CDC_Interface);
 306:dualMoco.c    **** 	  
 307:dualMoco.c    **** 	  /* Read bytes from the USB OUT endpoint into the USART transmit buffer */
 308:dualMoco.c    **** 	  if (!(ReceivedByte < 0))
 309:dualMoco.c    **** 	    RingBuffer_Insert(&USBtoUSART_Buffer, ReceivedByte);
 310:dualMoco.c    **** 	}
 311:dualMoco.c    ****       
 312:dualMoco.c    ****       /* Check if the UART receive buffer flush timer has expired or the buffer is nearly full */
 313:dualMoco.c    ****       RingBuff_Count_t BufferCount = RingBuffer_GetCount(&USARTtoUSB_Buffer);
 314:dualMoco.c    ****       if ((TIFR0 & (1 << TOV0)) || (BufferCount > BUFFER_NEARLY_FULL))
 315:dualMoco.c    **** 	{
 316:dualMoco.c    **** 	  TIFR0 |= (1 << TOV0);
 317:dualMoco.c    **** 	  
 318:dualMoco.c    **** 	  if (USARTtoUSB_Buffer.Count) {
 319:dualMoco.c    **** 	    LEDs_TurnOnLEDs(LEDMASK_TX);
 320:dualMoco.c    **** 	    PulseMSRemaining.TxLEDPulse = TX_RX_LED_PULSE_MS;
 856               		.loc 3 320 34 view .LVU287
 857 003a D3E0      		ldi r29,lo8(3)
 858               	.LVL48:
 859               	.L78:
 860               		.loc 3 320 34 view .LVU288
 861               	.LBE140:
 300:dualMoco.c    ****     {
 862               		.loc 3 300 3 is_stmt 1 view .LVU289
 863               	.LBB193:
 303:dualMoco.c    **** 	{
 864               		.loc 3 303 7 view .LVU290
 865               	.LBB152:
 866               	.LBI141:
 127:Lib/LightweightRingBuff.h **** 		{
 867               		.loc 1 127 22 view .LVU291
 127:Lib/LightweightRingBuff.h **** 		{
 868               		.loc 1 127 22 is_stmt 0 view .LVU292
 869               	.LBE152:
 870               	.LBE193:
 129:Lib/LightweightRingBuff.h **** 		}
 871               		.loc 1 129 4 is_stmt 1 view .LVU293
 872               	.LBB194:
 873               	.LBB153:
 874               	.LBB151:
 875               	.LBI142:
 107:Lib/LightweightRingBuff.h **** 		{
 876               		.loc 1 107 34 view .LVU294
 877               	.LBB150:
 109:Lib/LightweightRingBuff.h **** 			
 878               		.loc 1 109 4 view .LVU295
 111:Lib/LightweightRingBuff.h **** 			{
 879               		.loc 1 111 4 view .LVU296
 880               	.LBB149:
 111:Lib/LightweightRingBuff.h **** 			{
 881               		.loc 1 111 4 view .LVU297
 882 003c 9FB7      		in r25,__SREG__
 883               	.LVL49:
 884               	.LBB145:
 885               	.LBI145:
  48:/opt/homebrew/Cellar/avr-gcc@9/9.4.0_1/avr/include/util/atomic.h **** {
 886               		.loc 2 48 27 view .LVU298
 887               	.LBB146:
  50:/opt/homebrew/Cellar/avr-gcc@9/9.4.0_1/avr/include/util/atomic.h ****     return 1;
 888               		.loc 2 50 5 view .LVU299
 889               	/* #APP */
 890               	 ;  50 "/opt/homebrew/Cellar/avr-gcc@9/9.4.0_1/avr/include/util/atomic.h" 1
 891 003e F894      		cli
 892               	 ;  0 "" 2
  51:/opt/homebrew/Cellar/avr-gcc@9/9.4.0_1/avr/include/util/atomic.h **** }
 893               		.loc 2 51 5 view .LVU300
 894               	.LVL50:
  51:/opt/homebrew/Cellar/avr-gcc@9/9.4.0_1/avr/include/util/atomic.h **** }
 895               		.loc 2 51 5 is_stmt 0 view .LVU301
 896               	/* #NOAPP */
 897               	.LBE146:
 898               	.LBE145:
 111:Lib/LightweightRingBuff.h **** 			{
 899               		.loc 1 111 4 is_stmt 1 view .LVU302
 113:Lib/LightweightRingBuff.h **** 			}
 900               		.loc 1 113 5 view .LVU303
 113:Lib/LightweightRingBuff.h **** 			}
 901               		.loc 1 113 11 is_stmt 0 view .LVU304
 902 0040 8091 0000 		lds r24,USBtoUSART_Buffer+132
 903               	.LVL51:
 111:Lib/LightweightRingBuff.h **** 			{
 904               		.loc 1 111 4 is_stmt 1 view .LVU305
 111:Lib/LightweightRingBuff.h **** 			{
 905               		.loc 1 111 4 view .LVU306
 906               	.LBB147:
 907               	.LBI147:
  68:/opt/homebrew/Cellar/avr-gcc@9/9.4.0_1/avr/include/util/atomic.h **** {
 908               		.loc 2 68 24 view .LVU307
 909               	.LBB148:
  70:/opt/homebrew/Cellar/avr-gcc@9/9.4.0_1/avr/include/util/atomic.h ****     __asm__ volatile ("" ::: "memory");
 910               		.loc 2 70 5 view .LVU308
  70:/opt/homebrew/Cellar/avr-gcc@9/9.4.0_1/avr/include/util/atomic.h ****     __asm__ volatile ("" ::: "memory");
 911               		.loc 2 70 10 is_stmt 0 view .LVU309
 912 0044 9FBF      		out __SREG__,r25
 913               		.loc 2 71 5 is_stmt 1 view .LVU310
 914               	.LVL52:
 915               		.loc 2 71 5 is_stmt 0 view .LVU311
 916               	.LBE148:
 917               	.LBE147:
 918               	.LBE149:
 116:Lib/LightweightRingBuff.h **** 		}
 919               		.loc 1 116 4 is_stmt 1 view .LVU312
 116:Lib/LightweightRingBuff.h **** 		}
 920               		.loc 1 116 4 is_stmt 0 view .LVU313
 921               	.LBE150:
 922               	.LBE151:
 923               	.LBE153:
 303:dualMoco.c    **** 	{
 924               		.loc 3 303 10 view .LVU314
 925 0046 8038      		cpi r24,lo8(-128)
 926 0048 01F0      		breq .L63
 927               	.LBB154:
 305:dualMoco.c    **** 	  
 928               		.loc 3 305 4 is_stmt 1 view .LVU315
 305:dualMoco.c    **** 	  
 929               		.loc 3 305 27 is_stmt 0 view .LVU316
 930 004a 80E0      		ldi r24,lo8(VirtualSerial_CDC_Interface)
 931 004c 90E0      		ldi r25,hi8(VirtualSerial_CDC_Interface)
 932 004e 0E94 0000 		call CDC_Device_ReceiveByte
 933               	.LVL53:
 308:dualMoco.c    **** 	    RingBuffer_Insert(&USBtoUSART_Buffer, ReceivedByte);
 934               		.loc 3 308 4 is_stmt 1 view .LVU317
 308:dualMoco.c    **** 	    RingBuffer_Insert(&USBtoUSART_Buffer, ReceivedByte);
 935               		.loc 3 308 7 is_stmt 0 view .LVU318
 936 0052 97FD      		sbrc r25,7
 937 0054 00C0      		rjmp .L63
 309:dualMoco.c    **** 	}
 938               		.loc 3 309 6 is_stmt 1 view .LVU319
 939               	.LVL54:
 940               	.LBB155:
 941               	.LBI155:
 158:Lib/LightweightRingBuff.h **** 		                                     const RingBuff_Data_t Data)
 942               		.loc 1 158 22 view .LVU320
 943               	.LBB156:
 161:Lib/LightweightRingBuff.h **** 			
 944               		.loc 1 161 4 view .LVU321
 161:Lib/LightweightRingBuff.h **** 			
 945               		.loc 1 161 11 is_stmt 0 view .LVU322
 946 0056 E091 0000 		lds r30,USBtoUSART_Buffer+128
 947 005a F091 0000 		lds r31,USBtoUSART_Buffer+128+1
 948               	.LBE156:
 949               	.LBE155:
 309:dualMoco.c    **** 	}
 950               		.loc 3 309 6 view .LVU323
 951 005e 8083      		st Z,r24
 952               	.LBB164:
 953               	.LBB162:
 163:Lib/LightweightRingBuff.h **** 			  Buffer->In = Buffer->Buffer;
 954               		.loc 1 163 4 is_stmt 1 view .LVU324
 163:Lib/LightweightRingBuff.h **** 			  Buffer->In = Buffer->Buffer;
 955               		.loc 1 163 8 is_stmt 0 view .LVU325
 956 0060 8091 0000 		lds r24,USBtoUSART_Buffer+128
 957 0064 9091 0000 		lds r25,USBtoUSART_Buffer+128+1
 958               	.LVL55:
 163:Lib/LightweightRingBuff.h **** 			  Buffer->In = Buffer->Buffer;
 959               		.loc 1 163 8 view .LVU326
 960 0068 9C01      		movw r18,r24
 961 006a 2F5F      		subi r18,-1
 962 006c 3F4F      		sbci r19,-1
 163:Lib/LightweightRingBuff.h **** 			  Buffer->In = Buffer->Buffer;
 963               		.loc 1 163 7 view .LVU327
 964 006e 8050      		subi r24,lo8(USBtoUSART_Buffer+127)
 965 0070 9040      		sbci r25,hi8(USBtoUSART_Buffer+127)
 966 0072 01F4      		brne .+2
 967 0074 00C0      		rjmp .L65
 968 0076 3093 0000 		sts USBtoUSART_Buffer+128+1,r19
 969 007a 2093 0000 		sts USBtoUSART_Buffer+128,r18
 970               	.L66:
 166:Lib/LightweightRingBuff.h **** 			{
 971               		.loc 1 166 4 is_stmt 1 view .LVU328
 972               	.LBB157:
 166:Lib/LightweightRingBuff.h **** 			{
 973               		.loc 1 166 4 view .LVU329
 974 007e 9FB7      		in r25,__SREG__
 975               	.LVL56:
 976               	.LBB158:
 977               	.LBI158:
  48:/opt/homebrew/Cellar/avr-gcc@9/9.4.0_1/avr/include/util/atomic.h **** {
 978               		.loc 2 48 27 view .LVU330
 979               	.LBB159:
  50:/opt/homebrew/Cellar/avr-gcc@9/9.4.0_1/avr/include/util/atomic.h ****     return 1;
 980               		.loc 2 50 5 view .LVU331
 981               	/* #APP */
 982               	 ;  50 "/opt/homebrew/Cellar/avr-gcc@9/9.4.0_1/avr/include/util/atomic.h" 1
 983 0080 F894      		cli
 984               	 ;  0 "" 2
  51:/opt/homebrew/Cellar/avr-gcc@9/9.4.0_1/avr/include/util/atomic.h **** }
 985               		.loc 2 51 5 view .LVU332
 986               	.LVL57:
  51:/opt/homebrew/Cellar/avr-gcc@9/9.4.0_1/avr/include/util/atomic.h **** }
 987               		.loc 2 51 5 is_stmt 0 view .LVU333
 988               	/* #NOAPP */
 989               	.LBE159:
 990               	.LBE158:
 166:Lib/LightweightRingBuff.h **** 			{
 991               		.loc 1 166 4 is_stmt 1 view .LVU334
 168:Lib/LightweightRingBuff.h **** 			}
 992               		.loc 1 168 5 view .LVU335
 168:Lib/LightweightRingBuff.h **** 			}
 993               		.loc 1 168 18 is_stmt 0 view .LVU336
 994 0082 8091 0000 		lds r24,USBtoUSART_Buffer+132
 995 0086 8F5F      		subi r24,lo8(-(1))
 996 0088 8093 0000 		sts USBtoUSART_Buffer+132,r24
 166:Lib/LightweightRingBuff.h **** 			{
 997               		.loc 1 166 4 is_stmt 1 view .LVU337
 998               	.LVL58:
 166:Lib/LightweightRingBuff.h **** 			{
 999               		.loc 1 166 4 view .LVU338
 1000               	.LBB160:
 1001               	.LBI160:
  68:/opt/homebrew/Cellar/avr-gcc@9/9.4.0_1/avr/include/util/atomic.h **** {
 1002               		.loc 2 68 24 view .LVU339
 1003               	.LBB161:
  70:/opt/homebrew/Cellar/avr-gcc@9/9.4.0_1/avr/include/util/atomic.h ****     __asm__ volatile ("" ::: "memory");
 1004               		.loc 2 70 5 view .LVU340
  70:/opt/homebrew/Cellar/avr-gcc@9/9.4.0_1/avr/include/util/atomic.h ****     __asm__ volatile ("" ::: "memory");
 1005               		.loc 2 70 10 is_stmt 0 view .LVU341
 1006 008c 9FBF      		out __SREG__,r25
 1007               		.loc 2 71 5 is_stmt 1 view .LVU342
 1008               	.LVL59:
 1009               	.L63:
 1010               		.loc 2 71 5 is_stmt 0 view .LVU343
 1011               	.LBE161:
 1012               	.LBE160:
 1013               	.LBE157:
 1014               	.LBE162:
 1015               	.LBE164:
 1016               	.LBE154:
 313:dualMoco.c    ****       if ((TIFR0 & (1 << TOV0)) || (BufferCount > BUFFER_NEARLY_FULL))
 1017               		.loc 3 313 7 is_stmt 1 view .LVU344
 1018               	.LBB166:
 1019               	.LBI166:
 107:Lib/LightweightRingBuff.h **** 		{
 1020               		.loc 1 107 34 view .LVU345
 1021               	.LBB167:
 109:Lib/LightweightRingBuff.h **** 			
 1022               		.loc 1 109 4 view .LVU346
 111:Lib/LightweightRingBuff.h **** 			{
 1023               		.loc 1 111 4 view .LVU347
 1024               	.LBB168:
 111:Lib/LightweightRingBuff.h **** 			{
 1025               		.loc 1 111 4 view .LVU348
 1026 008e 8FB7      		in r24,__SREG__
 1027               	.LVL60:
 1028               	.LBB169:
 1029               	.LBI169:
  48:/opt/homebrew/Cellar/avr-gcc@9/9.4.0_1/avr/include/util/atomic.h **** {
 1030               		.loc 2 48 27 view .LVU349
 1031               	.LBB170:
  50:/opt/homebrew/Cellar/avr-gcc@9/9.4.0_1/avr/include/util/atomic.h ****     return 1;
 1032               		.loc 2 50 5 view .LVU350
 1033               	/* #APP */
 1034               	 ;  50 "/opt/homebrew/Cellar/avr-gcc@9/9.4.0_1/avr/include/util/atomic.h" 1
 1035 0090 F894      		cli
 1036               	 ;  0 "" 2
  51:/opt/homebrew/Cellar/avr-gcc@9/9.4.0_1/avr/include/util/atomic.h **** }
 1037               		.loc 2 51 5 view .LVU351
 1038               	.LVL61:
  51:/opt/homebrew/Cellar/avr-gcc@9/9.4.0_1/avr/include/util/atomic.h **** }
 1039               		.loc 2 51 5 is_stmt 0 view .LVU352
 1040               	/* #NOAPP */
 1041               	.LBE170:
 1042               	.LBE169:
 111:Lib/LightweightRingBuff.h **** 			{
 1043               		.loc 1 111 4 is_stmt 1 view .LVU353
 113:Lib/LightweightRingBuff.h **** 			}
 1044               		.loc 1 113 5 view .LVU354
 113:Lib/LightweightRingBuff.h **** 			}
 1045               		.loc 1 113 11 is_stmt 0 view .LVU355
 1046 0092 C091 0000 		lds r28,USARTtoUSB_Buffer+132
 1047               	.LVL62:
 111:Lib/LightweightRingBuff.h **** 			{
 1048               		.loc 1 111 4 is_stmt 1 view .LVU356
 111:Lib/LightweightRingBuff.h **** 			{
 1049               		.loc 1 111 4 view .LVU357
 1050               	.LBB171:
 1051               	.LBI171:
  68:/opt/homebrew/Cellar/avr-gcc@9/9.4.0_1/avr/include/util/atomic.h **** {
 1052               		.loc 2 68 24 view .LVU358
 1053               	.LBB172:
  70:/opt/homebrew/Cellar/avr-gcc@9/9.4.0_1/avr/include/util/atomic.h ****     __asm__ volatile ("" ::: "memory");
 1054               		.loc 2 70 5 view .LVU359
  70:/opt/homebrew/Cellar/avr-gcc@9/9.4.0_1/avr/include/util/atomic.h ****     __asm__ volatile ("" ::: "memory");
 1055               		.loc 2 70 10 is_stmt 0 view .LVU360
 1056 0096 8FBF      		out __SREG__,r24
 1057               		.loc 2 71 5 is_stmt 1 view .LVU361
 1058               	.LVL63:
 1059               		.loc 2 71 5 is_stmt 0 view .LVU362
 1060               	.LBE172:
 1061               	.LBE171:
 1062               	.LBE168:
 116:Lib/LightweightRingBuff.h **** 		}
 1063               		.loc 1 116 4 is_stmt 1 view .LVU363
 116:Lib/LightweightRingBuff.h **** 		}
 1064               		.loc 1 116 4 is_stmt 0 view .LVU364
 1065               	.LBE167:
 1066               	.LBE166:
 314:dualMoco.c    **** 	{
 1067               		.loc 3 314 7 is_stmt 1 view .LVU365
 314:dualMoco.c    **** 	{
 1068               		.loc 3 314 10 is_stmt 0 view .LVU366
 1069 0098 A899      		sbic 0x15,0
 1070 009a 00C0      		rjmp .L67
 314:dualMoco.c    **** 	{
 1071               		.loc 3 314 33 discriminator 1 view .LVU367
 1072 009c C136      		cpi r28,lo8(97)
 1073 009e 00F0      		brlo .L68
 1074               	.L67:
 316:dualMoco.c    **** 	  
 1075               		.loc 3 316 4 is_stmt 1 view .LVU368
 316:dualMoco.c    **** 	  
 1076               		.loc 3 316 10 is_stmt 0 view .LVU369
 1077 00a0 A89A      		sbi 0x15,0
 318:dualMoco.c    **** 	    LEDs_TurnOnLEDs(LEDMASK_TX);
 1078               		.loc 3 318 4 is_stmt 1 view .LVU370
 318:dualMoco.c    **** 	    LEDs_TurnOnLEDs(LEDMASK_TX);
 1079               		.loc 3 318 7 is_stmt 0 view .LVU371
 1080 00a2 8091 0000 		lds r24,USARTtoUSB_Buffer+132
 1081 00a6 8823      		tst r24
 1082 00a8 01F0      		breq .L70
 319:dualMoco.c    **** 	    PulseMSRemaining.TxLEDPulse = TX_RX_LED_PULSE_MS;
 1083               		.loc 3 319 6 is_stmt 1 view .LVU372
 1084               	.LVL64:
 1085               	.LBB173:
 1086               	.LBI173:
  73:./Board/LEDs.h **** 			{
 1087               		.loc 4 73 23 view .LVU373
 1088               	.LBB174:
  75:./Board/LEDs.h **** 			}
 1089               		.loc 4 75 5 view .LVU374
  75:./Board/LEDs.h **** 			}
 1090               		.loc 4 75 11 is_stmt 0 view .LVU375
 1091 00aa 5D98      		cbi 0xb,5
 1092               	.LVL65:
  75:./Board/LEDs.h **** 			}
 1093               		.loc 4 75 11 view .LVU376
 1094               	.LBE174:
 1095               	.LBE173:
 1096               		.loc 3 320 6 is_stmt 1 view .LVU377
 1097               		.loc 3 320 34 is_stmt 0 view .LVU378
 1098 00ac D093 0000 		sts PulseMSRemaining,r29
 1099               	.L70:
 321:dualMoco.c    **** 	  }
 322:dualMoco.c    **** 	  
 323:dualMoco.c    **** 	  /* Read bytes from the USART receive buffer into the USB IN endpoint */
 324:dualMoco.c    **** 	  while (BufferCount--)
 1100               		.loc 3 324 10 is_stmt 1 view .LVU379
 1101               		.loc 3 324 22 is_stmt 0 view .LVU380
 1102               	.LVL66:
 1103 00b0 C150      		subi r28,1
 1104 00b2 00F4      		brcc .L71
 325:dualMoco.c    **** 	    CDC_Device_SendByte(&VirtualSerial_CDC_Interface, RingBuffer_Remove(&USARTtoUSB_Buffer));
 326:dualMoco.c    **** 	  
 327:dualMoco.c    **** 	  /* Turn off TX LED(s) once the TX pulse period has elapsed */
 328:dualMoco.c    **** 	  if (PulseMSRemaining.TxLEDPulse && !(--PulseMSRemaining.TxLEDPulse))
 1105               		.loc 3 328 4 is_stmt 1 view .LVU381
 1106               		.loc 3 328 24 is_stmt 0 view .LVU382
 1107 00b4 8091 0000 		lds r24,PulseMSRemaining
 1108               		.loc 3 328 7 view .LVU383
 1109 00b8 8823      		tst r24
 1110 00ba 01F0      		breq .L73
 1111               		.loc 3 328 59 discriminator 1 view .LVU384
 1112 00bc 8091 0000 		lds r24,PulseMSRemaining
 1113               		.loc 3 328 41 discriminator 1 view .LVU385
 1114 00c0 8150      		subi r24,lo8(-(-1))
 1115               		.loc 3 328 36 discriminator 1 view .LVU386
 1116 00c2 8093 0000 		sts PulseMSRemaining,r24
 1117 00c6 8111      		cpse r24,__zero_reg__
 1118 00c8 00C0      		rjmp .L73
 329:dualMoco.c    **** 	    LEDs_TurnOffLEDs(LEDMASK_TX);
 1119               		.loc 3 329 6 is_stmt 1 view .LVU387
 1120               	.LVL67:
 1121               	.LBB175:
 1122               	.LBI175:
  78:./Board/LEDs.h **** 			{
 1123               		.loc 4 78 23 view .LVU388
 1124               	.LBB176:
 1125               		.loc 4 80 5 view .LVU389
 1126               		.loc 4 80 11 is_stmt 0 view .LVU390
 1127 00ca 5D9A      		sbi 0xb,5
 1128               	.LVL68:
 1129               	.L73:
 1130               		.loc 4 80 11 view .LVU391
 1131               	.LBE176:
 1132               	.LBE175:
 330:dualMoco.c    **** 	  
 331:dualMoco.c    **** 	  /* Turn off RX LED(s) once the RX pulse period has elapsed */
 332:dualMoco.c    **** 	  if (PulseMSRemaining.RxLEDPulse && !(--PulseMSRemaining.RxLEDPulse))
 1133               		.loc 3 332 4 is_stmt 1 view .LVU392
 1134               		.loc 3 332 24 is_stmt 0 view .LVU393
 1135 00cc 8091 0000 		lds r24,PulseMSRemaining+1
 1136               		.loc 3 332 7 view .LVU394
 1137 00d0 8823      		tst r24
 1138 00d2 01F0      		breq .L68
 1139               		.loc 3 332 59 discriminator 1 view .LVU395
 1140 00d4 8091 0000 		lds r24,PulseMSRemaining+1
 1141               		.loc 3 332 41 discriminator 1 view .LVU396
 1142 00d8 8150      		subi r24,lo8(-(-1))
 1143               		.loc 3 332 36 discriminator 1 view .LVU397
 1144 00da 8093 0000 		sts PulseMSRemaining+1,r24
 1145 00de 8111      		cpse r24,__zero_reg__
 1146 00e0 00C0      		rjmp .L68
 333:dualMoco.c    **** 	    LEDs_TurnOffLEDs(LEDMASK_RX);
 1147               		.loc 3 333 6 is_stmt 1 view .LVU398
 1148               	.LVL69:
 1149               	.LBB177:
 1150               	.LBI177:
  78:./Board/LEDs.h **** 			{
 1151               		.loc 4 78 23 view .LVU399
 1152               	.LBB178:
 1153               		.loc 4 80 5 view .LVU400
 1154               		.loc 4 80 11 is_stmt 0 view .LVU401
 1155 00e2 5C9A      		sbi 0xb,4
 1156               	.LVL70:
 1157               	.L68:
 1158               		.loc 4 80 11 view .LVU402
 1159               	.LBE178:
 1160               	.LBE177:
 334:dualMoco.c    **** 	}
 335:dualMoco.c    ****       
 336:dualMoco.c    ****       /* Load the next byte from the USART transmit buffer into the USART */
 337:dualMoco.c    ****       if (!(RingBuffer_IsEmpty(&USBtoUSART_Buffer))) {
 1161               		.loc 3 337 7 is_stmt 1 view .LVU403
 1162               	.LBB179:
 1163               	.LBI179:
 144:Lib/LightweightRingBuff.h **** 		{
 1164               		.loc 1 144 22 view .LVU404
 144:Lib/LightweightRingBuff.h **** 		{
 1165               		.loc 1 144 22 is_stmt 0 view .LVU405
 1166               	.LBE179:
 1167               	.LBE194:
 146:Lib/LightweightRingBuff.h **** 		}
 1168               		.loc 1 146 4 is_stmt 1 view .LVU406
 1169               	.LBB195:
 1170               	.LBB187:
 1171               	.LBB180:
 1172               	.LBI180:
 107:Lib/LightweightRingBuff.h **** 		{
 1173               		.loc 1 107 34 view .LVU407
 1174               	.LBB181:
 109:Lib/LightweightRingBuff.h **** 			
 1175               		.loc 1 109 4 view .LVU408
 111:Lib/LightweightRingBuff.h **** 			{
 1176               		.loc 1 111 4 view .LVU409
 1177               	.LBB182:
 111:Lib/LightweightRingBuff.h **** 			{
 1178               		.loc 1 111 4 view .LVU410
 1179 00e4 9FB7      		in r25,__SREG__
 1180               	.LVL71:
 1181               	.LBB183:
 1182               	.LBI183:
  48:/opt/homebrew/Cellar/avr-gcc@9/9.4.0_1/avr/include/util/atomic.h **** {
 1183               		.loc 2 48 27 view .LVU411
 1184               	.LBB184:
  50:/opt/homebrew/Cellar/avr-gcc@9/9.4.0_1/avr/include/util/atomic.h ****     return 1;
 1185               		.loc 2 50 5 view .LVU412
 1186               	/* #APP */
 1187               	 ;  50 "/opt/homebrew/Cellar/avr-gcc@9/9.4.0_1/avr/include/util/atomic.h" 1
 1188 00e6 F894      		cli
 1189               	 ;  0 "" 2
  51:/opt/homebrew/Cellar/avr-gcc@9/9.4.0_1/avr/include/util/atomic.h **** }
 1190               		.loc 2 51 5 view .LVU413
 1191               	.LVL72:
  51:/opt/homebrew/Cellar/avr-gcc@9/9.4.0_1/avr/include/util/atomic.h **** }
 1192               		.loc 2 51 5 is_stmt 0 view .LVU414
 1193               	/* #NOAPP */
 1194               	.LBE184:
 1195               	.LBE183:
 111:Lib/LightweightRingBuff.h **** 			{
 1196               		.loc 1 111 4 is_stmt 1 view .LVU415
 113:Lib/LightweightRingBuff.h **** 			}
 1197               		.loc 1 113 5 view .LVU416
 113:Lib/LightweightRingBuff.h **** 			}
 1198               		.loc 1 113 11 is_stmt 0 view .LVU417
 1199 00e8 8091 0000 		lds r24,USBtoUSART_Buffer+132
 1200               	.LVL73:
 111:Lib/LightweightRingBuff.h **** 			{
 1201               		.loc 1 111 4 is_stmt 1 view .LVU418
 111:Lib/LightweightRingBuff.h **** 			{
 1202               		.loc 1 111 4 view .LVU419
 1203               	.LBB185:
 1204               	.LBI185:
  68:/opt/homebrew/Cellar/avr-gcc@9/9.4.0_1/avr/include/util/atomic.h **** {
 1205               		.loc 2 68 24 view .LVU420
 1206               	.LBB186:
  70:/opt/homebrew/Cellar/avr-gcc@9/9.4.0_1/avr/include/util/atomic.h ****     __asm__ volatile ("" ::: "memory");
 1207               		.loc 2 70 5 view .LVU421
  70:/opt/homebrew/Cellar/avr-gcc@9/9.4.0_1/avr/include/util/atomic.h ****     __asm__ volatile ("" ::: "memory");
 1208               		.loc 2 70 10 is_stmt 0 view .LVU422
 1209 00ec 9FBF      		out __SREG__,r25
 1210               		.loc 2 71 5 is_stmt 1 view .LVU423
 1211               	.LVL74:
 1212               		.loc 2 71 5 is_stmt 0 view .LVU424
 1213               	.LBE186:
 1214               	.LBE185:
 1215               	.LBE182:
 116:Lib/LightweightRingBuff.h **** 		}
 1216               		.loc 1 116 4 is_stmt 1 view .LVU425
 116:Lib/LightweightRingBuff.h **** 		}
 1217               		.loc 1 116 4 is_stmt 0 view .LVU426
 1218               	.LBE181:
 1219               	.LBE180:
 1220               	.LBE187:
 1221               		.loc 3 337 10 view .LVU427
 1222 00ee 8823      		tst r24
 1223 00f0 01F0      		breq .L76
 338:dualMoco.c    **** 	Serial_TxByte(RingBuffer_Remove(&USBtoUSART_Buffer));
 1224               		.loc 3 338 2 is_stmt 1 view .LVU428
 1225               		.loc 3 338 16 is_stmt 0 view .LVU429
 1226 00f2 80E0      		ldi r24,lo8(USBtoUSART_Buffer)
 1227 00f4 90E0      		ldi r25,hi8(USBtoUSART_Buffer)
 1228 00f6 0E94 0000 		call RingBuffer_Remove
 1229               	.LVL75:
 1230               	.LBB188:
 1231               	.LBI188:
 1232               		.file 6 "LUFA-100807/LUFA/Drivers/Peripheral/Serial.h"
   1:LUFA-100807/LUFA/Drivers/Peripheral/Serial.h **** /*
   2:LUFA-100807/LUFA/Drivers/Peripheral/Serial.h ****              LUFA Library
   3:LUFA-100807/LUFA/Drivers/Peripheral/Serial.h ****      Copyright (C) Dean Camera, 2010.
   4:LUFA-100807/LUFA/Drivers/Peripheral/Serial.h ****               
   5:LUFA-100807/LUFA/Drivers/Peripheral/Serial.h ****   dean [at] fourwalledcubicle [dot] com
   6:LUFA-100807/LUFA/Drivers/Peripheral/Serial.h ****       www.fourwalledcubicle.com
   7:LUFA-100807/LUFA/Drivers/Peripheral/Serial.h **** */
   8:LUFA-100807/LUFA/Drivers/Peripheral/Serial.h **** 
   9:LUFA-100807/LUFA/Drivers/Peripheral/Serial.h **** /*
  10:LUFA-100807/LUFA/Drivers/Peripheral/Serial.h ****   Copyright 2010  Dean Camera (dean [at] fourwalledcubicle [dot] com)
  11:LUFA-100807/LUFA/Drivers/Peripheral/Serial.h **** 
  12:LUFA-100807/LUFA/Drivers/Peripheral/Serial.h ****   Permission to use, copy, modify, distribute, and sell this 
  13:LUFA-100807/LUFA/Drivers/Peripheral/Serial.h ****   software and its documentation for any purpose is hereby granted
  14:LUFA-100807/LUFA/Drivers/Peripheral/Serial.h ****   without fee, provided that the above copyright notice appear in 
  15:LUFA-100807/LUFA/Drivers/Peripheral/Serial.h ****   all copies and that both that the copyright notice and this
  16:LUFA-100807/LUFA/Drivers/Peripheral/Serial.h ****   permission notice and warranty disclaimer appear in supporting 
  17:LUFA-100807/LUFA/Drivers/Peripheral/Serial.h ****   documentation, and that the name of the author not be used in 
  18:LUFA-100807/LUFA/Drivers/Peripheral/Serial.h ****   advertising or publicity pertaining to distribution of the 
  19:LUFA-100807/LUFA/Drivers/Peripheral/Serial.h ****   software without specific, written prior permission.
  20:LUFA-100807/LUFA/Drivers/Peripheral/Serial.h **** 
  21:LUFA-100807/LUFA/Drivers/Peripheral/Serial.h ****   The author disclaim all warranties with regard to this
  22:LUFA-100807/LUFA/Drivers/Peripheral/Serial.h ****   software, including all implied warranties of merchantability
  23:LUFA-100807/LUFA/Drivers/Peripheral/Serial.h ****   and fitness.  In no event shall the author be liable for any
  24:LUFA-100807/LUFA/Drivers/Peripheral/Serial.h ****   special, indirect or consequential damages or any damages
  25:LUFA-100807/LUFA/Drivers/Peripheral/Serial.h ****   whatsoever resulting from loss of use, data or profits, whether
  26:LUFA-100807/LUFA/Drivers/Peripheral/Serial.h ****   in an action of contract, negligence or other tortious action,
  27:LUFA-100807/LUFA/Drivers/Peripheral/Serial.h ****   arising out of or in connection with the use or performance of
  28:LUFA-100807/LUFA/Drivers/Peripheral/Serial.h ****   this software.
  29:LUFA-100807/LUFA/Drivers/Peripheral/Serial.h **** */
  30:LUFA-100807/LUFA/Drivers/Peripheral/Serial.h **** 
  31:LUFA-100807/LUFA/Drivers/Peripheral/Serial.h **** /** \file
  32:LUFA-100807/LUFA/Drivers/Peripheral/Serial.h ****  *  \brief Master include file for the USART peripheral driver.
  33:LUFA-100807/LUFA/Drivers/Peripheral/Serial.h ****  *
  34:LUFA-100807/LUFA/Drivers/Peripheral/Serial.h ****  *  Driver for the USART subsystem on supported USB AVRs.
  35:LUFA-100807/LUFA/Drivers/Peripheral/Serial.h ****  */
  36:LUFA-100807/LUFA/Drivers/Peripheral/Serial.h ****  
  37:LUFA-100807/LUFA/Drivers/Peripheral/Serial.h **** /** \ingroup Group_PeripheralDrivers
  38:LUFA-100807/LUFA/Drivers/Peripheral/Serial.h ****  *  @defgroup Group_Serial Serial USART Driver - LUFA/Drivers/Peripheral/Serial.h
  39:LUFA-100807/LUFA/Drivers/Peripheral/Serial.h ****  *
  40:LUFA-100807/LUFA/Drivers/Peripheral/Serial.h ****  *  \section Sec_Dependencies Module Source Dependencies
  41:LUFA-100807/LUFA/Drivers/Peripheral/Serial.h ****  *  The following files must be built with any user project that uses this module:
  42:LUFA-100807/LUFA/Drivers/Peripheral/Serial.h ****  *    - LUFA/Drivers/Peripheral/Serial.c <i>(Makefile source module name: LUFA_SRC_SERIAL)</i>
  43:LUFA-100807/LUFA/Drivers/Peripheral/Serial.h ****  *
  44:LUFA-100807/LUFA/Drivers/Peripheral/Serial.h ****  *  \section Module Description
  45:LUFA-100807/LUFA/Drivers/Peripheral/Serial.h ****  *  Hardware serial USART driver. This module provides an easy to use driver for
  46:LUFA-100807/LUFA/Drivers/Peripheral/Serial.h ****  *  the setup of and transfer of data over the AVR's USART port.
  47:LUFA-100807/LUFA/Drivers/Peripheral/Serial.h ****  *
  48:LUFA-100807/LUFA/Drivers/Peripheral/Serial.h ****  *  @{
  49:LUFA-100807/LUFA/Drivers/Peripheral/Serial.h ****  */
  50:LUFA-100807/LUFA/Drivers/Peripheral/Serial.h ****  
  51:LUFA-100807/LUFA/Drivers/Peripheral/Serial.h **** #ifndef __SERIAL_H__
  52:LUFA-100807/LUFA/Drivers/Peripheral/Serial.h **** #define __SERIAL_H__
  53:LUFA-100807/LUFA/Drivers/Peripheral/Serial.h **** 
  54:LUFA-100807/LUFA/Drivers/Peripheral/Serial.h **** 	/* Includes: */
  55:LUFA-100807/LUFA/Drivers/Peripheral/Serial.h **** 		#include <avr/io.h>
  56:LUFA-100807/LUFA/Drivers/Peripheral/Serial.h **** 		#include <avr/pgmspace.h>
  57:LUFA-100807/LUFA/Drivers/Peripheral/Serial.h **** 		#include <stdbool.h>
  58:LUFA-100807/LUFA/Drivers/Peripheral/Serial.h **** 		
  59:LUFA-100807/LUFA/Drivers/Peripheral/Serial.h **** 		#include "../../Common/Common.h"
  60:LUFA-100807/LUFA/Drivers/Peripheral/Serial.h **** 		#include "../Misc/TerminalCodes.h"
  61:LUFA-100807/LUFA/Drivers/Peripheral/Serial.h **** 
  62:LUFA-100807/LUFA/Drivers/Peripheral/Serial.h **** 	/* Enable C linkage for C++ Compilers: */
  63:LUFA-100807/LUFA/Drivers/Peripheral/Serial.h **** 		#if defined(__cplusplus)
  64:LUFA-100807/LUFA/Drivers/Peripheral/Serial.h **** 			extern "C" {
  65:LUFA-100807/LUFA/Drivers/Peripheral/Serial.h **** 		#endif
  66:LUFA-100807/LUFA/Drivers/Peripheral/Serial.h **** 
  67:LUFA-100807/LUFA/Drivers/Peripheral/Serial.h **** 	/* Public Interface - May be used in end-application: */
  68:LUFA-100807/LUFA/Drivers/Peripheral/Serial.h **** 		/* Macros: */
  69:LUFA-100807/LUFA/Drivers/Peripheral/Serial.h **** 			/** Macro for calculating the baud value from a given baud rate when the U2X (double speed) bit 
  70:LUFA-100807/LUFA/Drivers/Peripheral/Serial.h **** 			 *  not set.
  71:LUFA-100807/LUFA/Drivers/Peripheral/Serial.h **** 			 */
  72:LUFA-100807/LUFA/Drivers/Peripheral/Serial.h **** 			#define SERIAL_UBBRVAL(baud)    ((((F_CPU / 16) + (baud / 2)) / (baud)) - 1)
  73:LUFA-100807/LUFA/Drivers/Peripheral/Serial.h **** 
  74:LUFA-100807/LUFA/Drivers/Peripheral/Serial.h **** 			/** Macro for calculating the baud value from a given baud rate when the U2X (double speed) bit 
  75:LUFA-100807/LUFA/Drivers/Peripheral/Serial.h **** 			 *  set.
  76:LUFA-100807/LUFA/Drivers/Peripheral/Serial.h **** 			 */
  77:LUFA-100807/LUFA/Drivers/Peripheral/Serial.h **** 			#define SERIAL_2X_UBBRVAL(baud) ((((F_CPU / 8) + (baud / 2)) / (baud)) - 1)
  78:LUFA-100807/LUFA/Drivers/Peripheral/Serial.h **** 
  79:LUFA-100807/LUFA/Drivers/Peripheral/Serial.h **** 		/* Function Prototypes: */
  80:LUFA-100807/LUFA/Drivers/Peripheral/Serial.h **** 			/** Transmits a given string located in program space (FLASH) through the USART.
  81:LUFA-100807/LUFA/Drivers/Peripheral/Serial.h **** 			 *
  82:LUFA-100807/LUFA/Drivers/Peripheral/Serial.h **** 			 *  \param[in] FlashStringPtr  Pointer to a string located in program space.
  83:LUFA-100807/LUFA/Drivers/Peripheral/Serial.h **** 			 */
  84:LUFA-100807/LUFA/Drivers/Peripheral/Serial.h **** 			void Serial_TxString_P(const char* FlashStringPtr) ATTR_NON_NULL_PTR_ARG(1);
  85:LUFA-100807/LUFA/Drivers/Peripheral/Serial.h **** 
  86:LUFA-100807/LUFA/Drivers/Peripheral/Serial.h **** 			/** Transmits a given string located in SRAM memory through the USART.
  87:LUFA-100807/LUFA/Drivers/Peripheral/Serial.h **** 			 *
  88:LUFA-100807/LUFA/Drivers/Peripheral/Serial.h **** 			 *  \param[in] StringPtr  Pointer to a string located in SRAM space.
  89:LUFA-100807/LUFA/Drivers/Peripheral/Serial.h **** 			 */
  90:LUFA-100807/LUFA/Drivers/Peripheral/Serial.h **** 			void Serial_TxString(const char* StringPtr) ATTR_NON_NULL_PTR_ARG(1);
  91:LUFA-100807/LUFA/Drivers/Peripheral/Serial.h **** 
  92:LUFA-100807/LUFA/Drivers/Peripheral/Serial.h **** 		/* Inline Functions: */
  93:LUFA-100807/LUFA/Drivers/Peripheral/Serial.h **** 			/** Initializes the USART, ready for serial data transmission and reception. This initializes th
  94:LUFA-100807/LUFA/Drivers/Peripheral/Serial.h **** 			 *  standard 8-bit, no parity, 1 stop bit settings suitable for most applications.
  95:LUFA-100807/LUFA/Drivers/Peripheral/Serial.h **** 			 *
  96:LUFA-100807/LUFA/Drivers/Peripheral/Serial.h **** 			 *  \param[in] BaudRate     Serial baud rate, in bits per second.
  97:LUFA-100807/LUFA/Drivers/Peripheral/Serial.h **** 			 *  \param[in] DoubleSpeed  Enables double speed mode when set, halving the sample time to doubl
  98:LUFA-100807/LUFA/Drivers/Peripheral/Serial.h **** 			 */
  99:LUFA-100807/LUFA/Drivers/Peripheral/Serial.h **** 			static inline void Serial_Init(const uint32_t BaudRate,
 100:LUFA-100807/LUFA/Drivers/Peripheral/Serial.h **** 			                               const bool DoubleSpeed)
 101:LUFA-100807/LUFA/Drivers/Peripheral/Serial.h **** 			{
 102:LUFA-100807/LUFA/Drivers/Peripheral/Serial.h **** 				UBRR1  = (DoubleSpeed ? SERIAL_2X_UBBRVAL(BaudRate) : SERIAL_UBBRVAL(BaudRate));
 103:LUFA-100807/LUFA/Drivers/Peripheral/Serial.h **** 
 104:LUFA-100807/LUFA/Drivers/Peripheral/Serial.h **** 				UCSR1C = ((1 << UCSZ11) | (1 << UCSZ10));
 105:LUFA-100807/LUFA/Drivers/Peripheral/Serial.h **** 				UCSR1A = (DoubleSpeed ? (1 << U2X1) : 0);
 106:LUFA-100807/LUFA/Drivers/Peripheral/Serial.h **** 				UCSR1B = ((1 << TXEN1)  | (1 << RXEN1));
 107:LUFA-100807/LUFA/Drivers/Peripheral/Serial.h **** 				
 108:LUFA-100807/LUFA/Drivers/Peripheral/Serial.h **** 				DDRD  |= (1 << 3);
 109:LUFA-100807/LUFA/Drivers/Peripheral/Serial.h **** 				PORTD |= (1 << 2);
 110:LUFA-100807/LUFA/Drivers/Peripheral/Serial.h **** 			}
 111:LUFA-100807/LUFA/Drivers/Peripheral/Serial.h **** 
 112:LUFA-100807/LUFA/Drivers/Peripheral/Serial.h **** 			/** Turns off the USART driver, disabling and returning used hardware to their default configura
 113:LUFA-100807/LUFA/Drivers/Peripheral/Serial.h **** 			static inline void Serial_ShutDown(void)
 114:LUFA-100807/LUFA/Drivers/Peripheral/Serial.h **** 			{
 115:LUFA-100807/LUFA/Drivers/Peripheral/Serial.h **** 				UCSR1B = 0;
 116:LUFA-100807/LUFA/Drivers/Peripheral/Serial.h **** 				UCSR1A = 0;
 117:LUFA-100807/LUFA/Drivers/Peripheral/Serial.h **** 				UCSR1C = 0;
 118:LUFA-100807/LUFA/Drivers/Peripheral/Serial.h **** 
 119:LUFA-100807/LUFA/Drivers/Peripheral/Serial.h **** 				UBRR1  = 0;
 120:LUFA-100807/LUFA/Drivers/Peripheral/Serial.h **** 				
 121:LUFA-100807/LUFA/Drivers/Peripheral/Serial.h **** 				DDRD  &= ~(1 << 3);
 122:LUFA-100807/LUFA/Drivers/Peripheral/Serial.h **** 				PORTD &= ~(1 << 2);
 123:LUFA-100807/LUFA/Drivers/Peripheral/Serial.h **** 			}
 124:LUFA-100807/LUFA/Drivers/Peripheral/Serial.h **** 
 125:LUFA-100807/LUFA/Drivers/Peripheral/Serial.h **** 			/** Indicates whether a character has been received through the USART.
 126:LUFA-100807/LUFA/Drivers/Peripheral/Serial.h **** 			 *
 127:LUFA-100807/LUFA/Drivers/Peripheral/Serial.h **** 			 *  \return Boolean true if a character has been received, false otherwise.
 128:LUFA-100807/LUFA/Drivers/Peripheral/Serial.h **** 			 */
 129:LUFA-100807/LUFA/Drivers/Peripheral/Serial.h **** 			static inline bool Serial_IsCharReceived(void) ATTR_WARN_UNUSED_RESULT ATTR_ALWAYS_INLINE;
 130:LUFA-100807/LUFA/Drivers/Peripheral/Serial.h **** 			static inline bool Serial_IsCharReceived(void)
 131:LUFA-100807/LUFA/Drivers/Peripheral/Serial.h **** 			{
 132:LUFA-100807/LUFA/Drivers/Peripheral/Serial.h **** 				return ((UCSR1A & (1 << RXC1)) ? true : false);
 133:LUFA-100807/LUFA/Drivers/Peripheral/Serial.h **** 			}
 134:LUFA-100807/LUFA/Drivers/Peripheral/Serial.h **** 			
 135:LUFA-100807/LUFA/Drivers/Peripheral/Serial.h **** 			/** Transmits a given byte through the USART.
 136:LUFA-100807/LUFA/Drivers/Peripheral/Serial.h **** 			 *
 137:LUFA-100807/LUFA/Drivers/Peripheral/Serial.h **** 			 *  \param[in] DataByte  Byte to transmit through the USART.
 138:LUFA-100807/LUFA/Drivers/Peripheral/Serial.h **** 			 */
 139:LUFA-100807/LUFA/Drivers/Peripheral/Serial.h **** 			static inline void Serial_TxByte(const char DataByte) ATTR_ALWAYS_INLINE;
 140:LUFA-100807/LUFA/Drivers/Peripheral/Serial.h **** 			static inline void Serial_TxByte(const char DataByte)
 1233               		.loc 6 140 23 is_stmt 1 view .LVU430
 1234               	.LBB189:
 141:LUFA-100807/LUFA/Drivers/Peripheral/Serial.h **** 			{
 142:LUFA-100807/LUFA/Drivers/Peripheral/Serial.h **** 				while (!(UCSR1A & (1 << UDRE1)));
 1235               		.loc 6 142 5 view .LVU431
 1236               	.L77:
 1237               		.loc 6 142 37 view .LVU432
 1238               		.loc 6 142 11 view .LVU433
 1239               		.loc 6 142 14 is_stmt 0 view .LVU434
 1240 00fa 9091 C800 		lds r25,200
 1241               		.loc 6 142 11 view .LVU435
 1242 00fe 95FF      		sbrs r25,5
 1243 0100 00C0      		rjmp .L77
 143:LUFA-100807/LUFA/Drivers/Peripheral/Serial.h **** 				UDR1 = DataByte;
 1244               		.loc 6 143 5 is_stmt 1 view .LVU436
 1245               		.loc 6 143 10 is_stmt 0 view .LVU437
 1246 0102 8093 CE00 		sts 206,r24
 1247               	.LVL76:
 1248               		.loc 6 143 10 view .LVU438
 1249               	.LBE189:
 1250               	.LBE188:
 339:dualMoco.c    **** 	
 340:dualMoco.c    **** 	LEDs_TurnOnLEDs(LEDMASK_RX);
 1251               		.loc 3 340 2 is_stmt 1 view .LVU439
 1252               	.LBB190:
 1253               	.LBI190:
  73:./Board/LEDs.h **** 			{
 1254               		.loc 4 73 23 view .LVU440
 1255               	.LBB191:
  75:./Board/LEDs.h **** 			}
 1256               		.loc 4 75 5 view .LVU441
  75:./Board/LEDs.h **** 			}
 1257               		.loc 4 75 11 is_stmt 0 view .LVU442
 1258 0106 5C98      		cbi 0xb,4
 1259               	.LVL77:
  75:./Board/LEDs.h **** 			}
 1260               		.loc 4 75 11 view .LVU443
 1261               	.LBE191:
 1262               	.LBE190:
 341:dualMoco.c    **** 	PulseMSRemaining.RxLEDPulse = TX_RX_LED_PULSE_MS;
 1263               		.loc 3 341 2 is_stmt 1 view .LVU444
 1264               		.loc 3 341 30 is_stmt 0 view .LVU445
 1265 0108 D093 0000 		sts PulseMSRemaining+1,r29
 1266               	.L76:
 342:dualMoco.c    ****       }
 343:dualMoco.c    **** 		
 344:dualMoco.c    ****       CDC_Device_USBTask(&VirtualSerial_CDC_Interface);
 1267               		.loc 3 344 7 is_stmt 1 view .LVU446
 1268 010c 80E0      		ldi r24,lo8(VirtualSerial_CDC_Interface)
 1269 010e 90E0      		ldi r25,hi8(VirtualSerial_CDC_Interface)
 1270 0110 0E94 0000 		call CDC_Device_USBTask
 1271               	.LVL78:
 345:dualMoco.c    ****       USB_USBTask();
 1272               		.loc 3 345 7 view .LVU447
 1273 0114 0E94 0000 		call USB_USBTask
 1274               	.LVL79:
 1275               	.LBE195:
 300:dualMoco.c    ****     {
 1276               		.loc 3 300 9 view .LVU448
 301:dualMoco.c    ****       /* Only try to read in bytes from the CDC interface if the transmit buffer is not full */
 1277               		.loc 3 301 5 is_stmt 0 view .LVU449
 1278 0118 00C0      		rjmp .L78
 1279               	.LVL80:
 1280               	.L65:
 1281               	.LBB196:
 1282               	.LBB192:
 1283               	.LBB165:
 1284               	.LBB163:
 164:Lib/LightweightRingBuff.h **** 
 1285               		.loc 1 164 6 is_stmt 1 view .LVU450
 164:Lib/LightweightRingBuff.h **** 
 1286               		.loc 1 164 17 is_stmt 0 view .LVU451
 1287 011a 1093 0000 		sts USBtoUSART_Buffer+128+1,r17
 1288 011e 0093 0000 		sts USBtoUSART_Buffer+128,r16
 1289 0122 00C0      		rjmp .L66
 1290               	.LVL81:
 1291               	.L71:
 164:Lib/LightweightRingBuff.h **** 
 1292               		.loc 1 164 17 view .LVU452
 1293               	.LBE163:
 1294               	.LBE165:
 1295               	.LBE192:
 325:dualMoco.c    **** 	  
 1296               		.loc 3 325 6 is_stmt 1 view .LVU453
 1297 0124 80E0      		ldi r24,lo8(USARTtoUSB_Buffer)
 1298 0126 90E0      		ldi r25,hi8(USARTtoUSB_Buffer)
 1299 0128 0E94 0000 		call RingBuffer_Remove
 1300               	.LVL82:
 1301 012c 682F      		mov r22,r24
 1302 012e 80E0      		ldi r24,lo8(VirtualSerial_CDC_Interface)
 1303 0130 90E0      		ldi r25,hi8(VirtualSerial_CDC_Interface)
 1304 0132 0E94 0000 		call CDC_Device_SendByte
 1305               	.LVL83:
 1306 0136 00C0      		rjmp .L70
 1307               	.LBE196:
 1308               		.cfi_endproc
 1309               	.LFE95:
 1311               		.section	.text.SetupHardware,"ax",@progbits
 1312               	.global	SetupHardware
 1314               	SetupHardware:
 1315               	.LFB96:
 346:dualMoco.c    ****     }
 347:dualMoco.c    **** }
 348:dualMoco.c    **** 
 349:dualMoco.c    **** 
 350:dualMoco.c    **** /** Configures the board hardware and chip peripherals for the demo's functionality. */
 351:dualMoco.c    **** void SetupHardware(void) {
 1316               		.loc 3 351 26 view -0
 1317               		.cfi_startproc
 1318               	/* prologue: function */
 1319               	/* frame size = 0 */
 1320               	/* stack size = 0 */
 1321               	.L__stack_usage = 0
 352:dualMoco.c    ****   /* Disable watchdog if enabled by bootloader/fuses */
 353:dualMoco.c    ****   MCUSR &= ~(1 << WDRF);
 1322               		.loc 3 353 3 view .LVU455
 1323               		.loc 3 353 9 is_stmt 0 view .LVU456
 1324 0000 84B7      		in r24,0x34
 1325 0002 877F      		andi r24,lo8(-9)
 1326 0004 84BF      		out 0x34,r24
 354:dualMoco.c    ****   wdt_disable();
 1327               		.loc 3 354 3 is_stmt 1 view .LVU457
 1328               	.LBB203:
 1329               	.LBI203:
 1330               		.file 7 "/opt/homebrew/Cellar/avr-gcc@9/9.4.0_1/avr/include/avr/wdt.h"
   1:/opt/homebrew/Cellar/avr-gcc@9/9.4.0_1/avr/include/avr/wdt.h **** /* Copyright (c) 2002, 2004 Marek Michalkiewicz
   2:/opt/homebrew/Cellar/avr-gcc@9/9.4.0_1/avr/include/avr/wdt.h ****    Copyright (c) 2005, 2006, 2007 Eric B. Weddington
   3:/opt/homebrew/Cellar/avr-gcc@9/9.4.0_1/avr/include/avr/wdt.h ****    All rights reserved.
   4:/opt/homebrew/Cellar/avr-gcc@9/9.4.0_1/avr/include/avr/wdt.h **** 
   5:/opt/homebrew/Cellar/avr-gcc@9/9.4.0_1/avr/include/avr/wdt.h ****    Redistribution and use in source and binary forms, with or without
   6:/opt/homebrew/Cellar/avr-gcc@9/9.4.0_1/avr/include/avr/wdt.h ****    modification, are permitted provided that the following conditions are met:
   7:/opt/homebrew/Cellar/avr-gcc@9/9.4.0_1/avr/include/avr/wdt.h **** 
   8:/opt/homebrew/Cellar/avr-gcc@9/9.4.0_1/avr/include/avr/wdt.h ****    * Redistributions of source code must retain the above copyright
   9:/opt/homebrew/Cellar/avr-gcc@9/9.4.0_1/avr/include/avr/wdt.h ****      notice, this list of conditions and the following disclaimer.
  10:/opt/homebrew/Cellar/avr-gcc@9/9.4.0_1/avr/include/avr/wdt.h **** 
  11:/opt/homebrew/Cellar/avr-gcc@9/9.4.0_1/avr/include/avr/wdt.h ****    * Redistributions in binary form must reproduce the above copyright
  12:/opt/homebrew/Cellar/avr-gcc@9/9.4.0_1/avr/include/avr/wdt.h ****      notice, this list of conditions and the following disclaimer in
  13:/opt/homebrew/Cellar/avr-gcc@9/9.4.0_1/avr/include/avr/wdt.h ****      the documentation and/or other materials provided with the
  14:/opt/homebrew/Cellar/avr-gcc@9/9.4.0_1/avr/include/avr/wdt.h ****      distribution.
  15:/opt/homebrew/Cellar/avr-gcc@9/9.4.0_1/avr/include/avr/wdt.h **** 
  16:/opt/homebrew/Cellar/avr-gcc@9/9.4.0_1/avr/include/avr/wdt.h ****    * Neither the name of the copyright holders nor the names of
  17:/opt/homebrew/Cellar/avr-gcc@9/9.4.0_1/avr/include/avr/wdt.h ****      contributors may be used to endorse or promote products derived
  18:/opt/homebrew/Cellar/avr-gcc@9/9.4.0_1/avr/include/avr/wdt.h ****      from this software without specific prior written permission.
  19:/opt/homebrew/Cellar/avr-gcc@9/9.4.0_1/avr/include/avr/wdt.h **** 
  20:/opt/homebrew/Cellar/avr-gcc@9/9.4.0_1/avr/include/avr/wdt.h ****   THIS SOFTWARE IS PROVIDED BY THE COPYRIGHT HOLDERS AND CONTRIBUTORS "AS IS"
  21:/opt/homebrew/Cellar/avr-gcc@9/9.4.0_1/avr/include/avr/wdt.h ****   AND ANY EXPRESS OR IMPLIED WARRANTIES, INCLUDING, BUT NOT LIMITED TO, THE
  22:/opt/homebrew/Cellar/avr-gcc@9/9.4.0_1/avr/include/avr/wdt.h ****   IMPLIED WARRANTIES OF MERCHANTABILITY AND FITNESS FOR A PARTICULAR PURPOSE
  23:/opt/homebrew/Cellar/avr-gcc@9/9.4.0_1/avr/include/avr/wdt.h ****   ARE DISCLAIMED. IN NO EVENT SHALL THE COPYRIGHT OWNER OR CONTRIBUTORS BE
  24:/opt/homebrew/Cellar/avr-gcc@9/9.4.0_1/avr/include/avr/wdt.h ****   LIABLE FOR ANY DIRECT, INDIRECT, INCIDENTAL, SPECIAL, EXEMPLARY, OR
  25:/opt/homebrew/Cellar/avr-gcc@9/9.4.0_1/avr/include/avr/wdt.h ****   CONSEQUENTIAL DAMAGES (INCLUDING, BUT NOT LIMITED TO, PROCUREMENT OF
  26:/opt/homebrew/Cellar/avr-gcc@9/9.4.0_1/avr/include/avr/wdt.h ****   SUBSTITUTE GOODS OR SERVICES; LOSS OF USE, DATA, OR PROFITS; OR BUSINESS
  27:/opt/homebrew/Cellar/avr-gcc@9/9.4.0_1/avr/include/avr/wdt.h ****   INTERRUPTION) HOWEVER CAUSED AND ON ANY THEORY OF LIABILITY, WHETHER IN
  28:/opt/homebrew/Cellar/avr-gcc@9/9.4.0_1/avr/include/avr/wdt.h ****   CONTRACT, STRICT LIABILITY, OR TORT (INCLUDING NEGLIGENCE OR OTHERWISE)
  29:/opt/homebrew/Cellar/avr-gcc@9/9.4.0_1/avr/include/avr/wdt.h ****   ARISING IN ANY WAY OUT OF THE USE OF THIS SOFTWARE, EVEN IF ADVISED OF THE
  30:/opt/homebrew/Cellar/avr-gcc@9/9.4.0_1/avr/include/avr/wdt.h ****   POSSIBILITY OF SUCH DAMAGE. */
  31:/opt/homebrew/Cellar/avr-gcc@9/9.4.0_1/avr/include/avr/wdt.h **** 
  32:/opt/homebrew/Cellar/avr-gcc@9/9.4.0_1/avr/include/avr/wdt.h **** /* $Id: wdt.h 2522 2016-04-20 05:43:23Z joerg_wunsch $ */
  33:/opt/homebrew/Cellar/avr-gcc@9/9.4.0_1/avr/include/avr/wdt.h **** 
  34:/opt/homebrew/Cellar/avr-gcc@9/9.4.0_1/avr/include/avr/wdt.h **** /*
  35:/opt/homebrew/Cellar/avr-gcc@9/9.4.0_1/avr/include/avr/wdt.h ****    avr/wdt.h - macros for AVR watchdog timer
  36:/opt/homebrew/Cellar/avr-gcc@9/9.4.0_1/avr/include/avr/wdt.h ****  */
  37:/opt/homebrew/Cellar/avr-gcc@9/9.4.0_1/avr/include/avr/wdt.h **** 
  38:/opt/homebrew/Cellar/avr-gcc@9/9.4.0_1/avr/include/avr/wdt.h **** #ifndef _AVR_WDT_H_
  39:/opt/homebrew/Cellar/avr-gcc@9/9.4.0_1/avr/include/avr/wdt.h **** #define _AVR_WDT_H_
  40:/opt/homebrew/Cellar/avr-gcc@9/9.4.0_1/avr/include/avr/wdt.h **** 
  41:/opt/homebrew/Cellar/avr-gcc@9/9.4.0_1/avr/include/avr/wdt.h **** #include <avr/io.h>
  42:/opt/homebrew/Cellar/avr-gcc@9/9.4.0_1/avr/include/avr/wdt.h **** #include <stdint.h>
  43:/opt/homebrew/Cellar/avr-gcc@9/9.4.0_1/avr/include/avr/wdt.h **** 
  44:/opt/homebrew/Cellar/avr-gcc@9/9.4.0_1/avr/include/avr/wdt.h **** /** \file */
  45:/opt/homebrew/Cellar/avr-gcc@9/9.4.0_1/avr/include/avr/wdt.h **** /** \defgroup avr_watchdog <avr/wdt.h>: Watchdog timer handling
  46:/opt/homebrew/Cellar/avr-gcc@9/9.4.0_1/avr/include/avr/wdt.h ****     \code #include <avr/wdt.h> \endcode
  47:/opt/homebrew/Cellar/avr-gcc@9/9.4.0_1/avr/include/avr/wdt.h **** 
  48:/opt/homebrew/Cellar/avr-gcc@9/9.4.0_1/avr/include/avr/wdt.h ****     This header file declares the interface to some inline macros
  49:/opt/homebrew/Cellar/avr-gcc@9/9.4.0_1/avr/include/avr/wdt.h ****     handling the watchdog timer present in many AVR devices.  In order
  50:/opt/homebrew/Cellar/avr-gcc@9/9.4.0_1/avr/include/avr/wdt.h ****     to prevent the watchdog timer configuration from being
  51:/opt/homebrew/Cellar/avr-gcc@9/9.4.0_1/avr/include/avr/wdt.h ****     accidentally altered by a crashing application, a special timed
  52:/opt/homebrew/Cellar/avr-gcc@9/9.4.0_1/avr/include/avr/wdt.h ****     sequence is required in order to change it.  The macros within
  53:/opt/homebrew/Cellar/avr-gcc@9/9.4.0_1/avr/include/avr/wdt.h ****     this header file handle the required sequence automatically
  54:/opt/homebrew/Cellar/avr-gcc@9/9.4.0_1/avr/include/avr/wdt.h ****     before changing any value.  Interrupts will be disabled during
  55:/opt/homebrew/Cellar/avr-gcc@9/9.4.0_1/avr/include/avr/wdt.h ****     the manipulation.
  56:/opt/homebrew/Cellar/avr-gcc@9/9.4.0_1/avr/include/avr/wdt.h **** 
  57:/opt/homebrew/Cellar/avr-gcc@9/9.4.0_1/avr/include/avr/wdt.h ****     \note Depending on the fuse configuration of the particular
  58:/opt/homebrew/Cellar/avr-gcc@9/9.4.0_1/avr/include/avr/wdt.h ****     device, further restrictions might apply, in particular it might
  59:/opt/homebrew/Cellar/avr-gcc@9/9.4.0_1/avr/include/avr/wdt.h ****     be disallowed to turn off the watchdog timer.
  60:/opt/homebrew/Cellar/avr-gcc@9/9.4.0_1/avr/include/avr/wdt.h **** 
  61:/opt/homebrew/Cellar/avr-gcc@9/9.4.0_1/avr/include/avr/wdt.h ****     Note that for newer devices (ATmega88 and newer, effectively any
  62:/opt/homebrew/Cellar/avr-gcc@9/9.4.0_1/avr/include/avr/wdt.h ****     AVR that has the option to also generate interrupts), the watchdog
  63:/opt/homebrew/Cellar/avr-gcc@9/9.4.0_1/avr/include/avr/wdt.h ****     timer remains active even after a system reset (except a power-on
  64:/opt/homebrew/Cellar/avr-gcc@9/9.4.0_1/avr/include/avr/wdt.h ****     condition), using the fastest prescaler value (approximately 15
  65:/opt/homebrew/Cellar/avr-gcc@9/9.4.0_1/avr/include/avr/wdt.h ****     ms).  It is therefore required to turn off the watchdog early
  66:/opt/homebrew/Cellar/avr-gcc@9/9.4.0_1/avr/include/avr/wdt.h ****     during program startup, the datasheet recommends a sequence like
  67:/opt/homebrew/Cellar/avr-gcc@9/9.4.0_1/avr/include/avr/wdt.h ****     the following:
  68:/opt/homebrew/Cellar/avr-gcc@9/9.4.0_1/avr/include/avr/wdt.h **** 
  69:/opt/homebrew/Cellar/avr-gcc@9/9.4.0_1/avr/include/avr/wdt.h ****     \code
  70:/opt/homebrew/Cellar/avr-gcc@9/9.4.0_1/avr/include/avr/wdt.h ****     #include <stdint.h>
  71:/opt/homebrew/Cellar/avr-gcc@9/9.4.0_1/avr/include/avr/wdt.h ****     #include <avr/wdt.h>
  72:/opt/homebrew/Cellar/avr-gcc@9/9.4.0_1/avr/include/avr/wdt.h **** 
  73:/opt/homebrew/Cellar/avr-gcc@9/9.4.0_1/avr/include/avr/wdt.h ****     uint8_t mcusr_mirror __attribute__ ((section (".noinit")));
  74:/opt/homebrew/Cellar/avr-gcc@9/9.4.0_1/avr/include/avr/wdt.h **** 
  75:/opt/homebrew/Cellar/avr-gcc@9/9.4.0_1/avr/include/avr/wdt.h ****     void get_mcusr(void) \
  76:/opt/homebrew/Cellar/avr-gcc@9/9.4.0_1/avr/include/avr/wdt.h ****       __attribute__((naked)) \
  77:/opt/homebrew/Cellar/avr-gcc@9/9.4.0_1/avr/include/avr/wdt.h ****       __attribute__((section(".init3")));
  78:/opt/homebrew/Cellar/avr-gcc@9/9.4.0_1/avr/include/avr/wdt.h ****     void get_mcusr(void)
  79:/opt/homebrew/Cellar/avr-gcc@9/9.4.0_1/avr/include/avr/wdt.h ****     {
  80:/opt/homebrew/Cellar/avr-gcc@9/9.4.0_1/avr/include/avr/wdt.h ****       mcusr_mirror = MCUSR;
  81:/opt/homebrew/Cellar/avr-gcc@9/9.4.0_1/avr/include/avr/wdt.h ****       MCUSR = 0;
  82:/opt/homebrew/Cellar/avr-gcc@9/9.4.0_1/avr/include/avr/wdt.h ****       wdt_disable();
  83:/opt/homebrew/Cellar/avr-gcc@9/9.4.0_1/avr/include/avr/wdt.h ****     }
  84:/opt/homebrew/Cellar/avr-gcc@9/9.4.0_1/avr/include/avr/wdt.h ****     \endcode
  85:/opt/homebrew/Cellar/avr-gcc@9/9.4.0_1/avr/include/avr/wdt.h **** 
  86:/opt/homebrew/Cellar/avr-gcc@9/9.4.0_1/avr/include/avr/wdt.h ****     Saving the value of MCUSR in \c mcusr_mirror is only needed if the
  87:/opt/homebrew/Cellar/avr-gcc@9/9.4.0_1/avr/include/avr/wdt.h ****     application later wants to examine the reset source, but in particular, 
  88:/opt/homebrew/Cellar/avr-gcc@9/9.4.0_1/avr/include/avr/wdt.h ****     clearing the watchdog reset flag before disabling the
  89:/opt/homebrew/Cellar/avr-gcc@9/9.4.0_1/avr/include/avr/wdt.h ****     watchdog is required, according to the datasheet.
  90:/opt/homebrew/Cellar/avr-gcc@9/9.4.0_1/avr/include/avr/wdt.h **** */
  91:/opt/homebrew/Cellar/avr-gcc@9/9.4.0_1/avr/include/avr/wdt.h **** 
  92:/opt/homebrew/Cellar/avr-gcc@9/9.4.0_1/avr/include/avr/wdt.h **** /**
  93:/opt/homebrew/Cellar/avr-gcc@9/9.4.0_1/avr/include/avr/wdt.h ****    \ingroup avr_watchdog
  94:/opt/homebrew/Cellar/avr-gcc@9/9.4.0_1/avr/include/avr/wdt.h ****    Reset the watchdog timer.  When the watchdog timer is enabled,
  95:/opt/homebrew/Cellar/avr-gcc@9/9.4.0_1/avr/include/avr/wdt.h ****    a call to this instruction is required before the timer expires,
  96:/opt/homebrew/Cellar/avr-gcc@9/9.4.0_1/avr/include/avr/wdt.h ****    otherwise a watchdog-initiated device reset will occur. 
  97:/opt/homebrew/Cellar/avr-gcc@9/9.4.0_1/avr/include/avr/wdt.h **** */
  98:/opt/homebrew/Cellar/avr-gcc@9/9.4.0_1/avr/include/avr/wdt.h **** 
  99:/opt/homebrew/Cellar/avr-gcc@9/9.4.0_1/avr/include/avr/wdt.h **** #define wdt_reset() __asm__ __volatile__ ("wdr")
 100:/opt/homebrew/Cellar/avr-gcc@9/9.4.0_1/avr/include/avr/wdt.h **** 
 101:/opt/homebrew/Cellar/avr-gcc@9/9.4.0_1/avr/include/avr/wdt.h **** #ifndef __DOXYGEN__
 102:/opt/homebrew/Cellar/avr-gcc@9/9.4.0_1/avr/include/avr/wdt.h **** 
 103:/opt/homebrew/Cellar/avr-gcc@9/9.4.0_1/avr/include/avr/wdt.h **** #if defined(WDP3)
 104:/opt/homebrew/Cellar/avr-gcc@9/9.4.0_1/avr/include/avr/wdt.h **** # define _WD_PS3_MASK       _BV(WDP3)
 105:/opt/homebrew/Cellar/avr-gcc@9/9.4.0_1/avr/include/avr/wdt.h **** #else
 106:/opt/homebrew/Cellar/avr-gcc@9/9.4.0_1/avr/include/avr/wdt.h **** # define _WD_PS3_MASK       0x00
 107:/opt/homebrew/Cellar/avr-gcc@9/9.4.0_1/avr/include/avr/wdt.h **** #endif
 108:/opt/homebrew/Cellar/avr-gcc@9/9.4.0_1/avr/include/avr/wdt.h **** 
 109:/opt/homebrew/Cellar/avr-gcc@9/9.4.0_1/avr/include/avr/wdt.h **** #if defined(WDTCSR)
 110:/opt/homebrew/Cellar/avr-gcc@9/9.4.0_1/avr/include/avr/wdt.h **** #  define _WD_CONTROL_REG     WDTCSR
 111:/opt/homebrew/Cellar/avr-gcc@9/9.4.0_1/avr/include/avr/wdt.h **** #elif defined(WDTCR)
 112:/opt/homebrew/Cellar/avr-gcc@9/9.4.0_1/avr/include/avr/wdt.h **** #  define _WD_CONTROL_REG     WDTCR
 113:/opt/homebrew/Cellar/avr-gcc@9/9.4.0_1/avr/include/avr/wdt.h **** #else
 114:/opt/homebrew/Cellar/avr-gcc@9/9.4.0_1/avr/include/avr/wdt.h **** #  define _WD_CONTROL_REG     WDT
 115:/opt/homebrew/Cellar/avr-gcc@9/9.4.0_1/avr/include/avr/wdt.h **** #endif
 116:/opt/homebrew/Cellar/avr-gcc@9/9.4.0_1/avr/include/avr/wdt.h **** 
 117:/opt/homebrew/Cellar/avr-gcc@9/9.4.0_1/avr/include/avr/wdt.h **** #if defined(WDTOE)
 118:/opt/homebrew/Cellar/avr-gcc@9/9.4.0_1/avr/include/avr/wdt.h **** #define _WD_CHANGE_BIT      WDTOE
 119:/opt/homebrew/Cellar/avr-gcc@9/9.4.0_1/avr/include/avr/wdt.h **** #else
 120:/opt/homebrew/Cellar/avr-gcc@9/9.4.0_1/avr/include/avr/wdt.h **** #define _WD_CHANGE_BIT      WDCE
 121:/opt/homebrew/Cellar/avr-gcc@9/9.4.0_1/avr/include/avr/wdt.h **** #endif
 122:/opt/homebrew/Cellar/avr-gcc@9/9.4.0_1/avr/include/avr/wdt.h **** 
 123:/opt/homebrew/Cellar/avr-gcc@9/9.4.0_1/avr/include/avr/wdt.h **** #endif	/* !__DOXYGEN__ */
 124:/opt/homebrew/Cellar/avr-gcc@9/9.4.0_1/avr/include/avr/wdt.h **** 
 125:/opt/homebrew/Cellar/avr-gcc@9/9.4.0_1/avr/include/avr/wdt.h **** 
 126:/opt/homebrew/Cellar/avr-gcc@9/9.4.0_1/avr/include/avr/wdt.h **** /**
 127:/opt/homebrew/Cellar/avr-gcc@9/9.4.0_1/avr/include/avr/wdt.h ****    \ingroup avr_watchdog
 128:/opt/homebrew/Cellar/avr-gcc@9/9.4.0_1/avr/include/avr/wdt.h ****    Enable the watchdog timer, configuring it for expiry after
 129:/opt/homebrew/Cellar/avr-gcc@9/9.4.0_1/avr/include/avr/wdt.h ****    \c timeout (which is a combination of the \c WDP0 through
 130:/opt/homebrew/Cellar/avr-gcc@9/9.4.0_1/avr/include/avr/wdt.h ****    \c WDP2 bits to write into the \c WDTCR register; For those devices 
 131:/opt/homebrew/Cellar/avr-gcc@9/9.4.0_1/avr/include/avr/wdt.h ****    that have a \c WDTCSR register, it uses the combination of the \c WDP0 
 132:/opt/homebrew/Cellar/avr-gcc@9/9.4.0_1/avr/include/avr/wdt.h ****    through \c WDP3 bits).
 133:/opt/homebrew/Cellar/avr-gcc@9/9.4.0_1/avr/include/avr/wdt.h **** 
 134:/opt/homebrew/Cellar/avr-gcc@9/9.4.0_1/avr/include/avr/wdt.h ****    See also the symbolic constants \c WDTO_15MS et al.
 135:/opt/homebrew/Cellar/avr-gcc@9/9.4.0_1/avr/include/avr/wdt.h **** */
 136:/opt/homebrew/Cellar/avr-gcc@9/9.4.0_1/avr/include/avr/wdt.h **** 
 137:/opt/homebrew/Cellar/avr-gcc@9/9.4.0_1/avr/include/avr/wdt.h **** 
 138:/opt/homebrew/Cellar/avr-gcc@9/9.4.0_1/avr/include/avr/wdt.h **** #if defined(__AVR_XMEGA__)
 139:/opt/homebrew/Cellar/avr-gcc@9/9.4.0_1/avr/include/avr/wdt.h **** 
 140:/opt/homebrew/Cellar/avr-gcc@9/9.4.0_1/avr/include/avr/wdt.h **** /*
 141:/opt/homebrew/Cellar/avr-gcc@9/9.4.0_1/avr/include/avr/wdt.h ****    wdt_enable(timeout) for xmega devices
 142:/opt/homebrew/Cellar/avr-gcc@9/9.4.0_1/avr/include/avr/wdt.h **** ** write signature (CCP_IOREG_gc) that enables change of protected I/O
 143:/opt/homebrew/Cellar/avr-gcc@9/9.4.0_1/avr/include/avr/wdt.h ****    registers to the CCP register
 144:/opt/homebrew/Cellar/avr-gcc@9/9.4.0_1/avr/include/avr/wdt.h **** ** At the same time,
 145:/opt/homebrew/Cellar/avr-gcc@9/9.4.0_1/avr/include/avr/wdt.h ****    1) set WDT change enable (WDT_CEN_bm)
 146:/opt/homebrew/Cellar/avr-gcc@9/9.4.0_1/avr/include/avr/wdt.h ****    2) enable WDT (WDT_ENABLE_bm)
 147:/opt/homebrew/Cellar/avr-gcc@9/9.4.0_1/avr/include/avr/wdt.h ****    3) set timeout (timeout)
 148:/opt/homebrew/Cellar/avr-gcc@9/9.4.0_1/avr/include/avr/wdt.h **** ** Synchronization starts when ENABLE bit of WDT is set. So, wait till it
 149:/opt/homebrew/Cellar/avr-gcc@9/9.4.0_1/avr/include/avr/wdt.h ****    finishes (SYNCBUSY of STATUS register is automatically cleared after the
 150:/opt/homebrew/Cellar/avr-gcc@9/9.4.0_1/avr/include/avr/wdt.h ****    sync is finished).
 151:/opt/homebrew/Cellar/avr-gcc@9/9.4.0_1/avr/include/avr/wdt.h **** */
 152:/opt/homebrew/Cellar/avr-gcc@9/9.4.0_1/avr/include/avr/wdt.h **** #define wdt_enable(timeout) \
 153:/opt/homebrew/Cellar/avr-gcc@9/9.4.0_1/avr/include/avr/wdt.h **** do { \
 154:/opt/homebrew/Cellar/avr-gcc@9/9.4.0_1/avr/include/avr/wdt.h **** uint8_t temp; \
 155:/opt/homebrew/Cellar/avr-gcc@9/9.4.0_1/avr/include/avr/wdt.h **** __asm__ __volatile__ (         \
 156:/opt/homebrew/Cellar/avr-gcc@9/9.4.0_1/avr/include/avr/wdt.h ****     "in __tmp_reg__, %[rampd]"              "\n\t" \
 157:/opt/homebrew/Cellar/avr-gcc@9/9.4.0_1/avr/include/avr/wdt.h ****     "out %[rampd], __zero_reg__"            "\n\t" \
 158:/opt/homebrew/Cellar/avr-gcc@9/9.4.0_1/avr/include/avr/wdt.h ****     "out %[ccp_reg], %[ioreg_cen_mask]"     "\n\t" \
 159:/opt/homebrew/Cellar/avr-gcc@9/9.4.0_1/avr/include/avr/wdt.h ****     "sts %[wdt_reg], %[wdt_enable_timeout]" "\n\t" \
 160:/opt/homebrew/Cellar/avr-gcc@9/9.4.0_1/avr/include/avr/wdt.h ****     "1:lds %[tmp], %[wdt_status_reg]"       "\n\t" \
 161:/opt/homebrew/Cellar/avr-gcc@9/9.4.0_1/avr/include/avr/wdt.h ****     "sbrc %[tmp], %[wdt_syncbusy_bit]"      "\n\t" \
 162:/opt/homebrew/Cellar/avr-gcc@9/9.4.0_1/avr/include/avr/wdt.h ****     "rjmp 1b"                               "\n\t" \
 163:/opt/homebrew/Cellar/avr-gcc@9/9.4.0_1/avr/include/avr/wdt.h ****     "out %[rampd], __tmp_reg__"             "\n\t" \
 164:/opt/homebrew/Cellar/avr-gcc@9/9.4.0_1/avr/include/avr/wdt.h ****     : [tmp]                "=r" (temp) \
 165:/opt/homebrew/Cellar/avr-gcc@9/9.4.0_1/avr/include/avr/wdt.h ****     : [rampd]              "I" (_SFR_IO_ADDR(RAMPD)),      \
 166:/opt/homebrew/Cellar/avr-gcc@9/9.4.0_1/avr/include/avr/wdt.h ****       [ccp_reg]            "I" (_SFR_IO_ADDR(CCP)),        \
 167:/opt/homebrew/Cellar/avr-gcc@9/9.4.0_1/avr/include/avr/wdt.h ****       [ioreg_cen_mask]     "r" ((uint8_t)CCP_IOREG_gc),     \
 168:/opt/homebrew/Cellar/avr-gcc@9/9.4.0_1/avr/include/avr/wdt.h ****       [wdt_reg]            "n" (_SFR_MEM_ADDR(WDT_CTRL)),   \
 169:/opt/homebrew/Cellar/avr-gcc@9/9.4.0_1/avr/include/avr/wdt.h ****       [wdt_enable_timeout] "r" ((uint8_t)(WDT_CEN_bm | WDT_ENABLE_bm | timeout)), \
 170:/opt/homebrew/Cellar/avr-gcc@9/9.4.0_1/avr/include/avr/wdt.h ****       [wdt_status_reg]     "n" (_SFR_MEM_ADDR(WDT_STATUS)), \
 171:/opt/homebrew/Cellar/avr-gcc@9/9.4.0_1/avr/include/avr/wdt.h ****       [wdt_syncbusy_bit]   "I" (WDT_SYNCBUSY_bm)            \
 172:/opt/homebrew/Cellar/avr-gcc@9/9.4.0_1/avr/include/avr/wdt.h ****     : "r0" \
 173:/opt/homebrew/Cellar/avr-gcc@9/9.4.0_1/avr/include/avr/wdt.h **** ); \
 174:/opt/homebrew/Cellar/avr-gcc@9/9.4.0_1/avr/include/avr/wdt.h **** } while(0)
 175:/opt/homebrew/Cellar/avr-gcc@9/9.4.0_1/avr/include/avr/wdt.h **** 
 176:/opt/homebrew/Cellar/avr-gcc@9/9.4.0_1/avr/include/avr/wdt.h **** #define wdt_disable() \
 177:/opt/homebrew/Cellar/avr-gcc@9/9.4.0_1/avr/include/avr/wdt.h **** __asm__ __volatile__ (  \
 178:/opt/homebrew/Cellar/avr-gcc@9/9.4.0_1/avr/include/avr/wdt.h ****     "in __tmp_reg__, %[rampd]"          "\n\t" \
 179:/opt/homebrew/Cellar/avr-gcc@9/9.4.0_1/avr/include/avr/wdt.h ****     "out %[rampd], __zero_reg__"        "\n\t" \
 180:/opt/homebrew/Cellar/avr-gcc@9/9.4.0_1/avr/include/avr/wdt.h ****     "out %[ccp_reg], %[ioreg_cen_mask]" "\n\t" \
 181:/opt/homebrew/Cellar/avr-gcc@9/9.4.0_1/avr/include/avr/wdt.h ****     "sts %[wdt_reg], %[disable_mask]"   "\n\t" \
 182:/opt/homebrew/Cellar/avr-gcc@9/9.4.0_1/avr/include/avr/wdt.h ****     "out %[rampd], __tmp_reg__"         "\n\t" \
 183:/opt/homebrew/Cellar/avr-gcc@9/9.4.0_1/avr/include/avr/wdt.h ****     : \
 184:/opt/homebrew/Cellar/avr-gcc@9/9.4.0_1/avr/include/avr/wdt.h ****     : [rampd]             "I" (_SFR_IO_ADDR(RAMPD)),    \
 185:/opt/homebrew/Cellar/avr-gcc@9/9.4.0_1/avr/include/avr/wdt.h ****       [ccp_reg]           "I" (_SFR_IO_ADDR(CCP)),      \
 186:/opt/homebrew/Cellar/avr-gcc@9/9.4.0_1/avr/include/avr/wdt.h ****       [ioreg_cen_mask]    "r" ((uint8_t)CCP_IOREG_gc),   \
 187:/opt/homebrew/Cellar/avr-gcc@9/9.4.0_1/avr/include/avr/wdt.h ****       [wdt_reg]           "n" (_SFR_MEM_ADDR(WDT_CTRL)), \
 188:/opt/homebrew/Cellar/avr-gcc@9/9.4.0_1/avr/include/avr/wdt.h ****       [disable_mask]      "r" ((uint8_t)((~WDT_ENABLE_bm) | WDT_CEN_bm)) \
 189:/opt/homebrew/Cellar/avr-gcc@9/9.4.0_1/avr/include/avr/wdt.h ****     : "r0" \
 190:/opt/homebrew/Cellar/avr-gcc@9/9.4.0_1/avr/include/avr/wdt.h **** );
 191:/opt/homebrew/Cellar/avr-gcc@9/9.4.0_1/avr/include/avr/wdt.h **** 
 192:/opt/homebrew/Cellar/avr-gcc@9/9.4.0_1/avr/include/avr/wdt.h **** #elif defined(__AVR_TINY__)
 193:/opt/homebrew/Cellar/avr-gcc@9/9.4.0_1/avr/include/avr/wdt.h **** 
 194:/opt/homebrew/Cellar/avr-gcc@9/9.4.0_1/avr/include/avr/wdt.h **** #define wdt_enable(value) \
 195:/opt/homebrew/Cellar/avr-gcc@9/9.4.0_1/avr/include/avr/wdt.h **** __asm__ __volatile__ ( \
 196:/opt/homebrew/Cellar/avr-gcc@9/9.4.0_1/avr/include/avr/wdt.h ****     "in __tmp_reg__,__SREG__" "\n\t"  \
 197:/opt/homebrew/Cellar/avr-gcc@9/9.4.0_1/avr/include/avr/wdt.h ****     "cli" "\n\t"  \
 198:/opt/homebrew/Cellar/avr-gcc@9/9.4.0_1/avr/include/avr/wdt.h ****     "wdr" "\n\t"  \
 199:/opt/homebrew/Cellar/avr-gcc@9/9.4.0_1/avr/include/avr/wdt.h ****     "out %[CCPADDRESS],%[SIGNATURE]" "\n\t"  \
 200:/opt/homebrew/Cellar/avr-gcc@9/9.4.0_1/avr/include/avr/wdt.h ****     "out %[WDTREG],%[WDVALUE]" "\n\t"  \
 201:/opt/homebrew/Cellar/avr-gcc@9/9.4.0_1/avr/include/avr/wdt.h ****     "out __SREG__,__tmp_reg__" "\n\t"  \
 202:/opt/homebrew/Cellar/avr-gcc@9/9.4.0_1/avr/include/avr/wdt.h ****     : /* no outputs */  \
 203:/opt/homebrew/Cellar/avr-gcc@9/9.4.0_1/avr/include/avr/wdt.h ****     : [CCPADDRESS] "I" (_SFR_IO_ADDR(CCP)),  \
 204:/opt/homebrew/Cellar/avr-gcc@9/9.4.0_1/avr/include/avr/wdt.h ****       [SIGNATURE] "r" ((uint8_t)0xD8), \
 205:/opt/homebrew/Cellar/avr-gcc@9/9.4.0_1/avr/include/avr/wdt.h ****       [WDTREG] "I" (_SFR_IO_ADDR(_WD_CONTROL_REG)), \
 206:/opt/homebrew/Cellar/avr-gcc@9/9.4.0_1/avr/include/avr/wdt.h ****       [WDVALUE] "r" ((uint8_t)((value & 0x08 ? _WD_PS3_MASK : 0x00) \
 207:/opt/homebrew/Cellar/avr-gcc@9/9.4.0_1/avr/include/avr/wdt.h ****       | _BV(WDE) | (value & 0x07) )) \
 208:/opt/homebrew/Cellar/avr-gcc@9/9.4.0_1/avr/include/avr/wdt.h ****     : "r16" \
 209:/opt/homebrew/Cellar/avr-gcc@9/9.4.0_1/avr/include/avr/wdt.h **** )
 210:/opt/homebrew/Cellar/avr-gcc@9/9.4.0_1/avr/include/avr/wdt.h **** 
 211:/opt/homebrew/Cellar/avr-gcc@9/9.4.0_1/avr/include/avr/wdt.h **** #define wdt_disable() \
 212:/opt/homebrew/Cellar/avr-gcc@9/9.4.0_1/avr/include/avr/wdt.h **** do { \
 213:/opt/homebrew/Cellar/avr-gcc@9/9.4.0_1/avr/include/avr/wdt.h **** uint8_t temp_wd; \
 214:/opt/homebrew/Cellar/avr-gcc@9/9.4.0_1/avr/include/avr/wdt.h **** __asm__ __volatile__ ( \
 215:/opt/homebrew/Cellar/avr-gcc@9/9.4.0_1/avr/include/avr/wdt.h ****     "in __tmp_reg__,__SREG__" "\n\t"  \
 216:/opt/homebrew/Cellar/avr-gcc@9/9.4.0_1/avr/include/avr/wdt.h ****     "cli" "\n\t"  \
 217:/opt/homebrew/Cellar/avr-gcc@9/9.4.0_1/avr/include/avr/wdt.h ****     "wdr" "\n\t"  \
 218:/opt/homebrew/Cellar/avr-gcc@9/9.4.0_1/avr/include/avr/wdt.h ****     "out %[CCPADDRESS],%[SIGNATURE]" "\n\t"  \
 219:/opt/homebrew/Cellar/avr-gcc@9/9.4.0_1/avr/include/avr/wdt.h ****     "in  %[TEMP_WD],%[WDTREG]" "\n\t" \
 220:/opt/homebrew/Cellar/avr-gcc@9/9.4.0_1/avr/include/avr/wdt.h ****     "cbr %[TEMP_WD],%[WDVALUE]" "\n\t" \
 221:/opt/homebrew/Cellar/avr-gcc@9/9.4.0_1/avr/include/avr/wdt.h ****     "out %[WDTREG],%[TEMP_WD]" "\n\t" \
 222:/opt/homebrew/Cellar/avr-gcc@9/9.4.0_1/avr/include/avr/wdt.h ****     "out __SREG__,__tmp_reg__" "\n\t" \
 223:/opt/homebrew/Cellar/avr-gcc@9/9.4.0_1/avr/include/avr/wdt.h ****     : /*no output */ \
 224:/opt/homebrew/Cellar/avr-gcc@9/9.4.0_1/avr/include/avr/wdt.h ****     : [CCPADDRESS] "I" (_SFR_IO_ADDR(CCP)), \
 225:/opt/homebrew/Cellar/avr-gcc@9/9.4.0_1/avr/include/avr/wdt.h ****       [SIGNATURE] "r" ((uint8_t)0xD8), \
 226:/opt/homebrew/Cellar/avr-gcc@9/9.4.0_1/avr/include/avr/wdt.h ****       [WDTREG] "I" (_SFR_IO_ADDR(_WD_CONTROL_REG)), \
 227:/opt/homebrew/Cellar/avr-gcc@9/9.4.0_1/avr/include/avr/wdt.h ****       [TEMP_WD] "d" (temp_wd), \
 228:/opt/homebrew/Cellar/avr-gcc@9/9.4.0_1/avr/include/avr/wdt.h ****       [WDVALUE] "n" (1 << WDE) \
 229:/opt/homebrew/Cellar/avr-gcc@9/9.4.0_1/avr/include/avr/wdt.h ****     : "r16" \
 230:/opt/homebrew/Cellar/avr-gcc@9/9.4.0_1/avr/include/avr/wdt.h **** ); \
 231:/opt/homebrew/Cellar/avr-gcc@9/9.4.0_1/avr/include/avr/wdt.h **** }while(0)
 232:/opt/homebrew/Cellar/avr-gcc@9/9.4.0_1/avr/include/avr/wdt.h **** 
 233:/opt/homebrew/Cellar/avr-gcc@9/9.4.0_1/avr/include/avr/wdt.h **** #elif defined(CCP)
 234:/opt/homebrew/Cellar/avr-gcc@9/9.4.0_1/avr/include/avr/wdt.h **** 
 235:/opt/homebrew/Cellar/avr-gcc@9/9.4.0_1/avr/include/avr/wdt.h **** static __inline__
 236:/opt/homebrew/Cellar/avr-gcc@9/9.4.0_1/avr/include/avr/wdt.h **** __attribute__ ((__always_inline__))
 237:/opt/homebrew/Cellar/avr-gcc@9/9.4.0_1/avr/include/avr/wdt.h **** void wdt_enable (const uint8_t value)
 238:/opt/homebrew/Cellar/avr-gcc@9/9.4.0_1/avr/include/avr/wdt.h **** {
 239:/opt/homebrew/Cellar/avr-gcc@9/9.4.0_1/avr/include/avr/wdt.h **** 	if (!_SFR_IO_REG_P (CCP) && !_SFR_IO_REG_P (_WD_CONTROL_REG))
 240:/opt/homebrew/Cellar/avr-gcc@9/9.4.0_1/avr/include/avr/wdt.h **** 	{
 241:/opt/homebrew/Cellar/avr-gcc@9/9.4.0_1/avr/include/avr/wdt.h **** 		__asm__ __volatile__ (
 242:/opt/homebrew/Cellar/avr-gcc@9/9.4.0_1/avr/include/avr/wdt.h **** 			"in __tmp_reg__,__SREG__" "\n\t"
 243:/opt/homebrew/Cellar/avr-gcc@9/9.4.0_1/avr/include/avr/wdt.h **** 			"cli" "\n\t"
 244:/opt/homebrew/Cellar/avr-gcc@9/9.4.0_1/avr/include/avr/wdt.h **** 			"wdr" "\n\t"
 245:/opt/homebrew/Cellar/avr-gcc@9/9.4.0_1/avr/include/avr/wdt.h **** 			"sts %[CCPADDRESS],%[SIGNATURE]" "\n\t"
 246:/opt/homebrew/Cellar/avr-gcc@9/9.4.0_1/avr/include/avr/wdt.h **** 			"sts %[WDTREG],%[WDVALUE]" "\n\t"
 247:/opt/homebrew/Cellar/avr-gcc@9/9.4.0_1/avr/include/avr/wdt.h **** 			"out __SREG__,__tmp_reg__" "\n\t"
 248:/opt/homebrew/Cellar/avr-gcc@9/9.4.0_1/avr/include/avr/wdt.h **** 			: /* no outputs */
 249:/opt/homebrew/Cellar/avr-gcc@9/9.4.0_1/avr/include/avr/wdt.h **** 			: [CCPADDRESS] "n" (_SFR_MEM_ADDR(CCP)),
 250:/opt/homebrew/Cellar/avr-gcc@9/9.4.0_1/avr/include/avr/wdt.h **** 			[SIGNATURE] "r" ((uint8_t)0xD8),
 251:/opt/homebrew/Cellar/avr-gcc@9/9.4.0_1/avr/include/avr/wdt.h **** 			[WDTREG] "n" (_SFR_MEM_ADDR(_WD_CONTROL_REG)),
 252:/opt/homebrew/Cellar/avr-gcc@9/9.4.0_1/avr/include/avr/wdt.h **** 			[WDVALUE] "r" ((uint8_t)((value & 0x08 ? _WD_PS3_MASK : 0x00)
 253:/opt/homebrew/Cellar/avr-gcc@9/9.4.0_1/avr/include/avr/wdt.h **** 				| _BV(WDE) | (value & 0x07) ))
 254:/opt/homebrew/Cellar/avr-gcc@9/9.4.0_1/avr/include/avr/wdt.h **** 			: "r0"
 255:/opt/homebrew/Cellar/avr-gcc@9/9.4.0_1/avr/include/avr/wdt.h **** 			);
 256:/opt/homebrew/Cellar/avr-gcc@9/9.4.0_1/avr/include/avr/wdt.h **** 	}
 257:/opt/homebrew/Cellar/avr-gcc@9/9.4.0_1/avr/include/avr/wdt.h **** 	else if (!_SFR_IO_REG_P (CCP) && _SFR_IO_REG_P (_WD_CONTROL_REG))
 258:/opt/homebrew/Cellar/avr-gcc@9/9.4.0_1/avr/include/avr/wdt.h **** 	{
 259:/opt/homebrew/Cellar/avr-gcc@9/9.4.0_1/avr/include/avr/wdt.h **** 		__asm__ __volatile__ (
 260:/opt/homebrew/Cellar/avr-gcc@9/9.4.0_1/avr/include/avr/wdt.h **** 			"in __tmp_reg__,__SREG__" "\n\t"
 261:/opt/homebrew/Cellar/avr-gcc@9/9.4.0_1/avr/include/avr/wdt.h **** 			"cli" "\n\t"
 262:/opt/homebrew/Cellar/avr-gcc@9/9.4.0_1/avr/include/avr/wdt.h **** 			"wdr" "\n\t"
 263:/opt/homebrew/Cellar/avr-gcc@9/9.4.0_1/avr/include/avr/wdt.h **** 			"sts %[CCPADDRESS],%[SIGNATURE]" "\n\t"
 264:/opt/homebrew/Cellar/avr-gcc@9/9.4.0_1/avr/include/avr/wdt.h **** 			"out %[WDTREG],%[WDVALUE]" "\n\t"
 265:/opt/homebrew/Cellar/avr-gcc@9/9.4.0_1/avr/include/avr/wdt.h **** 			"out __SREG__,__tmp_reg__" "\n\t"
 266:/opt/homebrew/Cellar/avr-gcc@9/9.4.0_1/avr/include/avr/wdt.h **** 			: /* no outputs */
 267:/opt/homebrew/Cellar/avr-gcc@9/9.4.0_1/avr/include/avr/wdt.h **** 			: [CCPADDRESS] "n" (_SFR_MEM_ADDR(CCP)),
 268:/opt/homebrew/Cellar/avr-gcc@9/9.4.0_1/avr/include/avr/wdt.h **** 			[SIGNATURE] "r" ((uint8_t)0xD8),
 269:/opt/homebrew/Cellar/avr-gcc@9/9.4.0_1/avr/include/avr/wdt.h **** 			[WDTREG] "I" (_SFR_IO_ADDR(_WD_CONTROL_REG)),
 270:/opt/homebrew/Cellar/avr-gcc@9/9.4.0_1/avr/include/avr/wdt.h **** 			[WDVALUE] "r" ((uint8_t)((value & 0x08 ? _WD_PS3_MASK : 0x00)
 271:/opt/homebrew/Cellar/avr-gcc@9/9.4.0_1/avr/include/avr/wdt.h **** 				| _BV(WDE) | (value & 0x07) ))
 272:/opt/homebrew/Cellar/avr-gcc@9/9.4.0_1/avr/include/avr/wdt.h **** 			: "r0"
 273:/opt/homebrew/Cellar/avr-gcc@9/9.4.0_1/avr/include/avr/wdt.h **** 			);
 274:/opt/homebrew/Cellar/avr-gcc@9/9.4.0_1/avr/include/avr/wdt.h **** 	}
 275:/opt/homebrew/Cellar/avr-gcc@9/9.4.0_1/avr/include/avr/wdt.h **** 	else if (_SFR_IO_REG_P (CCP) && !_SFR_IO_REG_P (_WD_CONTROL_REG))
 276:/opt/homebrew/Cellar/avr-gcc@9/9.4.0_1/avr/include/avr/wdt.h **** 	{
 277:/opt/homebrew/Cellar/avr-gcc@9/9.4.0_1/avr/include/avr/wdt.h **** 		__asm__ __volatile__ (
 278:/opt/homebrew/Cellar/avr-gcc@9/9.4.0_1/avr/include/avr/wdt.h **** 			"in __tmp_reg__,__SREG__" "\n\t"
 279:/opt/homebrew/Cellar/avr-gcc@9/9.4.0_1/avr/include/avr/wdt.h **** 			"cli" "\n\t"
 280:/opt/homebrew/Cellar/avr-gcc@9/9.4.0_1/avr/include/avr/wdt.h **** 			"wdr" "\n\t"
 281:/opt/homebrew/Cellar/avr-gcc@9/9.4.0_1/avr/include/avr/wdt.h **** 			"out %[CCPADDRESS],%[SIGNATURE]" "\n\t"
 282:/opt/homebrew/Cellar/avr-gcc@9/9.4.0_1/avr/include/avr/wdt.h **** 			"sts %[WDTREG],%[WDVALUE]" "\n\t"
 283:/opt/homebrew/Cellar/avr-gcc@9/9.4.0_1/avr/include/avr/wdt.h **** 			"out __SREG__,__tmp_reg__" "\n\t"
 284:/opt/homebrew/Cellar/avr-gcc@9/9.4.0_1/avr/include/avr/wdt.h **** 			: /* no outputs */
 285:/opt/homebrew/Cellar/avr-gcc@9/9.4.0_1/avr/include/avr/wdt.h **** 			: [CCPADDRESS] "I" (_SFR_IO_ADDR(CCP)),
 286:/opt/homebrew/Cellar/avr-gcc@9/9.4.0_1/avr/include/avr/wdt.h **** 			[SIGNATURE] "r" ((uint8_t)0xD8),
 287:/opt/homebrew/Cellar/avr-gcc@9/9.4.0_1/avr/include/avr/wdt.h **** 			[WDTREG] "n" (_SFR_MEM_ADDR(_WD_CONTROL_REG)),
 288:/opt/homebrew/Cellar/avr-gcc@9/9.4.0_1/avr/include/avr/wdt.h **** 			[WDVALUE] "r" ((uint8_t)((value & 0x08 ? _WD_PS3_MASK : 0x00)
 289:/opt/homebrew/Cellar/avr-gcc@9/9.4.0_1/avr/include/avr/wdt.h **** 				| _BV(WDE) | (value & 0x07) ))
 290:/opt/homebrew/Cellar/avr-gcc@9/9.4.0_1/avr/include/avr/wdt.h **** 			: "r0"
 291:/opt/homebrew/Cellar/avr-gcc@9/9.4.0_1/avr/include/avr/wdt.h **** 			);
 292:/opt/homebrew/Cellar/avr-gcc@9/9.4.0_1/avr/include/avr/wdt.h **** 	}
 293:/opt/homebrew/Cellar/avr-gcc@9/9.4.0_1/avr/include/avr/wdt.h **** 	else
 294:/opt/homebrew/Cellar/avr-gcc@9/9.4.0_1/avr/include/avr/wdt.h ****  	{
 295:/opt/homebrew/Cellar/avr-gcc@9/9.4.0_1/avr/include/avr/wdt.h **** 		__asm__ __volatile__ (
 296:/opt/homebrew/Cellar/avr-gcc@9/9.4.0_1/avr/include/avr/wdt.h **** 			"in __tmp_reg__,__SREG__" "\n\t"
 297:/opt/homebrew/Cellar/avr-gcc@9/9.4.0_1/avr/include/avr/wdt.h **** 			"cli" "\n\t"
 298:/opt/homebrew/Cellar/avr-gcc@9/9.4.0_1/avr/include/avr/wdt.h **** 			"wdr" "\n\t"
 299:/opt/homebrew/Cellar/avr-gcc@9/9.4.0_1/avr/include/avr/wdt.h **** 			"out %[CCPADDRESS],%[SIGNATURE]" "\n\t"
 300:/opt/homebrew/Cellar/avr-gcc@9/9.4.0_1/avr/include/avr/wdt.h **** 			"out %[WDTREG],%[WDVALUE]" "\n\t"
 301:/opt/homebrew/Cellar/avr-gcc@9/9.4.0_1/avr/include/avr/wdt.h **** 			"out __SREG__,__tmp_reg__" "\n\t"
 302:/opt/homebrew/Cellar/avr-gcc@9/9.4.0_1/avr/include/avr/wdt.h **** 			: /* no outputs */
 303:/opt/homebrew/Cellar/avr-gcc@9/9.4.0_1/avr/include/avr/wdt.h **** 			: [CCPADDRESS] "I" (_SFR_IO_ADDR(CCP)),
 304:/opt/homebrew/Cellar/avr-gcc@9/9.4.0_1/avr/include/avr/wdt.h **** 			[SIGNATURE] "r" ((uint8_t)0xD8),
 305:/opt/homebrew/Cellar/avr-gcc@9/9.4.0_1/avr/include/avr/wdt.h **** 			[WDTREG] "I" (_SFR_IO_ADDR(_WD_CONTROL_REG)),
 306:/opt/homebrew/Cellar/avr-gcc@9/9.4.0_1/avr/include/avr/wdt.h **** 			[WDVALUE] "r" ((uint8_t)((value & 0x08 ? _WD_PS3_MASK : 0x00)
 307:/opt/homebrew/Cellar/avr-gcc@9/9.4.0_1/avr/include/avr/wdt.h **** 				| _BV(WDE) | (value & 0x07) ))
 308:/opt/homebrew/Cellar/avr-gcc@9/9.4.0_1/avr/include/avr/wdt.h **** 			: "r0"
 309:/opt/homebrew/Cellar/avr-gcc@9/9.4.0_1/avr/include/avr/wdt.h **** 			);
 310:/opt/homebrew/Cellar/avr-gcc@9/9.4.0_1/avr/include/avr/wdt.h **** 	}
 311:/opt/homebrew/Cellar/avr-gcc@9/9.4.0_1/avr/include/avr/wdt.h **** }
 312:/opt/homebrew/Cellar/avr-gcc@9/9.4.0_1/avr/include/avr/wdt.h **** 
 313:/opt/homebrew/Cellar/avr-gcc@9/9.4.0_1/avr/include/avr/wdt.h **** static __inline__
 314:/opt/homebrew/Cellar/avr-gcc@9/9.4.0_1/avr/include/avr/wdt.h **** __attribute__ ((__always_inline__))
 315:/opt/homebrew/Cellar/avr-gcc@9/9.4.0_1/avr/include/avr/wdt.h **** void wdt_disable (void)
 316:/opt/homebrew/Cellar/avr-gcc@9/9.4.0_1/avr/include/avr/wdt.h **** {
 317:/opt/homebrew/Cellar/avr-gcc@9/9.4.0_1/avr/include/avr/wdt.h **** 	if (!_SFR_IO_REG_P (CCP) && !_SFR_IO_REG_P(_WD_CONTROL_REG))
 318:/opt/homebrew/Cellar/avr-gcc@9/9.4.0_1/avr/include/avr/wdt.h **** 	{
 319:/opt/homebrew/Cellar/avr-gcc@9/9.4.0_1/avr/include/avr/wdt.h ****         uint8_t temp_wd;
 320:/opt/homebrew/Cellar/avr-gcc@9/9.4.0_1/avr/include/avr/wdt.h ****         __asm__ __volatile__ (
 321:/opt/homebrew/Cellar/avr-gcc@9/9.4.0_1/avr/include/avr/wdt.h **** 				"in __tmp_reg__,__SREG__" "\n\t"
 322:/opt/homebrew/Cellar/avr-gcc@9/9.4.0_1/avr/include/avr/wdt.h **** 				"cli" "\n\t"
 323:/opt/homebrew/Cellar/avr-gcc@9/9.4.0_1/avr/include/avr/wdt.h **** 				"wdr" "\n\t"
 324:/opt/homebrew/Cellar/avr-gcc@9/9.4.0_1/avr/include/avr/wdt.h **** 				"sts %[CCPADDRESS],%[SIGNATURE]" "\n\t"
 325:/opt/homebrew/Cellar/avr-gcc@9/9.4.0_1/avr/include/avr/wdt.h **** 				"lds %[TEMP_WD],%[WDTREG]" "\n\t"
 326:/opt/homebrew/Cellar/avr-gcc@9/9.4.0_1/avr/include/avr/wdt.h **** 				"cbr %[TEMP_WD],%[WDVALUE]" "\n\t"
 327:/opt/homebrew/Cellar/avr-gcc@9/9.4.0_1/avr/include/avr/wdt.h **** 				"sts %[WDTREG],%[TEMP_WD]" "\n\t"
 328:/opt/homebrew/Cellar/avr-gcc@9/9.4.0_1/avr/include/avr/wdt.h **** 				"out __SREG__,__tmp_reg__" "\n\t"
 329:/opt/homebrew/Cellar/avr-gcc@9/9.4.0_1/avr/include/avr/wdt.h **** 				: /*no output */
 330:/opt/homebrew/Cellar/avr-gcc@9/9.4.0_1/avr/include/avr/wdt.h **** 				: [CCPADDRESS] "n" (_SFR_MEM_ADDR(CCP)),
 331:/opt/homebrew/Cellar/avr-gcc@9/9.4.0_1/avr/include/avr/wdt.h **** 				[SIGNATURE] "r" ((uint8_t)0xD8),
 332:/opt/homebrew/Cellar/avr-gcc@9/9.4.0_1/avr/include/avr/wdt.h **** 				[WDTREG] "n" (_SFR_MEM_ADDR(_WD_CONTROL_REG)),
 333:/opt/homebrew/Cellar/avr-gcc@9/9.4.0_1/avr/include/avr/wdt.h **** 				[TEMP_WD] "d" (temp_wd),
 334:/opt/homebrew/Cellar/avr-gcc@9/9.4.0_1/avr/include/avr/wdt.h **** 				[WDVALUE] "n" (1 << WDE)
 335:/opt/homebrew/Cellar/avr-gcc@9/9.4.0_1/avr/include/avr/wdt.h **** 				: "r0"
 336:/opt/homebrew/Cellar/avr-gcc@9/9.4.0_1/avr/include/avr/wdt.h **** 				);
 337:/opt/homebrew/Cellar/avr-gcc@9/9.4.0_1/avr/include/avr/wdt.h **** 	}
 338:/opt/homebrew/Cellar/avr-gcc@9/9.4.0_1/avr/include/avr/wdt.h **** 	else if (!_SFR_IO_REG_P (CCP) && _SFR_IO_REG_P(_WD_CONTROL_REG))
 339:/opt/homebrew/Cellar/avr-gcc@9/9.4.0_1/avr/include/avr/wdt.h **** 	{
 340:/opt/homebrew/Cellar/avr-gcc@9/9.4.0_1/avr/include/avr/wdt.h ****         uint8_t temp_wd;
 341:/opt/homebrew/Cellar/avr-gcc@9/9.4.0_1/avr/include/avr/wdt.h ****         __asm__ __volatile__ (
 342:/opt/homebrew/Cellar/avr-gcc@9/9.4.0_1/avr/include/avr/wdt.h **** 				"in __tmp_reg__,__SREG__" "\n\t"
 343:/opt/homebrew/Cellar/avr-gcc@9/9.4.0_1/avr/include/avr/wdt.h **** 				"cli" "\n\t"
 344:/opt/homebrew/Cellar/avr-gcc@9/9.4.0_1/avr/include/avr/wdt.h **** 				"wdr" "\n\t"
 345:/opt/homebrew/Cellar/avr-gcc@9/9.4.0_1/avr/include/avr/wdt.h **** 				"sts %[CCPADDRESS],%[SIGNATURE]" "\n\t"
 346:/opt/homebrew/Cellar/avr-gcc@9/9.4.0_1/avr/include/avr/wdt.h **** 				"in %[TEMP_WD],%[WDTREG]" "\n\t"
 347:/opt/homebrew/Cellar/avr-gcc@9/9.4.0_1/avr/include/avr/wdt.h **** 				"cbr %[TEMP_WD],%[WDVALUE]" "\n\t"
 348:/opt/homebrew/Cellar/avr-gcc@9/9.4.0_1/avr/include/avr/wdt.h **** 				"out %[WDTREG],%[TEMP_WD]" "\n\t"
 349:/opt/homebrew/Cellar/avr-gcc@9/9.4.0_1/avr/include/avr/wdt.h **** 				"out __SREG__,__tmp_reg__" "\n\t"
 350:/opt/homebrew/Cellar/avr-gcc@9/9.4.0_1/avr/include/avr/wdt.h **** 				: /*no output */
 351:/opt/homebrew/Cellar/avr-gcc@9/9.4.0_1/avr/include/avr/wdt.h **** 				: [CCPADDRESS] "n" (_SFR_MEM_ADDR(CCP)),
 352:/opt/homebrew/Cellar/avr-gcc@9/9.4.0_1/avr/include/avr/wdt.h **** 				[SIGNATURE] "r" ((uint8_t)0xD8),
 353:/opt/homebrew/Cellar/avr-gcc@9/9.4.0_1/avr/include/avr/wdt.h **** 				[WDTREG] "I" (_SFR_IO_ADDR(_WD_CONTROL_REG)),
 354:/opt/homebrew/Cellar/avr-gcc@9/9.4.0_1/avr/include/avr/wdt.h **** 				[TEMP_WD] "d" (temp_wd),
 355:/opt/homebrew/Cellar/avr-gcc@9/9.4.0_1/avr/include/avr/wdt.h **** 				[WDVALUE] "n" (1 << WDE)
 356:/opt/homebrew/Cellar/avr-gcc@9/9.4.0_1/avr/include/avr/wdt.h **** 				: "r0"
 357:/opt/homebrew/Cellar/avr-gcc@9/9.4.0_1/avr/include/avr/wdt.h **** 				);
 358:/opt/homebrew/Cellar/avr-gcc@9/9.4.0_1/avr/include/avr/wdt.h **** 	}
 359:/opt/homebrew/Cellar/avr-gcc@9/9.4.0_1/avr/include/avr/wdt.h **** 	else if (_SFR_IO_REG_P (CCP) && !_SFR_IO_REG_P(_WD_CONTROL_REG))
 360:/opt/homebrew/Cellar/avr-gcc@9/9.4.0_1/avr/include/avr/wdt.h **** 	{
 361:/opt/homebrew/Cellar/avr-gcc@9/9.4.0_1/avr/include/avr/wdt.h ****         uint8_t temp_wd;
 362:/opt/homebrew/Cellar/avr-gcc@9/9.4.0_1/avr/include/avr/wdt.h ****         __asm__ __volatile__ (
 363:/opt/homebrew/Cellar/avr-gcc@9/9.4.0_1/avr/include/avr/wdt.h **** 				"in __tmp_reg__,__SREG__" "\n\t"
 364:/opt/homebrew/Cellar/avr-gcc@9/9.4.0_1/avr/include/avr/wdt.h **** 				"cli" "\n\t"
 365:/opt/homebrew/Cellar/avr-gcc@9/9.4.0_1/avr/include/avr/wdt.h **** 				"wdr" "\n\t"
 366:/opt/homebrew/Cellar/avr-gcc@9/9.4.0_1/avr/include/avr/wdt.h **** 				"out %[CCPADDRESS],%[SIGNATURE]" "\n\t"
 367:/opt/homebrew/Cellar/avr-gcc@9/9.4.0_1/avr/include/avr/wdt.h **** 				"lds %[TEMP_WD],%[WDTREG]" "\n\t"
 368:/opt/homebrew/Cellar/avr-gcc@9/9.4.0_1/avr/include/avr/wdt.h **** 				"cbr %[TEMP_WD],%[WDVALUE]" "\n\t"
 369:/opt/homebrew/Cellar/avr-gcc@9/9.4.0_1/avr/include/avr/wdt.h **** 				"sts %[WDTREG],%[TEMP_WD]" "\n\t"
 370:/opt/homebrew/Cellar/avr-gcc@9/9.4.0_1/avr/include/avr/wdt.h **** 				"out __SREG__,__tmp_reg__" "\n\t"
 371:/opt/homebrew/Cellar/avr-gcc@9/9.4.0_1/avr/include/avr/wdt.h **** 				: /*no output */
 372:/opt/homebrew/Cellar/avr-gcc@9/9.4.0_1/avr/include/avr/wdt.h **** 				: [CCPADDRESS] "I" (_SFR_IO_ADDR(CCP)),
 373:/opt/homebrew/Cellar/avr-gcc@9/9.4.0_1/avr/include/avr/wdt.h **** 				[SIGNATURE] "r" ((uint8_t)0xD8),
 374:/opt/homebrew/Cellar/avr-gcc@9/9.4.0_1/avr/include/avr/wdt.h **** 				[WDTREG] "n" (_SFR_MEM_ADDR(_WD_CONTROL_REG)),
 375:/opt/homebrew/Cellar/avr-gcc@9/9.4.0_1/avr/include/avr/wdt.h **** 				[TEMP_WD] "d" (temp_wd),
 376:/opt/homebrew/Cellar/avr-gcc@9/9.4.0_1/avr/include/avr/wdt.h **** 				[WDVALUE] "n" (1 << WDE)
 377:/opt/homebrew/Cellar/avr-gcc@9/9.4.0_1/avr/include/avr/wdt.h **** 				: "r0"
 378:/opt/homebrew/Cellar/avr-gcc@9/9.4.0_1/avr/include/avr/wdt.h **** 				);
 379:/opt/homebrew/Cellar/avr-gcc@9/9.4.0_1/avr/include/avr/wdt.h **** 	}
 380:/opt/homebrew/Cellar/avr-gcc@9/9.4.0_1/avr/include/avr/wdt.h **** 	else
 381:/opt/homebrew/Cellar/avr-gcc@9/9.4.0_1/avr/include/avr/wdt.h **** 	{
 382:/opt/homebrew/Cellar/avr-gcc@9/9.4.0_1/avr/include/avr/wdt.h ****         uint8_t temp_wd;
 383:/opt/homebrew/Cellar/avr-gcc@9/9.4.0_1/avr/include/avr/wdt.h ****         __asm__ __volatile__ (
 384:/opt/homebrew/Cellar/avr-gcc@9/9.4.0_1/avr/include/avr/wdt.h **** 				"in __tmp_reg__,__SREG__" "\n\t"
 385:/opt/homebrew/Cellar/avr-gcc@9/9.4.0_1/avr/include/avr/wdt.h **** 				"cli" "\n\t"
 386:/opt/homebrew/Cellar/avr-gcc@9/9.4.0_1/avr/include/avr/wdt.h **** 				"wdr" "\n\t"
 387:/opt/homebrew/Cellar/avr-gcc@9/9.4.0_1/avr/include/avr/wdt.h **** 				"out %[CCPADDRESS],%[SIGNATURE]" "\n\t"
 388:/opt/homebrew/Cellar/avr-gcc@9/9.4.0_1/avr/include/avr/wdt.h **** 				"in %[TEMP_WD],%[WDTREG]" "\n\t"
 389:/opt/homebrew/Cellar/avr-gcc@9/9.4.0_1/avr/include/avr/wdt.h **** 				"cbr %[TEMP_WD],%[WDVALUE]" "\n\t"
 390:/opt/homebrew/Cellar/avr-gcc@9/9.4.0_1/avr/include/avr/wdt.h **** 				"out %[WDTREG],%[TEMP_WD]" "\n\t"
 391:/opt/homebrew/Cellar/avr-gcc@9/9.4.0_1/avr/include/avr/wdt.h **** 				"out __SREG__,__tmp_reg__" "\n\t"
 392:/opt/homebrew/Cellar/avr-gcc@9/9.4.0_1/avr/include/avr/wdt.h **** 				: /*no output */
 393:/opt/homebrew/Cellar/avr-gcc@9/9.4.0_1/avr/include/avr/wdt.h **** 				: [CCPADDRESS] "I" (_SFR_IO_ADDR(CCP)),
 394:/opt/homebrew/Cellar/avr-gcc@9/9.4.0_1/avr/include/avr/wdt.h **** 				[SIGNATURE] "r" ((uint8_t)0xD8),
 395:/opt/homebrew/Cellar/avr-gcc@9/9.4.0_1/avr/include/avr/wdt.h **** 				[WDTREG] "I" (_SFR_IO_ADDR(_WD_CONTROL_REG)),
 396:/opt/homebrew/Cellar/avr-gcc@9/9.4.0_1/avr/include/avr/wdt.h **** 				[TEMP_WD] "d" (temp_wd),
 397:/opt/homebrew/Cellar/avr-gcc@9/9.4.0_1/avr/include/avr/wdt.h **** 				[WDVALUE] "n" (1 << WDE)
 398:/opt/homebrew/Cellar/avr-gcc@9/9.4.0_1/avr/include/avr/wdt.h **** 				: "r0"
 399:/opt/homebrew/Cellar/avr-gcc@9/9.4.0_1/avr/include/avr/wdt.h **** 				);
 400:/opt/homebrew/Cellar/avr-gcc@9/9.4.0_1/avr/include/avr/wdt.h **** 	}
 401:/opt/homebrew/Cellar/avr-gcc@9/9.4.0_1/avr/include/avr/wdt.h **** }
 402:/opt/homebrew/Cellar/avr-gcc@9/9.4.0_1/avr/include/avr/wdt.h **** 
 403:/opt/homebrew/Cellar/avr-gcc@9/9.4.0_1/avr/include/avr/wdt.h **** #else
 404:/opt/homebrew/Cellar/avr-gcc@9/9.4.0_1/avr/include/avr/wdt.h **** 
 405:/opt/homebrew/Cellar/avr-gcc@9/9.4.0_1/avr/include/avr/wdt.h **** static __inline__
 406:/opt/homebrew/Cellar/avr-gcc@9/9.4.0_1/avr/include/avr/wdt.h **** __attribute__ ((__always_inline__))
 407:/opt/homebrew/Cellar/avr-gcc@9/9.4.0_1/avr/include/avr/wdt.h **** void wdt_enable (const uint8_t value)
 408:/opt/homebrew/Cellar/avr-gcc@9/9.4.0_1/avr/include/avr/wdt.h **** {
 409:/opt/homebrew/Cellar/avr-gcc@9/9.4.0_1/avr/include/avr/wdt.h **** 	if (_SFR_IO_REG_P (_WD_CONTROL_REG))
 410:/opt/homebrew/Cellar/avr-gcc@9/9.4.0_1/avr/include/avr/wdt.h **** 	{
 411:/opt/homebrew/Cellar/avr-gcc@9/9.4.0_1/avr/include/avr/wdt.h **** 		__asm__ __volatile__ (
 412:/opt/homebrew/Cellar/avr-gcc@9/9.4.0_1/avr/include/avr/wdt.h **** 				"in __tmp_reg__,__SREG__" "\n\t"
 413:/opt/homebrew/Cellar/avr-gcc@9/9.4.0_1/avr/include/avr/wdt.h **** 				"cli" "\n\t"
 414:/opt/homebrew/Cellar/avr-gcc@9/9.4.0_1/avr/include/avr/wdt.h **** 				"wdr" "\n\t"
 415:/opt/homebrew/Cellar/avr-gcc@9/9.4.0_1/avr/include/avr/wdt.h **** 				"out %0, %1" "\n\t"
 416:/opt/homebrew/Cellar/avr-gcc@9/9.4.0_1/avr/include/avr/wdt.h **** 				"out __SREG__,__tmp_reg__" "\n\t"
 417:/opt/homebrew/Cellar/avr-gcc@9/9.4.0_1/avr/include/avr/wdt.h **** 				"out %0, %2" "\n \t"
 418:/opt/homebrew/Cellar/avr-gcc@9/9.4.0_1/avr/include/avr/wdt.h **** 				: /* no outputs */
 419:/opt/homebrew/Cellar/avr-gcc@9/9.4.0_1/avr/include/avr/wdt.h **** 				: "I" (_SFR_IO_ADDR(_WD_CONTROL_REG)),
 420:/opt/homebrew/Cellar/avr-gcc@9/9.4.0_1/avr/include/avr/wdt.h **** 				"r" ((uint8_t)(_BV(_WD_CHANGE_BIT) | _BV(WDE))),
 421:/opt/homebrew/Cellar/avr-gcc@9/9.4.0_1/avr/include/avr/wdt.h **** 				"r" ((uint8_t) ((value & 0x08 ? _WD_PS3_MASK : 0x00) |
 422:/opt/homebrew/Cellar/avr-gcc@9/9.4.0_1/avr/include/avr/wdt.h **** 						_BV(WDE) | (value & 0x07)) )
 423:/opt/homebrew/Cellar/avr-gcc@9/9.4.0_1/avr/include/avr/wdt.h **** 				: "r0"
 424:/opt/homebrew/Cellar/avr-gcc@9/9.4.0_1/avr/include/avr/wdt.h **** 		);
 425:/opt/homebrew/Cellar/avr-gcc@9/9.4.0_1/avr/include/avr/wdt.h **** 	}
 426:/opt/homebrew/Cellar/avr-gcc@9/9.4.0_1/avr/include/avr/wdt.h **** 	else
 427:/opt/homebrew/Cellar/avr-gcc@9/9.4.0_1/avr/include/avr/wdt.h **** 	{
 428:/opt/homebrew/Cellar/avr-gcc@9/9.4.0_1/avr/include/avr/wdt.h **** 		__asm__ __volatile__ (
 429:/opt/homebrew/Cellar/avr-gcc@9/9.4.0_1/avr/include/avr/wdt.h **** 				"in __tmp_reg__,__SREG__" "\n\t"
 430:/opt/homebrew/Cellar/avr-gcc@9/9.4.0_1/avr/include/avr/wdt.h **** 				"cli" "\n\t"
 431:/opt/homebrew/Cellar/avr-gcc@9/9.4.0_1/avr/include/avr/wdt.h **** 				"wdr" "\n\t"
 432:/opt/homebrew/Cellar/avr-gcc@9/9.4.0_1/avr/include/avr/wdt.h **** 				"sts %0, %1" "\n\t"
 433:/opt/homebrew/Cellar/avr-gcc@9/9.4.0_1/avr/include/avr/wdt.h **** 				"out __SREG__,__tmp_reg__" "\n\t"
 434:/opt/homebrew/Cellar/avr-gcc@9/9.4.0_1/avr/include/avr/wdt.h **** 				"sts %0, %2" "\n \t"
 435:/opt/homebrew/Cellar/avr-gcc@9/9.4.0_1/avr/include/avr/wdt.h **** 				: /* no outputs */
 436:/opt/homebrew/Cellar/avr-gcc@9/9.4.0_1/avr/include/avr/wdt.h **** 				: "n" (_SFR_MEM_ADDR(_WD_CONTROL_REG)),
 437:/opt/homebrew/Cellar/avr-gcc@9/9.4.0_1/avr/include/avr/wdt.h **** 				"r" ((uint8_t)(_BV(_WD_CHANGE_BIT) | _BV(WDE))),
 438:/opt/homebrew/Cellar/avr-gcc@9/9.4.0_1/avr/include/avr/wdt.h **** 				"r" ((uint8_t) ((value & 0x08 ? _WD_PS3_MASK : 0x00) |
 439:/opt/homebrew/Cellar/avr-gcc@9/9.4.0_1/avr/include/avr/wdt.h **** 						_BV(WDE) | (value & 0x07)) )
 440:/opt/homebrew/Cellar/avr-gcc@9/9.4.0_1/avr/include/avr/wdt.h **** 				: "r0"
 441:/opt/homebrew/Cellar/avr-gcc@9/9.4.0_1/avr/include/avr/wdt.h **** 		);
 442:/opt/homebrew/Cellar/avr-gcc@9/9.4.0_1/avr/include/avr/wdt.h **** 	}
 443:/opt/homebrew/Cellar/avr-gcc@9/9.4.0_1/avr/include/avr/wdt.h **** }
 444:/opt/homebrew/Cellar/avr-gcc@9/9.4.0_1/avr/include/avr/wdt.h **** 
 445:/opt/homebrew/Cellar/avr-gcc@9/9.4.0_1/avr/include/avr/wdt.h **** static __inline__
 446:/opt/homebrew/Cellar/avr-gcc@9/9.4.0_1/avr/include/avr/wdt.h **** __attribute__ ((__always_inline__))
 447:/opt/homebrew/Cellar/avr-gcc@9/9.4.0_1/avr/include/avr/wdt.h **** void wdt_disable (void)
 1331               		.loc 7 447 6 view .LVU458
 1332               	.LBE203:
 448:/opt/homebrew/Cellar/avr-gcc@9/9.4.0_1/avr/include/avr/wdt.h **** {
 449:/opt/homebrew/Cellar/avr-gcc@9/9.4.0_1/avr/include/avr/wdt.h **** 	if (_SFR_IO_REG_P (_WD_CONTROL_REG))
 1333               		.loc 7 449 2 view .LVU459
 1334               	.LBB205:
 1335               	.LBB204:
 450:/opt/homebrew/Cellar/avr-gcc@9/9.4.0_1/avr/include/avr/wdt.h **** 	{
 451:/opt/homebrew/Cellar/avr-gcc@9/9.4.0_1/avr/include/avr/wdt.h ****         uint8_t register temp_reg;
 452:/opt/homebrew/Cellar/avr-gcc@9/9.4.0_1/avr/include/avr/wdt.h **** 		__asm__ __volatile__ (
 453:/opt/homebrew/Cellar/avr-gcc@9/9.4.0_1/avr/include/avr/wdt.h **** 				"in __tmp_reg__,__SREG__"    "\n\t"
 454:/opt/homebrew/Cellar/avr-gcc@9/9.4.0_1/avr/include/avr/wdt.h **** 				"cli"                        "\n\t"
 455:/opt/homebrew/Cellar/avr-gcc@9/9.4.0_1/avr/include/avr/wdt.h **** 				"wdr"                        "\n\t"
 456:/opt/homebrew/Cellar/avr-gcc@9/9.4.0_1/avr/include/avr/wdt.h **** 				"in  %[TEMPREG],%[WDTREG]"   "\n\t"
 457:/opt/homebrew/Cellar/avr-gcc@9/9.4.0_1/avr/include/avr/wdt.h **** 				"ori %[TEMPREG],%[WDCE_WDE]" "\n\t"
 458:/opt/homebrew/Cellar/avr-gcc@9/9.4.0_1/avr/include/avr/wdt.h **** 				"out %[WDTREG],%[TEMPREG]"   "\n\t"
 459:/opt/homebrew/Cellar/avr-gcc@9/9.4.0_1/avr/include/avr/wdt.h **** 				"out %[WDTREG],__zero_reg__" "\n\t"
 460:/opt/homebrew/Cellar/avr-gcc@9/9.4.0_1/avr/include/avr/wdt.h **** 				"out __SREG__,__tmp_reg__"   "\n\t"
 461:/opt/homebrew/Cellar/avr-gcc@9/9.4.0_1/avr/include/avr/wdt.h **** 				: [TEMPREG] "=d" (temp_reg)
 462:/opt/homebrew/Cellar/avr-gcc@9/9.4.0_1/avr/include/avr/wdt.h **** 				: [WDTREG]  "I"  (_SFR_IO_ADDR(_WD_CONTROL_REG)),
 463:/opt/homebrew/Cellar/avr-gcc@9/9.4.0_1/avr/include/avr/wdt.h **** 				[WDCE_WDE]  "n"  ((uint8_t)(_BV(_WD_CHANGE_BIT) | _BV(WDE)))
 464:/opt/homebrew/Cellar/avr-gcc@9/9.4.0_1/avr/include/avr/wdt.h **** 				: "r0"
 465:/opt/homebrew/Cellar/avr-gcc@9/9.4.0_1/avr/include/avr/wdt.h **** 		);
 466:/opt/homebrew/Cellar/avr-gcc@9/9.4.0_1/avr/include/avr/wdt.h **** 	}
 467:/opt/homebrew/Cellar/avr-gcc@9/9.4.0_1/avr/include/avr/wdt.h **** 	else
 468:/opt/homebrew/Cellar/avr-gcc@9/9.4.0_1/avr/include/avr/wdt.h **** 	{
 469:/opt/homebrew/Cellar/avr-gcc@9/9.4.0_1/avr/include/avr/wdt.h ****         uint8_t register temp_reg;
 1336               		.loc 7 469 9 view .LVU460
 470:/opt/homebrew/Cellar/avr-gcc@9/9.4.0_1/avr/include/avr/wdt.h **** 		__asm__ __volatile__ (
 1337               		.loc 7 470 3 view .LVU461
 1338               	/* #APP */
 1339               	 ;  470 "/opt/homebrew/Cellar/avr-gcc@9/9.4.0_1/avr/include/avr/wdt.h" 1
 1340 0006 0FB6      		in __tmp_reg__,__SREG__
 1341 0008 F894      		cli
 1342 000a A895      		wdr
 1343 000c 8091 6000 		lds r24,96
 1344 0010 8861      		ori r24,24
 1345 0012 8093 6000 		sts 96,r24
 1346 0016 1092 6000 		sts 96,__zero_reg__
 1347 001a 0FBE      		out __SREG__,__tmp_reg__
 1348               		
 1349               	 ;  0 "" 2
 1350               	/* #NOAPP */
 1351               	.LBE204:
 1352               	.LBE205:
 355:dualMoco.c    **** 
 356:dualMoco.c    ****   /* PB1 = LED, PB2 = (MIDI/SERIAL), PB3 (NORMAL/HIGH) */
 357:dualMoco.c    ****   DDRB = 0x02;		/* PB1 = OUTPUT, PB2 = INPUT, PB3 = INPUT */
 1353               		.loc 3 357 3 view .LVU462
 1354               		.loc 3 357 8 is_stmt 0 view .LVU463
 1355 001c 82E0      		ldi r24,lo8(2)
 1356 001e 84B9      		out 0x4,r24
 358:dualMoco.c    ****   PORTB = 0x0C;		/* PULL-UP PB2, PB3 */
 1357               		.loc 3 358 3 is_stmt 1 view .LVU464
 1358               		.loc 3 358 9 is_stmt 0 view .LVU465
 1359 0020 8CE0      		ldi r24,lo8(12)
 1360 0022 85B9      		out 0x5,r24
 359:dualMoco.c    **** 
 360:dualMoco.c    ****   if ((PINB & 0x04) == 0) { /* Arduino-serial (JUMPER BTW PB2-GND) */
 1361               		.loc 3 360 3 is_stmt 1 view .LVU466
 1362               		.loc 3 360 6 is_stmt 0 view .LVU467
 1363 0024 1A99      		sbic 0x3,2
 1364 0026 00C0      		rjmp .L91
 361:dualMoco.c    ****     mocoMode = 0;
 1365               		.loc 3 361 5 is_stmt 1 view .LVU468
 1366               		.loc 3 361 14 is_stmt 0 view .LVU469
 1367 0028 1092 0000 		sts mocoMode,__zero_reg__
 362:dualMoco.c    ****     Serial_Init(9600, false);
 1368               		.loc 3 362 5 is_stmt 1 view .LVU470
 1369               	.LBB206:
 1370               	.LBI206:
  99:LUFA-100807/LUFA/Drivers/Peripheral/Serial.h **** 			                               const bool DoubleSpeed)
 1371               		.loc 6 99 23 view .LVU471
 1372               	.LVL84:
 1373               	.LBB207:
 102:LUFA-100807/LUFA/Drivers/Peripheral/Serial.h **** 
 1374               		.loc 6 102 5 view .LVU472
 102:LUFA-100807/LUFA/Drivers/Peripheral/Serial.h **** 
 1375               		.loc 6 102 12 is_stmt 0 view .LVU473
 1376 002c 87E6      		ldi r24,lo8(103)
 1377 002e 90E0      		ldi r25,0
 1378 0030 9093 CD00 		sts 204+1,r25
 1379 0034 8093 CC00 		sts 204,r24
 104:LUFA-100807/LUFA/Drivers/Peripheral/Serial.h **** 				UCSR1A = (DoubleSpeed ? (1 << U2X1) : 0);
 1380               		.loc 6 104 5 is_stmt 1 view .LVU474
 104:LUFA-100807/LUFA/Drivers/Peripheral/Serial.h **** 				UCSR1A = (DoubleSpeed ? (1 << U2X1) : 0);
 1381               		.loc 6 104 12 is_stmt 0 view .LVU475
 1382 0038 86E0      		ldi r24,lo8(6)
 1383 003a 8093 CA00 		sts 202,r24
 105:LUFA-100807/LUFA/Drivers/Peripheral/Serial.h **** 				UCSR1B = ((1 << TXEN1)  | (1 << RXEN1));
 1384               		.loc 6 105 5 is_stmt 1 view .LVU476
 105:LUFA-100807/LUFA/Drivers/Peripheral/Serial.h **** 				UCSR1B = ((1 << TXEN1)  | (1 << RXEN1));
 1385               		.loc 6 105 12 is_stmt 0 view .LVU477
 1386 003e 1092 C800 		sts 200,__zero_reg__
 106:LUFA-100807/LUFA/Drivers/Peripheral/Serial.h **** 				
 1387               		.loc 6 106 5 is_stmt 1 view .LVU478
 106:LUFA-100807/LUFA/Drivers/Peripheral/Serial.h **** 				
 1388               		.loc 6 106 12 is_stmt 0 view .LVU479
 1389 0042 88E1      		ldi r24,lo8(24)
 1390 0044 8093 C900 		sts 201,r24
 108:LUFA-100807/LUFA/Drivers/Peripheral/Serial.h **** 				PORTD |= (1 << 2);
 1391               		.loc 6 108 5 is_stmt 1 view .LVU480
 108:LUFA-100807/LUFA/Drivers/Peripheral/Serial.h **** 				PORTD |= (1 << 2);
 1392               		.loc 6 108 11 is_stmt 0 view .LVU481
 1393 0048 539A      		sbi 0xa,3
 109:LUFA-100807/LUFA/Drivers/Peripheral/Serial.h **** 			}
 1394               		.loc 6 109 5 is_stmt 1 view .LVU482
 109:LUFA-100807/LUFA/Drivers/Peripheral/Serial.h **** 			}
 1395               		.loc 6 109 11 is_stmt 0 view .LVU483
 1396 004a 5A9A      		sbi 0xb,2
 1397               	.LVL85:
 1398               	.L92:
 109:LUFA-100807/LUFA/Drivers/Peripheral/Serial.h **** 			}
 1399               		.loc 6 109 11 view .LVU484
 1400               	.LBE207:
 1401               	.LBE206:
 363:dualMoco.c    ****   } else {		/* Moco mode */
 364:dualMoco.c    ****     mocoMode = 1;
 365:dualMoco.c    ****     if ((PINB & 0x08) == 0) { /* high speed mode */
 366:dualMoco.c    ****       highSpeed = 1;
 367:dualMoco.c    ****       // UBRR1L = 1;		/* 500K at 16MHz clock */
 368:dualMoco.c    ****       UBRR1L = 0;		/* 1M at 16MHz clock */
 369:dualMoco.c    ****     } else {
 370:dualMoco.c    ****       UBRR1L = 31;	/* 31250Hz at 16MHz clock */
 371:dualMoco.c    ****     }
 372:dualMoco.c    ****     UCSR1B = (1<<RXEN1) | (1<<TXEN1);
 373:dualMoco.c    ****     PORTB = 0x0E;	       /* PORTB1 = HIGH */
 374:dualMoco.c    ****   }
 375:dualMoco.c    **** 
 376:dualMoco.c    ****   /* Start the flush timer so that overflows occur rapidly to push received bytes to the USB interf
 377:dualMoco.c    ****   TCCR0B = (1 << CS02);
 1402               		.loc 3 377 3 is_stmt 1 view .LVU485
 1403               		.loc 3 377 10 is_stmt 0 view .LVU486
 1404 004c 84E0      		ldi r24,lo8(4)
 1405 004e 85BD      		out 0x25,r24
 378:dualMoco.c    ****   
 379:dualMoco.c    ****   /* Hardware Initialization */
 380:dualMoco.c    ****   USB_Init();
 1406               		.loc 3 380 3 is_stmt 1 view .LVU487
 1407 0050 0E94 0000 		call USB_Init
 1408               	.LVL86:
 381:dualMoco.c    ****   LEDs_Init();
 1409               		.loc 3 381 3 view .LVU488
 1410               	.LBB208:
 1411               	.LBI208:
  67:./Board/LEDs.h **** 			{
 1412               		.loc 4 67 23 view .LVU489
 1413               	.LBB209:
  69:./Board/LEDs.h **** 				PORTD |= LEDS_ALL_LEDS;
 1414               		.loc 4 69 5 view .LVU490
  69:./Board/LEDs.h **** 				PORTD |= LEDS_ALL_LEDS;
 1415               		.loc 4 69 11 is_stmt 0 view .LVU491
 1416 0054 8AB1      		in r24,0xa
 1417 0056 8063      		ori r24,lo8(48)
 1418 0058 8AB9      		out 0xa,r24
  70:./Board/LEDs.h **** 			}
 1419               		.loc 4 70 5 is_stmt 1 view .LVU492
  70:./Board/LEDs.h **** 			}
 1420               		.loc 4 70 11 is_stmt 0 view .LVU493
 1421 005a 8BB1      		in r24,0xb
 1422 005c 8063      		ori r24,lo8(48)
 1423 005e 8BB9      		out 0xb,r24
 1424               	.LBE209:
 1425               	.LBE208:
 382:dualMoco.c    **** 
 383:dualMoco.c    ****   if (mocoMode == 0) {
 1426               		.loc 3 383 3 is_stmt 1 view .LVU494
 1427               		.loc 3 383 6 is_stmt 0 view .LVU495
 1428 0060 8091 0000 		lds r24,mocoMode
 1429 0064 8111      		cpse r24,__zero_reg__
 1430 0066 00C0      		rjmp .L90
 384:dualMoco.c    ****     /* Pull target /RESET line high */
 385:dualMoco.c    ****     AVR_RESET_LINE_PORT |= AVR_RESET_LINE_MASK;
 1431               		.loc 3 385 5 is_stmt 1 view .LVU496
 1432               		.loc 3 385 25 is_stmt 0 view .LVU497
 1433 0068 5F9A      		sbi 0xb,7
 386:dualMoco.c    ****     AVR_RESET_LINE_DDR  |= AVR_RESET_LINE_MASK;
 1434               		.loc 3 386 5 is_stmt 1 view .LVU498
 1435               		.loc 3 386 25 is_stmt 0 view .LVU499
 1436 006a 579A      		sbi 0xa,7
 1437               	.L90:
 1438               	/* epilogue start */
 387:dualMoco.c    ****   }
 388:dualMoco.c    **** }
 1439               		.loc 3 388 1 view .LVU500
 1440 006c 0895      		ret
 1441               	.L91:
 364:dualMoco.c    ****     if ((PINB & 0x08) == 0) { /* high speed mode */
 1442               		.loc 3 364 5 is_stmt 1 view .LVU501
 364:dualMoco.c    ****     if ((PINB & 0x08) == 0) { /* high speed mode */
 1443               		.loc 3 364 14 is_stmt 0 view .LVU502
 1444 006e 81E0      		ldi r24,lo8(1)
 1445 0070 8093 0000 		sts mocoMode,r24
 365:dualMoco.c    ****       highSpeed = 1;
 1446               		.loc 3 365 5 is_stmt 1 view .LVU503
 365:dualMoco.c    ****       highSpeed = 1;
 1447               		.loc 3 365 8 is_stmt 0 view .LVU504
 1448 0074 1B99      		sbic 0x3,3
 1449 0076 00C0      		rjmp .L93
 366:dualMoco.c    ****       // UBRR1L = 1;		/* 500K at 16MHz clock */
 1450               		.loc 3 366 7 is_stmt 1 view .LVU505
 366:dualMoco.c    ****       // UBRR1L = 1;		/* 500K at 16MHz clock */
 1451               		.loc 3 366 17 is_stmt 0 view .LVU506
 1452 0078 8093 0000 		sts highSpeed,r24
 368:dualMoco.c    ****     } else {
 1453               		.loc 3 368 7 is_stmt 1 view .LVU507
 368:dualMoco.c    ****     } else {
 1454               		.loc 3 368 14 is_stmt 0 view .LVU508
 1455 007c 1092 CC00 		sts 204,__zero_reg__
 1456               	.L94:
 372:dualMoco.c    ****     PORTB = 0x0E;	       /* PORTB1 = HIGH */
 1457               		.loc 3 372 5 is_stmt 1 view .LVU509
 372:dualMoco.c    ****     PORTB = 0x0E;	       /* PORTB1 = HIGH */
 1458               		.loc 3 372 12 is_stmt 0 view .LVU510
 1459 0080 88E1      		ldi r24,lo8(24)
 1460 0082 8093 C900 		sts 201,r24
 373:dualMoco.c    ****   }
 1461               		.loc 3 373 5 is_stmt 1 view .LVU511
 373:dualMoco.c    ****   }
 1462               		.loc 3 373 11 is_stmt 0 view .LVU512
 1463 0086 8EE0      		ldi r24,lo8(14)
 1464 0088 85B9      		out 0x5,r24
 1465 008a 00C0      		rjmp .L92
 1466               	.L93:
 370:dualMoco.c    ****     }
 1467               		.loc 3 370 7 is_stmt 1 view .LVU513
 370:dualMoco.c    ****     }
 1468               		.loc 3 370 14 is_stmt 0 view .LVU514
 1469 008c 8FE1      		ldi r24,lo8(31)
 1470 008e 8093 CC00 		sts 204,r24
 1471 0092 00C0      		rjmp .L94
 1472               		.cfi_endproc
 1473               	.LFE96:
 1475               		.section	.text.startup.main,"ax",@progbits
 1476               	.global	main
 1478               	main:
 1479               	.LFB93:
 221:dualMoco.c    ****   SetupHardware();
 1480               		.loc 3 221 16 is_stmt 1 view -0
 1481               		.cfi_startproc
 1482               	/* prologue: function */
 1483               	/* frame size = 0 */
 1484               	/* stack size = 0 */
 1485               	.L__stack_usage = 0
 222:dualMoco.c    **** 
 1486               		.loc 3 222 3 view .LVU516
 1487 0000 0E94 0000 		call SetupHardware
 1488               	.LVL87:
 224:dualMoco.c    ****     processMIDI();
 1489               		.loc 3 224 3 view .LVU517
 224:dualMoco.c    ****     processMIDI();
 1490               		.loc 3 224 6 is_stmt 0 view .LVU518
 1491 0004 8091 0000 		lds r24,mocoMode
 1492 0008 8130      		cpi r24,lo8(1)
 1493 000a 01F4      		brne .L97
 225:dualMoco.c    ****   } else {
 1494               		.loc 3 225 5 is_stmt 1 view .LVU519
 1495 000c 0E94 0000 		call processMIDI
 1496               	.LVL88:
 1497               	.L97:
 227:dualMoco.c    ****   }
 1498               		.loc 3 227 5 view .LVU520
 1499 0010 0E94 0000 		call processSerial
 1500               	.LVL89:
 1501               		.cfi_endproc
 1502               	.LFE93:
 1504               		.section	.text.EVENT_USB_Device_Connect,"ax",@progbits
 1505               	.global	EVENT_USB_Device_Connect
 1507               	EVENT_USB_Device_Connect:
 1508               	.LFB97:
 389:dualMoco.c    **** 
 390:dualMoco.c    **** /** Event handler for the library USB Connection event. */
 391:dualMoco.c    **** void EVENT_USB_Device_Connect(void) {
 1509               		.loc 3 391 37 view -0
 1510               		.cfi_startproc
 1511               	/* prologue: function */
 1512               	/* frame size = 0 */
 1513               	/* stack size = 0 */
 1514               	.L__stack_usage = 0
 392:dualMoco.c    **** }
 1515               		.loc 3 392 1 view .LVU522
 1516               	/* epilogue start */
 1517 0000 0895      		ret
 1518               		.cfi_endproc
 1519               	.LFE97:
 1521               		.section	.text.EVENT_USB_Device_Disconnect,"ax",@progbits
 1522               	.global	EVENT_USB_Device_Disconnect
 1524               	EVENT_USB_Device_Disconnect:
 1525               	.LFB108:
 1526               		.cfi_startproc
 1527               	/* prologue: function */
 1528               	/* frame size = 0 */
 1529               	/* stack size = 0 */
 1530               	.L__stack_usage = 0
 1531               	/* epilogue start */
 1532 0000 0895      		ret
 1533               		.cfi_endproc
 1534               	.LFE108:
 1536               		.section	.text.EVENT_USB_Device_ConfigurationChanged,"ax",@progbits
 1537               	.global	EVENT_USB_Device_ConfigurationChanged
 1539               	EVENT_USB_Device_ConfigurationChanged:
 1540               	.LFB99:
 393:dualMoco.c    **** 
 394:dualMoco.c    **** /** Event handler for the library USB Disconnection event. */
 395:dualMoco.c    **** void EVENT_USB_Device_Disconnect(void) {
 396:dualMoco.c    **** }
 397:dualMoco.c    **** 
 398:dualMoco.c    **** /** Event handler for the library USB Configuration Changed event. */
 399:dualMoco.c    **** void EVENT_USB_Device_ConfigurationChanged(void) {
 1541               		.loc 3 399 50 view -0
 1542               		.cfi_startproc
 1543               	/* prologue: function */
 1544               	/* frame size = 0 */
 1545               	/* stack size = 0 */
 1546               	.L__stack_usage = 0
 400:dualMoco.c    ****   if (mocoMode == 1) {
 1547               		.loc 3 400 3 view .LVU524
 1548               		.loc 3 400 6 is_stmt 0 view .LVU525
 1549 0000 8091 0000 		lds r24,mocoMode
 1550 0004 8130      		cpi r24,lo8(1)
 1551 0006 01F4      		brne .L101
 1552               	.LBB210:
 401:dualMoco.c    ****     bool ConfigSuccess = true;
 1553               		.loc 3 401 5 is_stmt 1 view .LVU526
 1554               	.LVL90:
 402:dualMoco.c    ****     ConfigSuccess &= MIDI_Device_ConfigureEndpoints(&Keyboard_MIDI_Interface);
 1555               		.loc 3 402 5 view .LVU527
 1556               		.loc 3 402 22 is_stmt 0 view .LVU528
 1557 0008 80E0      		ldi r24,lo8(Keyboard_MIDI_Interface)
 1558 000a 90E0      		ldi r25,hi8(Keyboard_MIDI_Interface)
 1559 000c 0C94 0000 		jmp MIDI_Device_ConfigureEndpoints
 1560               	.LVL91:
 1561               	.L101:
 1562               		.loc 3 402 22 view .LVU529
 1563               	.LBE210:
 403:dualMoco.c    ****   } else {
 404:dualMoco.c    ****     CDC_Device_ConfigureEndpoints(&VirtualSerial_CDC_Interface);
 1564               		.loc 3 404 5 is_stmt 1 view .LVU530
 1565 0010 80E0      		ldi r24,lo8(VirtualSerial_CDC_Interface)
 1566 0012 90E0      		ldi r25,hi8(VirtualSerial_CDC_Interface)
 1567 0014 0C94 0000 		jmp CDC_Device_ConfigureEndpoints
 1568               	.LVL92:
 1569               		.cfi_endproc
 1570               	.LFE99:
 1572               		.section	.text.EVENT_USB_Device_ControlRequest,"ax",@progbits
 1573               	.global	EVENT_USB_Device_ControlRequest
 1575               	EVENT_USB_Device_ControlRequest:
 1576               	.LFB110:
 1577               		.cfi_startproc
 1578               	/* prologue: function */
 1579               	/* frame size = 0 */
 1580               	/* stack size = 0 */
 1581               	.L__stack_usage = 0
 1582               	/* epilogue start */
 1583 0000 0895      		ret
 1584               		.cfi_endproc
 1585               	.LFE110:
 1587               		.section	.text.EVENT_USB_Device_UnhandledControlRequest,"ax",@progbits
 1588               	.global	EVENT_USB_Device_UnhandledControlRequest
 1590               	EVENT_USB_Device_UnhandledControlRequest:
 1591               	.LFB101:
 405:dualMoco.c    ****   }
 406:dualMoco.c    **** }
 407:dualMoco.c    **** 
 408:dualMoco.c    **** /** Event handler for the library USB Control Request reception event. */
 409:dualMoco.c    **** void EVENT_USB_Device_ControlRequest(void) {
 410:dualMoco.c    ****   if (mocoMode == 1) {
 411:dualMoco.c    ****     MIDI_Device_ProcessControlRequest(&Keyboard_MIDI_Interface);
 412:dualMoco.c    ****   }
 413:dualMoco.c    **** }
 414:dualMoco.c    **** 
 415:dualMoco.c    **** /** Event handler for the library USB Unhandled Control Request event. */
 416:dualMoco.c    **** void EVENT_USB_Device_UnhandledControlRequest(void) {
 1592               		.loc 3 416 53 view -0
 1593               		.cfi_startproc
 1594               	/* prologue: function */
 1595               	/* frame size = 0 */
 1596               	/* stack size = 0 */
 1597               	.L__stack_usage = 0
 417:dualMoco.c    ****   if (mocoMode == 0) {
 1598               		.loc 3 417 3 view .LVU532
 1599               		.loc 3 417 6 is_stmt 0 view .LVU533
 1600 0000 8091 0000 		lds r24,mocoMode
 1601 0004 8111      		cpse r24,__zero_reg__
 1602 0006 00C0      		rjmp .L103
 418:dualMoco.c    ****     CDC_Device_ProcessControlRequest(&VirtualSerial_CDC_Interface);
 1603               		.loc 3 418 5 is_stmt 1 view .LVU534
 1604 0008 80E0      		ldi r24,lo8(VirtualSerial_CDC_Interface)
 1605 000a 90E0      		ldi r25,hi8(VirtualSerial_CDC_Interface)
 1606 000c 0C94 0000 		jmp CDC_Device_ProcessControlRequest
 1607               	.LVL93:
 1608               	.L103:
 1609               	/* epilogue start */
 419:dualMoco.c    ****   } else {
 420:dualMoco.c    ****     MIDI_Device_ProcessControlRequest(&Keyboard_MIDI_Interface);
 421:dualMoco.c    ****   }
 422:dualMoco.c    **** }
 1610               		.loc 3 422 1 is_stmt 0 view .LVU535
 1611 0010 0895      		ret
 1612               		.cfi_endproc
 1613               	.LFE101:
 1615               		.section	.text.EVENT_CDC_Device_LineEncodingChanged,"ax",@progbits
 1616               	.global	EVENT_CDC_Device_LineEncodingChanged
 1618               	EVENT_CDC_Device_LineEncodingChanged:
 1619               	.LVL94:
 1620               	.LFB102:
 423:dualMoco.c    **** 
 424:dualMoco.c    **** /** Event handler for the CDC Class driver Line Encoding Changed event.
 425:dualMoco.c    ****  *
 426:dualMoco.c    ****  *  \param[in] CDCInterfaceInfo  Pointer to the CDC class interface configuration structure being r
 427:dualMoco.c    ****  */
 428:dualMoco.c    **** void EVENT_CDC_Device_LineEncodingChanged(USB_ClassInfo_CDC_Device_t* const CDCInterfaceInfo) {
 1621               		.loc 3 428 95 is_stmt 1 view -0
 1622               		.cfi_startproc
 1623               		.loc 3 428 95 is_stmt 0 view .LVU537
 1624 0000 8F92      		push r8
 1625               	.LCFI6:
 1626               		.cfi_def_cfa_offset 3
 1627               		.cfi_offset 8, -2
 1628 0002 9F92      		push r9
 1629               	.LCFI7:
 1630               		.cfi_def_cfa_offset 4
 1631               		.cfi_offset 9, -3
 1632 0004 AF92      		push r10
 1633               	.LCFI8:
 1634               		.cfi_def_cfa_offset 5
 1635               		.cfi_offset 10, -4
 1636 0006 BF92      		push r11
 1637               	.LCFI9:
 1638               		.cfi_def_cfa_offset 6
 1639               		.cfi_offset 11, -5
 1640 0008 FF92      		push r15
 1641               	.LCFI10:
 1642               		.cfi_def_cfa_offset 7
 1643               		.cfi_offset 15, -6
 1644 000a 0F93      		push r16
 1645               	.LCFI11:
 1646               		.cfi_def_cfa_offset 8
 1647               		.cfi_offset 16, -7
 1648 000c 1F93      		push r17
 1649               	.LCFI12:
 1650               		.cfi_def_cfa_offset 9
 1651               		.cfi_offset 17, -8
 1652 000e CF93      		push r28
 1653               	.LCFI13:
 1654               		.cfi_def_cfa_offset 10
 1655               		.cfi_offset 28, -9
 1656 0010 DF93      		push r29
 1657               	.LCFI14:
 1658               		.cfi_def_cfa_offset 11
 1659               		.cfi_offset 29, -10
 1660 0012 00D0      		rcall .
 1661 0014 00D0      		rcall .
 1662 0016 0F92      		push __tmp_reg__
 1663               	.LCFI15:
 1664               		.cfi_def_cfa_offset 16
 1665 0018 CDB7      		in r28,__SP_L__
 1666 001a DEB7      		in r29,__SP_H__
 1667               	.LCFI16:
 1668               		.cfi_def_cfa_register 28
 1669               	/* prologue: function */
 1670               	/* frame size = 5 */
 1671               	/* stack size = 14 */
 1672               	.L__stack_usage = 14
 1673 001c 8C01      		movw r16,r24
 429:dualMoco.c    ****   uint8_t ConfigMask = 0;
 1674               		.loc 3 429 3 is_stmt 1 view .LVU538
 1675               	.LVL95:
 430:dualMoco.c    **** 
 431:dualMoco.c    ****   switch (CDCInterfaceInfo->State.LineEncoding.ParityType)
 1676               		.loc 3 431 3 view .LVU539
 1677               		.loc 3 431 47 is_stmt 0 view .LVU540
 1678 001e DC01      		movw r26,r24
 1679 0020 5496      		adiw r26,20
 1680 0022 8C91      		ld r24,X
 1681               	.LVL96:
 1682               		.loc 3 431 3 view .LVU541
 1683 0024 90E3      		ldi r25,lo8(48)
 1684 0026 F92E      		mov r15,r25
 1685 0028 8130      		cpi r24,lo8(1)
 1686 002a 01F0      		breq .L106
 432:dualMoco.c    ****     {
 433:dualMoco.c    ****     case CDC_PARITY_Odd:
 434:dualMoco.c    ****       ConfigMask = ((1 << UPM11) | (1 << UPM10));		
 435:dualMoco.c    ****       break;
 436:dualMoco.c    ****     case CDC_PARITY_Even:
 437:dualMoco.c    ****       ConfigMask = (1 << UPM11);		
 1687               		.loc 3 437 18 view .LVU542
 1688 002c 20E2      		ldi r18,lo8(32)
 1689 002e F22E      		mov r15,r18
 431:dualMoco.c    ****     {
 1690               		.loc 3 431 3 view .LVU543
 1691 0030 8230      		cpi r24,lo8(2)
 1692 0032 01F0      		breq .L106
 429:dualMoco.c    **** 
 1693               		.loc 3 429 11 view .LVU544
 1694 0034 F12C      		mov r15,__zero_reg__
 1695               	.L106:
 1696               	.LVL97:
 438:dualMoco.c    ****       break;
 439:dualMoco.c    ****     }
 440:dualMoco.c    ****   
 441:dualMoco.c    ****   if (CDCInterfaceInfo->State.LineEncoding.CharFormat == CDC_LINEENCODING_TwoStopBits)
 1697               		.loc 3 441 3 is_stmt 1 view .LVU545
 1698               		.loc 3 441 6 is_stmt 0 view .LVU546
 1699 0036 F801      		movw r30,r16
 1700 0038 8389      		ldd r24,Z+19
 1701 003a 8230      		cpi r24,lo8(2)
 1702 003c 01F4      		brne .L107
 442:dualMoco.c    ****     ConfigMask |= (1 << USBS1);
 1703               		.loc 3 442 5 is_stmt 1 view .LVU547
 1704               		.loc 3 442 16 is_stmt 0 view .LVU548
 1705 003e 6894      		set
 1706 0040 F3F8      		bld r15,3
 1707               	.LVL98:
 1708               	.L107:
 443:dualMoco.c    ****   
 444:dualMoco.c    ****   switch (CDCInterfaceInfo->State.LineEncoding.DataBits)
 1709               		.loc 3 444 3 is_stmt 1 view .LVU549
 1710               		.loc 3 444 47 is_stmt 0 view .LVU550
 1711 0042 D801      		movw r26,r16
 1712 0044 5596      		adiw r26,21
 1713 0046 8C91      		ld r24,X
 1714               		.loc 3 444 3 view .LVU551
 1715 0048 8730      		cpi r24,lo8(7)
 1716 004a 01F4      		brne .+2
 1717 004c 00C0      		rjmp .L108
 1718               		.loc 3 444 3 view .LVU552
 1719 004e 8830      		cpi r24,lo8(8)
 1720 0050 01F4      		brne .+2
 1721 0052 00C0      		rjmp .L109
 1722 0054 8630      		cpi r24,lo8(6)
 1723 0056 01F4      		brne .L110
 445:dualMoco.c    ****     {
 446:dualMoco.c    ****     case 6:
 447:dualMoco.c    ****       ConfigMask |= (1 << UCSZ10);
 1724               		.loc 3 447 7 is_stmt 1 view .LVU553
 1725               		.loc 3 447 18 is_stmt 0 view .LVU554
 1726 0058 6894      		set
 1727 005a F1F8      		bld r15,1
 1728               	.LVL99:
 448:dualMoco.c    ****       break;
 1729               		.loc 3 448 7 is_stmt 1 view .LVU555
 1730               	.L110:
 449:dualMoco.c    ****     case 7:
 450:dualMoco.c    ****       ConfigMask |= (1 << UCSZ11);
 451:dualMoco.c    ****       break;
 452:dualMoco.c    ****     case 8:
 453:dualMoco.c    ****       ConfigMask |= ((1 << UCSZ11) | (1 << UCSZ10));
 454:dualMoco.c    ****       break;
 455:dualMoco.c    ****     }
 456:dualMoco.c    **** 
 457:dualMoco.c    ****   /* Must turn off USART before reconfiguring it, otherwise incorrect operation may occur */
 458:dualMoco.c    ****   UCSR1B = 0;
 1731               		.loc 3 458 3 view .LVU556
 1732               		.loc 3 458 10 is_stmt 0 view .LVU557
 1733 005c 1092 C900 		sts 201,__zero_reg__
 459:dualMoco.c    ****   UCSR1A = 0;
 1734               		.loc 3 459 3 is_stmt 1 view .LVU558
 1735               		.loc 3 459 10 is_stmt 0 view .LVU559
 1736 0060 1092 C800 		sts 200,__zero_reg__
 460:dualMoco.c    ****   UCSR1C = 0;
 1737               		.loc 3 460 3 is_stmt 1 view .LVU560
 1738               		.loc 3 460 10 is_stmt 0 view .LVU561
 1739 0064 1092 CA00 		sts 202,__zero_reg__
 461:dualMoco.c    **** 
 462:dualMoco.c    ****   /* Special case 57600 baud for compatibility with the ATmega328 bootloader. */	
 463:dualMoco.c    ****   UBRR1  = (CDCInterfaceInfo->State.LineEncoding.BaudRateBPS == 57600)
 1740               		.loc 3 463 3 is_stmt 1 view .LVU562
 1741               		.loc 3 463 49 is_stmt 0 view .LVU563
 1742 0068 F801      		movw r30,r16
 1743 006a 2785      		ldd r18,Z+15
 1744 006c 3089      		ldd r19,Z+16
 1745 006e 4189      		ldd r20,Z+17
 1746 0070 5289      		ldd r21,Z+18
 1747               		.loc 3 463 10 view .LVU564
 1748 0072 2115      		cp r18,__zero_reg__
 1749 0074 F1EE      		ldi r31,-31
 1750 0076 3F07      		cpc r19,r31
 1751 0078 4105      		cpc r20,__zero_reg__
 1752 007a 5105      		cpc r21,__zero_reg__
 1753 007c 01F4      		brne .+2
 1754 007e 00C0      		rjmp .L115
 464:dualMoco.c    ****     ? SERIAL_UBBRVAL(CDCInterfaceInfo->State.LineEncoding.BaudRateBPS)
 465:dualMoco.c    ****     : SERIAL_2X_UBBRVAL(CDCInterfaceInfo->State.LineEncoding.BaudRateBPS);	
 1755               		.loc 3 465 7 discriminator 2 view .LVU565
 1756 0080 4901      		movw r8,r18
 1757 0082 5A01      		movw r10,r20
 1758 0084 B694      		lsr r11
 1759 0086 A794      		ror r10
 1760 0088 9794      		ror r9
 1761 008a 8794      		ror r8
 1762 008c D501      		movw r26,r10
 1763 008e C401      		movw r24,r8
 1764 0090 8058      		subi r24,-128
 1765 0092 9B47      		sbci r25,123
 1766 0094 A14E      		sbci r26,-31
 1767 0096 BF4F      		sbci r27,-1
 1768 0098 8983      		std Y+1,r24
 1769 009a 9A83      		std Y+2,r25
 1770 009c AB83      		std Y+3,r26
 1771 009e BC83      		std Y+4,r27
 1772 00a0 BC01      		movw r22,r24
 1773 00a2 CD01      		movw r24,r26
 1774 00a4 0E94 0000 		call __udivmodsi4
 463:dualMoco.c    ****     ? SERIAL_UBBRVAL(CDCInterfaceInfo->State.LineEncoding.BaudRateBPS)
 1775               		.loc 3 463 10 discriminator 2 view .LVU566
 1776 00a8 2150      		subi r18,1
 1777 00aa 3109      		sbc r19,__zero_reg__
 1778               	.L111:
 463:dualMoco.c    ****     ? SERIAL_UBBRVAL(CDCInterfaceInfo->State.LineEncoding.BaudRateBPS)
 1779               		.loc 3 463 10 discriminator 4 view .LVU567
 1780 00ac 3093 CD00 		sts 204+1,r19
 1781 00b0 2093 CC00 		sts 204,r18
 466:dualMoco.c    **** 
 467:dualMoco.c    ****   UCSR1C = ConfigMask;
 1782               		.loc 3 467 3 is_stmt 1 discriminator 4 view .LVU568
 1783               		.loc 3 467 10 is_stmt 0 discriminator 4 view .LVU569
 1784 00b4 F092 CA00 		sts 202,r15
 468:dualMoco.c    ****   UCSR1A = (CDCInterfaceInfo->State.LineEncoding.BaudRateBPS == 57600) ? 0 : (1 << U2X1);
 1785               		.loc 3 468 3 is_stmt 1 discriminator 4 view .LVU570
 1786               		.loc 3 468 10 is_stmt 0 discriminator 4 view .LVU571
 1787 00b8 F801      		movw r30,r16
 1788 00ba 8785      		ldd r24,Z+15
 1789 00bc 9089      		ldd r25,Z+16
 1790 00be A189      		ldd r26,Z+17
 1791 00c0 B289      		ldd r27,Z+18
 1792 00c2 8115      		cp r24,__zero_reg__
 1793 00c4 914E      		sbci r25,-31
 1794 00c6 A105      		cpc r26,__zero_reg__
 1795 00c8 B105      		cpc r27,__zero_reg__
 1796 00ca 01F0      		breq .L116
 1797               		.loc 3 468 10 view .LVU572
 1798 00cc 82E0      		ldi r24,lo8(2)
 1799               	.L112:
 1800               		.loc 3 468 10 discriminator 4 view .LVU573
 1801 00ce 8093 C800 		sts 200,r24
 469:dualMoco.c    ****   UCSR1B = ((1 << RXCIE1) | (1 << TXEN1) | (1 << RXEN1));
 1802               		.loc 3 469 3 is_stmt 1 discriminator 4 view .LVU574
 1803               		.loc 3 469 10 is_stmt 0 discriminator 4 view .LVU575
 1804 00d2 88E9      		ldi r24,lo8(-104)
 1805 00d4 8093 C900 		sts 201,r24
 1806               	/* epilogue start */
 470:dualMoco.c    **** }
 1807               		.loc 3 470 1 discriminator 4 view .LVU576
 1808 00d8 0F90      		pop __tmp_reg__
 1809 00da 0F90      		pop __tmp_reg__
 1810 00dc 0F90      		pop __tmp_reg__
 1811 00de 0F90      		pop __tmp_reg__
 1812 00e0 0F90      		pop __tmp_reg__
 1813 00e2 DF91      		pop r29
 1814 00e4 CF91      		pop r28
 1815 00e6 1F91      		pop r17
 1816 00e8 0F91      		pop r16
 1817               	.LVL100:
 1818               		.loc 3 470 1 discriminator 4 view .LVU577
 1819 00ea FF90      		pop r15
 1820               	.LVL101:
 1821               		.loc 3 470 1 discriminator 4 view .LVU578
 1822 00ec BF90      		pop r11
 1823 00ee AF90      		pop r10
 1824 00f0 9F90      		pop r9
 1825 00f2 8F90      		pop r8
 1826 00f4 0895      		ret
 1827               	.LVL102:
 1828               	.L108:
 450:dualMoco.c    ****       break;
 1829               		.loc 3 450 7 is_stmt 1 view .LVU579
 450:dualMoco.c    ****       break;
 1830               		.loc 3 450 18 is_stmt 0 view .LVU580
 1831 00f6 6894      		set
 1832 00f8 F2F8      		bld r15,2
 1833               	.LVL103:
 451:dualMoco.c    ****     case 8:
 1834               		.loc 3 451 7 is_stmt 1 view .LVU581
 1835 00fa 00C0      		rjmp .L110
 1836               	.L109:
 453:dualMoco.c    ****       break;
 1837               		.loc 3 453 7 view .LVU582
 453:dualMoco.c    ****       break;
 1838               		.loc 3 453 18 is_stmt 0 view .LVU583
 1839 00fc BF2D      		mov r27,r15
 1840 00fe B660      		ori r27,lo8(6)
 1841 0100 FB2E      		mov r15,r27
 1842               	.LVL104:
 454:dualMoco.c    ****     }
 1843               		.loc 3 454 7 is_stmt 1 view .LVU584
 1844 0102 00C0      		rjmp .L110
 1845               	.L115:
 463:dualMoco.c    ****     ? SERIAL_UBBRVAL(CDCInterfaceInfo->State.LineEncoding.BaudRateBPS)
 1846               		.loc 3 463 10 is_stmt 0 view .LVU585
 1847 0104 20E1      		ldi r18,lo8(16)
 1848 0106 30E0      		ldi r19,0
 1849 0108 00C0      		rjmp .L111
 1850               	.L116:
 468:dualMoco.c    ****   UCSR1B = ((1 << RXCIE1) | (1 << TXEN1) | (1 << RXEN1));
 1851               		.loc 3 468 10 view .LVU586
 1852 010a 80E0      		ldi r24,0
 1853 010c 00C0      		rjmp .L112
 1854               		.cfi_endproc
 1855               	.LFE102:
 1857               		.section	.text.__vector_23,"ax",@progbits
 1858               	.global	__vector_23
 1860               	__vector_23:
 1861               	.LFB103:
 471:dualMoco.c    **** 
 472:dualMoco.c    **** /** ISR to manage the reception of data from the serial port, placing received bytes into a circula
 473:dualMoco.c    ****  *  for later transmission to the host.
 474:dualMoco.c    ****  */
 475:dualMoco.c    **** ISR(USART1_RX_vect, ISR_BLOCK) {
 1862               		.loc 3 475 32 is_stmt 1 view -0
 1863               		.cfi_startproc
 1864 0000 1F92 1FB6 		__gcc_isr 1
 1864      1F92 1124 
 1864      2F93 
 1865 000a 8F93      		push r24
 1866               	.LCFI17:
 1867               		.cfi_def_cfa_offset 3
 1868               		.cfi_offset 24, -2
 1869 000c 9F93      		push r25
 1870               	.LCFI18:
 1871               		.cfi_def_cfa_offset 4
 1872               		.cfi_offset 25, -3
 1873 000e EF93      		push r30
 1874               	.LCFI19:
 1875               		.cfi_def_cfa_offset 5
 1876               		.cfi_offset 30, -4
 1877 0010 FF93      		push r31
 1878               	.LCFI20:
 1879               		.cfi_def_cfa_offset 6
 1880               		.cfi_offset 31, -5
 1881               	/* prologue: Signal */
 1882               	/* frame size = 0 */
 1883               	/* stack size = 4...8 */
 1884               	.L__stack_usage = 4 + __gcc_isr.n_pushed
 476:dualMoco.c    ****   if (mocoMode == 0) {
 1885               		.loc 3 476 3 view .LVU588
 1886               		.loc 3 476 6 is_stmt 0 view .LVU589
 1887 0012 8091 0000 		lds r24,mocoMode
 1888 0016 8111      		cpse r24,__zero_reg__
 1889 0018 00C0      		rjmp .L117
 1890               	.LBB219:
 477:dualMoco.c    ****     uint8_t ReceivedByte = UDR1;
 1891               		.loc 3 477 5 is_stmt 1 view .LVU590
 1892               		.loc 3 477 13 is_stmt 0 view .LVU591
 1893 001a 8091 CE00 		lds r24,206
 1894               	.LVL105:
 478:dualMoco.c    **** 
 479:dualMoco.c    ****     if (USB_DeviceState == DEVICE_STATE_Configured)
 1895               		.loc 3 479 5 is_stmt 1 view .LVU592
 1896               		.loc 3 479 9 is_stmt 0 view .LVU593
 1897 001e 9EB3      		in r25,0x1e
 1898               		.loc 3 479 8 view .LVU594
 1899 0020 9430      		cpi r25,lo8(4)
 1900 0022 01F4      		brne .L117
 480:dualMoco.c    ****       RingBuffer_Insert(&USARTtoUSB_Buffer, ReceivedByte);
 1901               		.loc 3 480 7 is_stmt 1 view .LVU595
 1902               	.LVL106:
 1903               	.LBB220:
 1904               	.LBI220:
 158:Lib/LightweightRingBuff.h **** 		                                     const RingBuff_Data_t Data)
 1905               		.loc 1 158 22 view .LVU596
 1906               	.LBB221:
 161:Lib/LightweightRingBuff.h **** 			
 1907               		.loc 1 161 4 view .LVU597
 161:Lib/LightweightRingBuff.h **** 			
 1908               		.loc 1 161 11 is_stmt 0 view .LVU598
 1909 0024 E091 0000 		lds r30,USARTtoUSB_Buffer+128
 1910 0028 F091 0000 		lds r31,USARTtoUSB_Buffer+128+1
 161:Lib/LightweightRingBuff.h **** 			
 1911               		.loc 1 161 16 view .LVU599
 1912 002c 8083      		st Z,r24
 163:Lib/LightweightRingBuff.h **** 			  Buffer->In = Buffer->Buffer;
 1913               		.loc 1 163 4 is_stmt 1 view .LVU600
 163:Lib/LightweightRingBuff.h **** 			  Buffer->In = Buffer->Buffer;
 1914               		.loc 1 163 8 is_stmt 0 view .LVU601
 1915 002e E091 0000 		lds r30,USARTtoUSB_Buffer+128
 1916 0032 F091 0000 		lds r31,USARTtoUSB_Buffer+128+1
 1917 0036 CF01      		movw r24,r30
 1918               	.LVL107:
 163:Lib/LightweightRingBuff.h **** 			  Buffer->In = Buffer->Buffer;
 1919               		.loc 1 163 8 view .LVU602
 1920 0038 0196      		adiw r24,1
 163:Lib/LightweightRingBuff.h **** 			  Buffer->In = Buffer->Buffer;
 1921               		.loc 1 163 7 view .LVU603
 1922 003a 20E0      		ldi r18,hi8(USARTtoUSB_Buffer+127)
 1923 003c E030      		cpi r30,lo8(USARTtoUSB_Buffer+127)
 1924 003e F207      		cpc r31,r18
 1925 0040 01F0      		breq .L119
 1926 0042 9093 0000 		sts USARTtoUSB_Buffer+128+1,r25
 1927 0046 8093 0000 		sts USARTtoUSB_Buffer+128,r24
 1928               	.L120:
 166:Lib/LightweightRingBuff.h **** 			{
 1929               		.loc 1 166 4 is_stmt 1 view .LVU604
 1930               	.LBB222:
 166:Lib/LightweightRingBuff.h **** 			{
 1931               		.loc 1 166 4 view .LVU605
 1932 004a 9FB7      		in r25,__SREG__
 1933               	.LVL108:
 1934               	.LBB223:
 1935               	.LBI223:
  48:/opt/homebrew/Cellar/avr-gcc@9/9.4.0_1/avr/include/util/atomic.h **** {
 1936               		.loc 2 48 27 view .LVU606
 1937               	.LBB224:
  50:/opt/homebrew/Cellar/avr-gcc@9/9.4.0_1/avr/include/util/atomic.h ****     return 1;
 1938               		.loc 2 50 5 view .LVU607
 1939               	/* #APP */
 1940               	 ;  50 "/opt/homebrew/Cellar/avr-gcc@9/9.4.0_1/avr/include/util/atomic.h" 1
 1941 004c F894      		cli
 1942               	 ;  0 "" 2
  51:/opt/homebrew/Cellar/avr-gcc@9/9.4.0_1/avr/include/util/atomic.h **** }
 1943               		.loc 2 51 5 view .LVU608
 1944               	.LVL109:
  51:/opt/homebrew/Cellar/avr-gcc@9/9.4.0_1/avr/include/util/atomic.h **** }
 1945               		.loc 2 51 5 is_stmt 0 view .LVU609
 1946               	/* #NOAPP */
 1947               	.LBE224:
 1948               	.LBE223:
 166:Lib/LightweightRingBuff.h **** 			{
 1949               		.loc 1 166 4 is_stmt 1 view .LVU610
 168:Lib/LightweightRingBuff.h **** 			}
 1950               		.loc 1 168 5 view .LVU611
 168:Lib/LightweightRingBuff.h **** 			}
 1951               		.loc 1 168 18 is_stmt 0 view .LVU612
 1952 004e 8091 0000 		lds r24,USARTtoUSB_Buffer+132
 1953 0052 8F5F      		subi r24,lo8(-(1))
 1954 0054 8093 0000 		sts USARTtoUSB_Buffer+132,r24
 166:Lib/LightweightRingBuff.h **** 			{
 1955               		.loc 1 166 4 is_stmt 1 view .LVU613
 1956               	.LVL110:
 166:Lib/LightweightRingBuff.h **** 			{
 1957               		.loc 1 166 4 view .LVU614
 1958               	.LBB225:
 1959               	.LBI225:
  68:/opt/homebrew/Cellar/avr-gcc@9/9.4.0_1/avr/include/util/atomic.h **** {
 1960               		.loc 2 68 24 view .LVU615
 1961               	.LBB226:
  70:/opt/homebrew/Cellar/avr-gcc@9/9.4.0_1/avr/include/util/atomic.h ****     __asm__ volatile ("" ::: "memory");
 1962               		.loc 2 70 5 view .LVU616
  70:/opt/homebrew/Cellar/avr-gcc@9/9.4.0_1/avr/include/util/atomic.h ****     __asm__ volatile ("" ::: "memory");
 1963               		.loc 2 70 10 is_stmt 0 view .LVU617
 1964 0058 9FBF      		out __SREG__,r25
 1965               		.loc 2 71 5 is_stmt 1 view .LVU618
 1966               	.LVL111:
 1967               	.L117:
 1968               	/* epilogue start */
 1969               		.loc 2 71 5 is_stmt 0 view .LVU619
 1970               	.LBE226:
 1971               	.LBE225:
 1972               	.LBE222:
 1973               	.LBE221:
 1974               	.LBE220:
 1975               	.LBE219:
 481:dualMoco.c    ****   }
 482:dualMoco.c    **** }
 1976               		.loc 3 482 1 view .LVU620
 1977 005a FF91      		pop r31
 1978 005c EF91      		pop r30
 1979 005e 9F91      		pop r25
 1980 0060 8F91      		pop r24
 1981 0062 2F91 1F90 		__gcc_isr 2
 1981      1FBE 1F90 
 1982 006a 1895      		reti
 1983               	.LVL112:
 1984               	.L119:
 1985               	.LBB229:
 1986               	.LBB228:
 1987               	.LBB227:
 164:Lib/LightweightRingBuff.h **** 
 1988               		.loc 1 164 6 is_stmt 1 view .LVU621
 164:Lib/LightweightRingBuff.h **** 
 1989               		.loc 1 164 17 is_stmt 0 view .LVU622
 1990 006c 80E0      		ldi r24,lo8(USARTtoUSB_Buffer)
 1991 006e 90E0      		ldi r25,hi8(USARTtoUSB_Buffer)
 1992 0070 9283      		std Z+2,r25
 1993 0072 8183      		std Z+1,r24
 164:Lib/LightweightRingBuff.h **** 
 1994               		.loc 1 164 17 view .LVU623
 1995 0074 00C0      		rjmp .L120
 1996               		__gcc_isr 0,r18
 1997               	.LBE227:
 1998               	.LBE228:
 1999               	.LBE229:
 2000               		.cfi_endproc
 2001               	.LFE103:
 2003               		.section	.text.EVENT_CDC_Device_ControLineStateChanged,"ax",@progbits
 2004               	.global	EVENT_CDC_Device_ControLineStateChanged
 2006               	EVENT_CDC_Device_ControLineStateChanged:
 2007               	.LVL113:
 2008               	.LFB104:
 483:dualMoco.c    **** 
 484:dualMoco.c    **** /** Event handler for the CDC Class driver Host-to-Device Line Encoding Changed event.
 485:dualMoco.c    ****  *
 486:dualMoco.c    ****  *  \param[in] CDCInterfaceInfo  Pointer to the CDC class interface configuration structure being r
 487:dualMoco.c    ****  */
 488:dualMoco.c    **** void EVENT_CDC_Device_ControLineStateChanged(USB_ClassInfo_CDC_Device_t* const CDCInterfaceInfo) {
 2009               		.loc 3 488 98 is_stmt 1 view -0
 2010               		.cfi_startproc
 2011               	/* prologue: function */
 2012               	/* frame size = 0 */
 2013               	/* stack size = 0 */
 2014               	.L__stack_usage = 0
 489:dualMoco.c    ****   bool CurrentDTRState = (CDCInterfaceInfo->State.ControlLineStates.HostToDevice & CDC_CONTROL_LINE
 2015               		.loc 3 489 3 view .LVU625
 490:dualMoco.c    **** 	
 491:dualMoco.c    ****   if (CurrentDTRState)
 2016               		.loc 3 491 3 view .LVU626
 2017               		.loc 3 491 6 is_stmt 0 view .LVU627
 2018 0000 FC01      		movw r30,r24
 2019 0002 8585      		ldd r24,Z+13
 2020               	.LVL114:
 2021               		.loc 3 491 6 view .LVU628
 2022 0004 80FF      		sbrs r24,0
 2023 0006 00C0      		rjmp .L122
 492:dualMoco.c    ****     AVR_RESET_LINE_PORT &= ~AVR_RESET_LINE_MASK;
 2024               		.loc 3 492 5 is_stmt 1 view .LVU629
 2025               		.loc 3 492 25 is_stmt 0 view .LVU630
 2026 0008 5F98      		cbi 0xb,7
 2027 000a 0895      		ret
 2028               	.L122:
 493:dualMoco.c    ****   else
 494:dualMoco.c    ****     AVR_RESET_LINE_PORT |= AVR_RESET_LINE_MASK;
 2029               		.loc 3 494 5 is_stmt 1 view .LVU631
 2030               		.loc 3 494 25 is_stmt 0 view .LVU632
 2031 000c 5F9A      		sbi 0xb,7
 2032               	/* epilogue start */
 495:dualMoco.c    **** }
 2033               		.loc 3 495 1 view .LVU633
 2034 000e 0895      		ret
 2035               		.cfi_endproc
 2036               	.LFE104:
 2038               		.data
 2041               	cnt.3242:
 2042 0000 28        		.byte	40
 2043               		.section	.rodata
 2046               	stateTransTable.3235:
 2047 0000 00        		.string	""
 2048 0001 00        		.string	""
 2049 0002 0382 0584 		.string	"\003\202\005\204\007\206\t\210\212"
 2049      0786 0988 
 2049      8A00 
 2050 000c 8C00      		.string	"\214"
 2051 000e 0F8E      		.ascii	"\017\216"
 2052               		.local	PC.3232
 2053               		.comm	PC.3232,1,1
 2054               		.local	sysExCnt.3234
 2055               		.comm	sysExCnt.3234,1,1
 2056               		.local	SysEx.3233
 2057               		.comm	SysEx.3233,1,1
 2058               	.global	Keyboard_MIDI_Interface
 2059               		.data
 2062               	Keyboard_MIDI_Interface:
 2063 0001 01        		.byte	1
 2064 0002 02        		.byte	2
 2065 0003 4000      		.word	64
 2066 0005 00        		.byte	0
 2067 0006 01        		.byte	1
 2068 0007 4000      		.word	64
 2069 0009 00        		.byte	0
 2070               	.global	VirtualSerial_CDC_Interface
 2073               	VirtualSerial_CDC_Interface:
 2074 000a 00        		.byte	0
 2075 000b 03        		.byte	3
 2076 000c 4000      		.word	64
 2077 000e 00        		.byte	0
 2078 000f 04        		.byte	4
 2079 0010 4000      		.word	64
 2080 0012 00        		.byte	0
 2081 0013 02        		.byte	2
 2082 0014 0800      		.word	8
 2083 0016 00        		.byte	0
 2084 0017 0000 0000 		.zero	9
 2084      0000 0000 
 2084      00
 2085               		.local	tx_buf
 2086               		.comm	tx_buf,32,1
 2087               		.local	irptr
 2088               		.comm	irptr,1,1
 2089               		.local	uwptr
 2090               		.comm	uwptr,1,1
 2091               		.local	utx_buf
 2092               		.comm	utx_buf,8,1
 2093               		.local	rx_buf
 2094               		.comm	rx_buf,8,1
 2095               		.local	utxrdy
 2096               		.comm	utxrdy,1,1
 2097               		.comm	PulseMSRemaining,3,1
 2098               		.comm	USARTtoUSB_Buffer,133,1
 2099               		.comm	USBtoUSART_Buffer,133,1
 2100               	.global	highSpeed
 2101               		.section .bss
 2104               	highSpeed:
 2105 0000 00        		.zero	1
 2106               	.global	mocoMode
 2107               		.data
 2110               	mocoMode:
 2111 0020 01        		.byte	1
 2112               		.text
 2113               	.Letext0:
 2114               		.file 8 "/opt/homebrew/Cellar/avr-gcc@9/9.4.0_1/avr/include/stdint.h"
 2115               		.file 9 "LUFA-100807/LUFA/Drivers/USB/HighLevel/../LowLevel/../HighLevel/StdRequestType.h"
 2116               		.file 10 "LUFA-100807/LUFA/Drivers/USB/HighLevel/../LowLevel/../HighLevel/DeviceStandardReq.h"
 2117               		.file 11 "LUFA-100807/LUFA/Drivers/USB/HighLevel/USBTask.h"
 2118               		.file 12 "LUFA-100807/LUFA/Drivers/USB/HighLevel/../LowLevel/Device.h"
 2119               		.file 13 "LUFA-100807/LUFA/Drivers/USB/Class/Device/../Common/CDC.h"
 2120               		.file 14 "/opt/homebrew/Cellar/avr-gcc@9/9.4.0_1/avr/include/stdio.h"
 2121               		.file 15 "LUFA-100807/LUFA/Drivers/USB/Class/Device/CDC.h"
 2122               		.file 16 "LUFA-100807/LUFA/Drivers/USB/Class/Device/../Common/MIDI.h"
 2123               		.file 17 "dualMoco.h"
 2124               		.file 18 "LUFA-100807/LUFA/Drivers/USB/HighLevel/../LowLevel/USBController.h"